(lp0
(dp1
S'arg1'
p2
Vyagapriya
p3
sS'arg2'
p4
Vragam
p5
sS'full_sentence'
p6
VYagapriya is a ragam in Carnatic music.\u000a
p7
sS'rel'
p8
S'is a'
p9
sa(dp10
g2
Vyagapriya
p11
sg4
Vmusic
p12
sg6
VYagapriya is a ragam in Carnatic music.\u000a
p13
sg8
Vragam in
p14
sa(dp15
g2
Vyagapriya
p16
sg4
Vmelakarta
p17
sg6
VAs Yagapriya is a melakarta, by definition it is a sampoorna ragam.\u000a
p18
sg8
S'is a'
p19
sa(dp20
g2
Vyagapriya
p21
sg4
Vminor ragam
p22
sg6
VYagapriya has a few minor janya ragams associated with it.\u000a
p23
sg8
Vhave
p24
sa(dp25
g2
Vkriti
p26
sg4
Vmusical composition
p27
sg6
VKriti is a format of a musical composition typical to Carnatic music, an Indian classical music style.\u000a
p28
sg8
Vformat of
p29
sa(dp30
g2
Vkriti
p31
sg4
Vformat
p32
sg6
VKriti is a format of a musical composition typical to Carnatic music, an Indian classical music style.\u000a
p33
sg8
S'is a'
p34
sa(dp35
g2
Vjanya
p36
sg4
Vterm
p37
sg6
VJanya is a term meaning derived.\u000a
p38
sg8
S'is a'
p39
sa(dp40
g2
Vramnad krishnan
p41
sg4
Vtradition
p42
sg6
VRamnad Krishnan was a vocalist in the Carnatic tradition.\u000a
p43
sg8
Vvocalist in
p44
sa(dp45
g2
Vramnad krishnan
p46
sg4
Vvocalist
p47
sg6
VRamnad Krishnan was a vocalist in the Carnatic tradition.\u000a
p48
sg8
S'is a'
p49
sa(dp50
g2
Vbhavapriya
p51
sg4
Vmusic
p52
sg6
VBhavapriya  is a ragam in Carnatic music.\u000a
p53
sg8
Vragam in
p54
sa(dp55
g2
Vbhavapriya
p56
sg4
Vragam
p57
sg6
VBhavapriya  is a ragam in Carnatic music.\u000a
p58
sg8
S'is a'
p59
sa(dp60
g2
Vbhavapriya
p61
sg4
Vminor ragam
p62
sg6
VBhavapriya has a minor janya ragam associated with it.\u000a
p63
sg8
Vhave
p64
sa(dp65
g2
Vswathi sangeethotsavam
p66
sg4
Vfestival
p67
sg6
VSwathi Sangeethotsavam is a week-long festival of music celebrating the compositions of Maharaja Swathi Thirunal.\u000a
p68
sg8
S'is a'
p69
sa(dp70
g2
Vswathi sangeethotsavam
p71
sg4
Vweek-long festival
p72
sg6
VSwathi Sangeethotsavam is a week-long festival of music celebrating the compositions of Maharaja Swathi Thirunal.\u000a
p73
sg8
S'is a'
p74
sa(dp75
g2
Vswathi sangeethotsavam
p76
sg4
Vmusic
p77
sg6
VSwathi Sangeethotsavam is a week-long festival of music celebrating the compositions of Maharaja Swathi Thirunal.\u000a
p78
sg8
Vfestival of
p79
sa(dp80
g2
Vhamsadhvani
p81
sg4
Vhansadhwani
p82
sg6
VHamsadhvani also spelled as Hansadhwani, is a raga in Carnatic music.\u000a
p83
sg8
Vspell as
p84
sa(dp85
g2
Vhamsadhvani
p86
sg4
Vmusic
p87
sg6
VHamsadhvani also spelled as Hansadhwani, is a raga in Carnatic music.\u000a
p88
sg8
Vraga in
p89
sa(dp90
g2
Vhamsadhvani
p91
sg4
Vraga
p92
sg6
VHamsadhvani also spelled as Hansadhwani, is a raga in Carnatic music.\u000a
p93
sg8
S'is a'
p94
sa(dp95
g2
Vhamsadhvani
p96
sg4
Vmusic
p97
sg6
VHamsadhvani is also extensively used in Hindustani music and said to be borrowed into it from Carnatic music.\u000a
p98
sg8
Vuse in
p99
sa(dp100
g2
Vhamsadhvani
p101
sg4
Vdhaivatam
p102
sg6
VHamsadhvani does not contain madhyamam or dhaivatam.\u000a
p103
sg8
Vnot contain
p104
sa(dp105
g2
Vhamsadhvani
p106
sg4
Vmadhyamam
p107
sg6
VHamsadhvani does not contain madhyamam or dhaivatam.\u000a
p108
sg8
g104
sa(dp109
g2
Vhamsadhvani
p110
sg4
Vjanya
p111
sg6
VIt is an elusive question as to whether Hamsadhvani is a janya of this or that melakarta.\u000a
p112
sg8
S'is a'
p113
sa(dp114
g2
Vhamsadhvani
p115
sg4
Vmelakarta
p116
sg6
VIt is an elusive question as to whether Hamsadhvani is a janya of this or that melakarta.\u000a
p117
sg8
Vjanya of
p118
sa(dp119
g2
Vkambhoji
p120
sg4
Vparent scale
p121
sg6
VKambhoji is a sort of parent scale much like Bilawal or Kalyan.\u000a
p122
sg8
Vsort of
p123
sa(dp124
g2
Vkambhoji
p125
sg4
Vbilawal
p126
sg6
VKambhoji is a sort of parent scale much like Bilawal or Kalyan.\u000a
p127
sg8
Vsort like
p128
sa(dp129
g2
Vkambhoji
p130
sg4
Vkalyan
p131
sg6
VKambhoji is a sort of parent scale much like Bilawal or Kalyan.\u000a
p132
sg8
Vsort like
p133
sa(dp134
g2
Vkambhoji
p135
sg4
Vsort
p136
sg6
VKambhoji is a sort of parent scale much like Bilawal or Kalyan.\u000a
p137
sg8
S'is a'
p138
sa(dp139
g2
Vkambhoji
p140
sg4
Vearly part
p141
sg6
VKambhoji is recommended to be best played at early parts of night or early morning hours.\u000a
p142
sg8
Vplay at
p143
sa(dp144
g2
Vviruttam
p145
sg4
Vset talum
p146
sg6
VViruttams do not possess a set tala and are solely improvised using one or more ragams.\u000a
p147
sg8
Vnot possess
p148
sa(dp149
g2
g145
sg4
Vmore ragam
p150
sg6
VViruttams do not possess a set tala and are solely improvised using one or more ragams.\u000a
p151
sg8
Vuse
p152
sa(dp153
g2
Vmanodharma
p154
sg4
Vmusic
p155
sg6
VIt is one of many forms of manodharma in Carnatic music.\u000a
p156
sg8
Vmanodharma in
p157
sa(dp158
g2
Vviruttam
p159
sg4
Vrendition
p160
sg6
VA viruttam usually precedes rendition of a song.\u000a
p161
sg8
Vprecede
p162
sa(dp163
g2
Vraghupriya
p164
sg4
Vmusic
p165
sg6
VRaghupriya is a ragam in Carnatic music.\u000a
p166
sg8
Vragam in
p167
sa(dp168
g2
Vraghupriya
p169
sg4
Vragam
p170
sg6
VRaghupriya is a ragam in Carnatic music.\u000a
p171
sg8
S'is a'
p172
sa(dp173
g2
Vraghupriya
p174
sg4
Vminor ragam
p175
sg6
VRaghupriya has a few minor janya ragams associated with it.\u000a
p176
sg8
Vhave
p177
sa(dp178
g2
Vrishabhapriya
p179
sg4
Vmusic
p180
sg6
VRishabhapriya is a ragam in Carnatic music.\u000a
p181
sg8
Vragam in
p182
sa(dp183
g2
Vrishabhapriya
p184
sg4
Vragam
p185
sg6
VRishabhapriya is a ragam in Carnatic music.\u000a
p186
sg8
S'is a'
p187
sa(dp188
g2
Vcharukesi
p189
sg4
Vrespective raga
p190
sg6
VSome of his popular compositions include Karna Ranjani, Charukesi and Saraswathi set in tune to respective ragas.\u000a
p191
sg8
Vset to
p192
sa(dp193
g2
Vcharukesi
p194
sg4
Vtune
p195
sg6
VSome of his popular compositions include Karna Ranjani, Charukesi and Saraswathi set in tune to respective ragas.\u000a
p196
sg8
Vset in
p197
sa(dp198
g2
Vkosalam
p199
sg4
Vmusic
p200
sg6
VKosalam is a ragam in Carnatic music.\u000a
p201
sg8
Vragam in
p202
sa(dp203
g2
Vkosalam
p204
sg4
Vragam
p205
sg6
VKosalam is a ragam in Carnatic music.\u000a
p206
sg8
S'is a'
p207
sa(dp208
g2
Vkosalam
p209
sg4
Vmelakarta ragam
p210
sg6
VKosalam is a melakarta ragam and hence, by definition, it is a sampoorna ragam.\u000a
p211
sg8
S'is a'
p212
sa(dp213
g2
Vkosalam
p214
sg4
Vragam
p215
sg6
VKosalam is a melakarta ragam and hence, by definition, it is a sampoorna ragam.\u000a
p216
sg8
S'is a'
p217
sa(dp218
g2
Vkosalam
p219
sg4
Vjanya ragam
p220
sg6
VKosalam has a janya ragam associated with it.\u000a
p221
sg8
Vhave
p222
sa(dp223
g2
Vrajhesh vaidhya
p224
sg4
Vtamil_nadu
p225
sg6
VRajhesh Vaidhya, is an Indian veena player hailing from Tamil Nadu.\u000a
p226
sg8
Vhail from
p227
sa(dp228
g2
Vrajhesh vaidhya
p229
sg4
Vplayer
p230
sg6
VRajhesh Vaidhya, is an Indian veena player hailing from Tamil Nadu.\u000a
p231
sg8
S'is a'
p232
sa(dp233
g2
Vrajhesh vaidhya
p234
sg4
Vveena player
p235
sg6
VRajhesh Vaidhya, is an Indian veena player hailing from Tamil Nadu.\u000a
p236
sg8
S'is a'
p237
sa(dp238
g2
Vrajhesh vaidhya
p239
sg4
Vindian player
p240
sg6
VRajhesh Vaidhya, is an Indian veena player hailing from Tamil Nadu.\u000a
p241
sg8
S'is a'
p242
sa(dp243
g2
Vghatam
p244
sg4
Vmanamadurai
p245
sg6
VGhatams are mostly manufactured in Manamadurai, a place near Madurai in Tamil Nadu.\u000a
p246
sg8
Vmanufacture in
p247
sa(dp248
g2
Vghatam
p249
sg4
Vother position
p250
sg6
VThe ghatam can be moved to other positions while being played.\u000a
p251
sg8
Vmove to
p252
sa(dp253
g2
Vghatam
p254
sg4
Vsouth various indian
p255
sg6
VThe shell tones ring in a bell-like fashion with much more of a sustain than the various South Indian ghatams.\u000a
p256
sg8
Vghatam 's
p257
sa(dp258
g2
Vsukumar prasad
p259
sg4
Vdegree
p260
sg6
VSukumar Prasad received a degree from the Indian Institute of Technology, Madras.\u000a
p261
sg8
Vreceive
p262
sa(dp263
g2
Vchande
p264
sg4
Vclassical music
p265
sg6
VThe chande is a drum used in the traditional and classical music of South India and particularly in Karnataka.\u000a
p266
sg8
Vuse in
p267
sa(dp268
g2
g264
sg4
Vkarnataka
p269
sg6
VThe chande is a drum used in the traditional and classical music of South India and particularly in Karnataka.\u000a
p270
sg8
Vuse in
p271
sa(dp272
g2
Vchande
p273
sg4
Vkerala
p274
sg6
VThe chande used in Badagu Thittu is structurally and acoustically different from chenda used in Kerala.\u000a
p275
sg8
Vuse in
p276
sa(dp277
g2
Vchenda
p278
sg4
Vkerala
p279
sg6
VThe chande used in Badagu Thittu is structurally and acoustically different from chenda used in Kerala.\u000a
p280
sg8
Vuse in
p281
sa(dp282
g2
g273
sg4
g278
sg6
VThe chande used in Badagu Thittu is structurally and acoustically different from chenda used in Kerala.\u000a
p283
sg8
Vdifferent from
p284
sa(dp285
g2
Vchande
p286
sg4
Vrecent addition
p287
sg6
VHowever Chande is the relatively recent addition to Yakshagana orchestra.\u000a
p288
sg8
S'is a'
p289
sa(dp290
g2
Vchande
p291
sg4
Vaddition
p292
sg6
VHowever Chande is the relatively recent addition to Yakshagana orchestra.\u000a
p293
sg8
S'is a'
p294
sa(dp295
g2
Vchande
p296
sg4
Vorchestra
p297
sg6
VHowever Chande is the relatively recent addition to Yakshagana orchestra.\u000a
p298
sg8
Vaddition to
p299
sa(dp300
g2
Vchande
p301
sg4
Voctave
p302
sg6
VTraditionally the chande must be tuned to an octave above singers tonic.\u000a
p303
sg8
Vtune to
p304
sa(dp305
g2
Vchande
p306
sg4
Vit
p307
sg6
VThe chande is played resting it vertically on the floor using two sticks.\u000a
p308
sg8
Vrest
p309
sa(dp310
g2
g306
sg4
Vtwo
p311
sg6
VThe chande is played resting it vertically on the floor using two sticks.\u000a
p312
sg8
Vuse
p313
sa(dp314
g2
Vchande
p315
sg4
Vform
p316
sg6
VThe chande groves form what is called the Yakshagana Tala.\u000a
p317
sg8
Vgrove
p318
sa(dp319
g2
Vsalaga bhairavi
p320
sg4
Vragam
p321
sg6
VSalaga Bhairavi is a ragam in Carnatic music.\u000a
p322
sg8
S'is a'
p323
sa(dp324
g2
Vsalaga bhairavi
p325
sg4
Vmusic
p326
sg6
VSalaga Bhairavi is a ragam in Carnatic music.\u000a
p327
sg8
Vragam in
p328
sa(dp329
g2
Vsaveri
p330
sg4
Vshuddha combination
p331
sg6
VIt is a combination of the pentatonic scale Shuddha Saveri and the sampurna raga scale Kharaharapriya.\u000a
p332
sg8
S'is a'
p333
sa(dp334
g2
Vsalaga bhairavi
p335
sg4
Vasymmetric ragam
p336
sg6
VSalaga Bhairavi is an asymmetric ragam that does not contain gandharam or nishadham in the ascending scale.\u000a
p337
sg8
S'is a'
p338
sa(dp339
g2
Vsalaga bhairavi
p340
sg4
Vragam
p341
sg6
VSalaga Bhairavi is an asymmetric ragam that does not contain gandharam or nishadham in the ascending scale.\u000a
p342
sg8
S'is a'
p343
sa(dp344
g2
Vsalaga bhairavi
p345
sg4
Vgandharam
p346
sg6
VSalaga Bhairavi is an asymmetric ragam that does not contain gandharam or nishadham in the ascending scale.\u000a
p347
sg8
Vnot contain
p348
sa(dp349
g2
Vsalaga bhairavi
p350
sg4
Vnishadham
p351
sg6
VSalaga Bhairavi is an asymmetric ragam that does not contain gandharam or nishadham in the ascending scale.\u000a
p352
sg8
g348
sa(dp353
g2
Vvijay siva
p354
sg4
Vpadma_seshadri_bala_bhavan_senior_secondary_school
p355
sg6
VVijay Siva went to Padma Seshadri Bala Bhavan Senior Secondary School, Chennai.\u000a
p356
sg8
Vgo to
p357
sa(dp358
g2
Vvijay siva
p359
sg4
Vchennai
p360
sg6
VVijay Siva went to Padma Seshadri Bala Bhavan Senior Secondary School, Chennai.\u000a
p361
sg8
Vgo to
p362
sa(dp363
g2
Virayimman thampi
p364
sg4
Vcheyvan karuna enthu
p365
sg6
VKaruna Cheyvan Enthu is a Malayalam keertanam composed by Irayimman Thampi on Guruvayurappan.\u000a
p366
sg8
Vcompose
p367
sa(dp368
g2
Vchembai
p369
sg4
Vit
p370
sg6
VThough originally set to Sri ragam, Chembai popularised the composition by singing it in Yadukula Kambhoji.\u000a
p371
sg8
Vsing
p372
sa(dp373
g2
Vchembai
p374
sg4
Vcomposition
p375
sg6
VThough originally set to Sri ragam, Chembai popularised the composition by singing it in Yadukula Kambhoji.\u000a
p376
sg8
Vpopularise
p377
sa(dp378
g2
Vganamurti
p379
sg4
Vmusic
p380
sg6
VGanamurti is a ragam in Carnatic music.\u000a
p381
sg8
Vragam in
p382
sa(dp383
g2
Vganamurti
p384
sg4
Vragam
p385
sg6
VGanamurti is a ragam in Carnatic music.\u000a
p386
sg8
S'is a'
p387
sa(dp388
g2
Vvenkatamakhin
p389
sg4
Voriginal list
p390
sg6
VGanasamavarali is the 3rd Melakarta in the original list compiled by Venkatamakhin.\u000a
p391
sg8
Vcompile
p392
sa(dp393
g2
Vganamurti
p394
sg4
Vminor ragam
p395
sg6
VGanamurti has a few minor janya ragams associated with it.\u000a
p396
sg8
Vhave
p397
sa(dp398
g2
Vkanjira
p399
sg4
S'#unknown'
p400
sg6
VThe kanjira have been used since 1880s, and was added to classical concerts during the 1930s.\u000a
p401
sg8
Vadd during
p402
sa(dp403
g2
g399
sg4
Vclassical concert
p404
sg6
VThe kanjira have been used since 1880s, and was added to classical concerts during the 1930s.\u000a
p405
sg8
Vadd to
p406
sa(dp407
g2
Vgamanashrama
p408
sg4
Vmusic
p409
sg6
VGamanashrama is a ragam in Carnatic music.\u000a
p410
sg8
Vragam in
p411
sa(dp412
g2
Vgamanashrama
p413
sg4
Vragam
p414
sg6
VGamanashrama is a ragam in Carnatic music.\u000a
p415
sg8
S'is a'
p416
sa(dp417
g2
Vgamanashrama
p418
sg4
Vjanya ragam
p419
sg6
VGamanashrama has a few janya ragams associated with it, of which Hamsanandi and Purvi kalyani are popular.\u000a
p420
sg8
Vhave
p421
sa(dp422
g2
Vhamsanandi
p423
sg4
Vkalyanus
p424
sg6
VGamanashrama has a few janya ragams associated with it, of which Hamsanandi and Purvi kalyani are popular.\u000a
p425
sg8
S'is a'
p426
sa(dp427
g2
Vhamsanandi
p428
sg4
Vpurvi
p429
sg6
VGamanashrama has a few janya ragams associated with it, of which Hamsanandi and Purvi kalyani are popular.\u000a
p430
sg8
Vkalyanus 's
p431
sa(dp432
g2
Vchalanata
p433
sg4
Vragam
p434
sg6
VChalanata is a ragam in Carnatic music.\u000a
p435
sg8
S'is a'
p436
sa(dp437
g2
Vchalanata
p438
sg4
Vmusic
p439
sg6
VChalanata is a ragam in Carnatic music.\u000a
p440
sg8
Vragam in
p441
sa(dp442
g2
Vchalanata
p443
sg4
Vtwo
p444
sg6
VChalanata has two popular janya ragams associated with it, namely Nata and Ghambheeranata.\u000a
p445
sg8
Vhave
p446
sa(dp447
g2
Vanandabhairavi
p448
sg4
Vswara pattern
p449
sg6
VAnandabhairavi also has unique swara patterns both in manodharma and in its compositions.\u000a
p450
sg8
Vhave
p451
sa(dp452
g2
Vanandabhairavi
p453
sg4
Vfavourite ragam
p454
sg6
VAnandabhairavi is one of the favourite ragams of Syama Sastri.\u000a
p455
sg8
Vof
p456
sa(dp457
g2
Vchenda
p458
sg4
Vdrummer neck
p459
sg6
VThe Chenda is suspended from the drummers neck so that it hangs vertically.\u000a
p460
sg8
Vsuspend from
p461
sa(dp462
g2
Vcarnatic music
p463
sg4
Vtraditional kannada
p464
sg6
VGamaka draws ragas from traditional Kannada folktunes and Carnatic music.\u000a
p465
sg8
Vfolktune 's
p466
sa(dp467
g2
Vkalakshetra
p468
sg4
Vnew campus
p469
sg6
VIn 1962, Kalakshetra moved to a new campus in Besant Nagar, Chennai, India, occupying of land.\u000a
p470
sg8
Vmove to
p471
sa(dp472
g2
Vkalakshetra
p473
sg4
V1962
p474
sg6
VIn 1962, Kalakshetra moved to a new campus in Besant Nagar, Chennai, India, occupying of land.\u000a
p475
sg8
Vmove in
p476
sa(dp477
g2
Vkalakshetra
p478
sg4
Vbesant_nagar
p479
sg6
VIn 1962, Kalakshetra moved to a new campus in Besant Nagar, Chennai, India, occupying of land.\u000a
p480
sg8
Vmove in
p481
sa(dp482
g2
Vkalakshetra
p483
sg4
Vland
p484
sg6
VIn 1962, Kalakshetra moved to a new campus in Besant Nagar, Chennai, India, occupying of land.\u000a
p485
sg8
Voccupy of
p486
sa(dp487
g2
Vkalakshetra
p488
sg4
Vkalakshetra_foundation
p489
sg6
VKalakshetra, later known as the Kalakshetra Foundation was established by Smt.\u000a
p490
sg8
Vknow as
p491
sa(dp492
g2
Vvalaji
p493
sg4
Vragam
p494
sg6
VValaji is a symmetric ragam that does not contain rishabham or madhyamam.\u000a
p495
sg8
S'is a'
p496
sa(dp497
g2
Vvalaji
p498
sg4
Vsymmetric ragam
p499
sg6
VValaji is a symmetric ragam that does not contain rishabham or madhyamam.\u000a
p500
sg8
S'is a'
p501
sa(dp502
g2
Vvalaji
p503
sg4
Vmadhyamam
p504
sg6
VValaji is a symmetric ragam that does not contain rishabham or madhyamam.\u000a
p505
sg8
Vnot contain
p506
sa(dp507
g2
Vvalaji
p508
sg4
Vrishabham
p509
sg6
VValaji is a symmetric ragam that does not contain rishabham or madhyamam.\u000a
p510
sg8
g506
sa(dp511
g2
Vvalaji
p512
sg4
Vit
p513
sg6
VSince Chakravakam is lowest in ordinal number among these 6 melakarta scales, Valaji is associated with it.\u000a
p514
sg8
Vassociate with
p515
sa(dp516
g2
Vvalaji
p517
sg4
Vscale
p518
sg6
VValaji is a pleasing scale, but has only a few compositions in classical music.\u000a
p519
sg8
S'is a'
p520
sa(dp521
g2
Vvalaji
p522
sg4
Vplease scale
p523
sg6
VValaji is a pleasing scale, but has only a few compositions in classical music.\u000a
p524
sg8
S'is a'
p525
sa(dp526
g2
Vvalaji
p527
sg4
Vfew composition
p528
sg6
VValaji is a pleasing scale, but has only a few compositions in classical music.\u000a
p529
sg8
Vhave
p530
sa(dp531
g2
Vmalahari
p532
sg4
Vraga
p533
sg6
VMalahari, an ancient raga, was also grouped under this mela.\u000a
p534
sg8
S'is a'
p535
sa(dp536
g2
Vmalahari
p537
sg4
Vancient raga
p538
sg6
VMalahari, an ancient raga, was also grouped under this mela.\u000a
p539
sg8
S'is a'
p540
sa(dp541
g2
Vmalahari
p542
sg4
Vmelum
p543
sg6
VMalahari, an ancient raga, was also grouped under this mela.\u000a
p544
sg8
Vgroup under
p545
sa(dp546
g2
Vmalahari
p547
sg4
Vother
p548
sg6
VPurandaradasa and other Haridasas refer to the malavagaula, Malahari and several others by the collective name of battisa raga.\u000a
p549
sg8
S'is a'
p550
sa(dp551
g2
Vmalahari
p552
sg4
Vseveral other
p553
sg6
VPurandaradasa and other Haridasas refer to the malavagaula, Malahari and several others by the collective name of battisa raga.\u000a
p554
sg8
S'is a'
p555
sa(dp556
g2
Vjhalavarali
p557
sg4
Vragam
p558
sg6
VJhalavarali is a ragam in Carnatic music.\u000a
p559
sg8
S'is a'
p560
sa(dp561
g2
Vjhalavarali
p562
sg4
Vmusic
p563
sg6
VJhalavarali is a ragam in Carnatic music.\u000a
p564
sg8
Vragam in
p565
sa(dp566
g2
Vjhalavarali
p567
sg4
Vjanya ragam
p568
sg6
VJhalavarali has a few janya ragams associated with it, of which Varali is very popular.\u000a
p569
sg8
Vhave
p570
sa(dp571
g2
Vniroshta
p572
sg4
Vragam
p573
sg6
VNiroshta is a ragam in Carnatic music.\u000a
p574
sg8
S'is a'
p575
sa(dp576
g2
Vniroshta
p577
sg4
Vmusic
p578
sg6
VNiroshta is a ragam in Carnatic music.\u000a
p579
sg8
Vragam in
p580
sa(dp581
g2
Vniroshta
p582
sg4
Vlip
p583
sg6
VNiroshta literally means without the lips.\u000a
p584
sg8
Vmean without
p585
sa(dp586
g2
Vniroshta
p587
sg4
Vsymmetric scale
p588
sg6
VNiroshta is a symmetric pentatonic scale that does not contain madhyamam and panchamam.\u000a
p589
sg8
S'is a'
p590
sa(dp591
g2
Vniroshta
p592
sg4
Vpentatonic scale
p593
sg6
VNiroshta is a symmetric pentatonic scale that does not contain madhyamam and panchamam.\u000a
p594
sg8
S'is a'
p595
sa(dp596
g2
Vniroshta
p597
sg4
Vscale
p598
sg6
VNiroshta is a symmetric pentatonic scale that does not contain madhyamam and panchamam.\u000a
p599
sg8
S'is a'
p600
sa(dp601
g2
Vniroshta
p602
sg4
Vmadhyamam
p603
sg6
VNiroshta is a symmetric pentatonic scale that does not contain madhyamam and panchamam.\u000a
p604
sg8
Vnot contain
p605
sa(dp606
g2
Vniroshta
p607
sg4
Vpanchamam
p608
sg6
VNiroshta is a symmetric pentatonic scale that does not contain madhyamam and panchamam.\u000a
p609
sg8
g605
sa(dp610
g2
Vmalahari
p611
sg4
Vraga
p612
sg6
VMalahari is a Carnatic raga.\u000a
p613
sg8
S'is a'
p614
sa(dp615
g2
Vmalahari
p616
sg4
Vcarnatic raga
p617
sg6
VMalahari is a Carnatic raga.\u000a
p618
sg8
S'is a'
p619
sa(dp620
g2
Vkunnakudi subbalakshmi
p621
sg4
V21_april_1931
p622
sg6
VKunnakudi Subbalakshmi was born on 21 April 1931 in the town of Kunnakudi under the Madras Presidency.\u000a
p623
sg8
Vbear on
p624
sa(dp625
g2
Vkunnakudi subbalakshmi
p626
sg4
Vmadras presidency
p627
sg6
VKunnakudi Subbalakshmi was born on 21 April 1931 in the town of Kunnakudi under the Madras Presidency.\u000a
p628
sg8
Vbear under
p629
sa(dp630
g2
Vkunnakudi subbalakshmi
p631
sg4
Vtown
p632
sg6
VKunnakudi Subbalakshmi was born on 21 April 1931 in the town of Kunnakudi under the Madras Presidency.\u000a
p633
sg8
Vbear in
p634
sa(dp635
g2
Vtyagaraja aradhana
p636
sg4
Vthanjavur
p637
sg6
VShe attended the Tyagaraja Aradhana conducted at Thanjavur for 25 years conducted by her brother Kunnakudi Vaidyanathan.\u000a
p638
sg8
Vconduct at
p639
sa(dp640
g2
Vtyagaraja aradhana
p641
sg4
V25
p642
sg6
VShe attended the Tyagaraja Aradhana conducted at Thanjavur for 25 years conducted by her brother Kunnakudi Vaidyanathan.\u000a
p643
sg8
Vconduct for
p644
sa(dp645
g2
Vtyagaraja
p646
sg4
Vkeerthana
p647
sg6
VShe knew More than 2500 Keerthanas written by Tyagaraja, MuthuSwamy Dikshitar, Sama Sastri.\u000a
p648
sg8
Vwrite
p649
sa(dp650
g2
Vkamaladevi chattopadhyay
p651
sg4
Vindian fighter
p652
sg6
VKamaladevi Chattopadhyay was an Indian social reformer and freedom fighter.\u000a
p653
sg8
S'is a'
p654
sa(dp655
g2
Vkamaladevi chattopadhyay
p656
sg4
Vfighter
p657
sg6
VKamaladevi Chattopadhyay was an Indian social reformer and freedom fighter.\u000a
p658
sg8
S'is a'
p659
sa(dp660
g2
Vkamaladevi chattopadhyay
p661
sg4
Vreformer
p662
sg6
VKamaladevi Chattopadhyay was an Indian social reformer and freedom fighter.\u000a
p663
sg8
S'is a'
p664
sa(dp665
g2
Vkamaladevi chattopadhyay
p666
sg4
Vindian reformer
p667
sg6
VKamaladevi Chattopadhyay was an Indian social reformer and freedom fighter.\u000a
p668
sg8
S'is a'
p669
sa(dp670
g2
Vkamaladevi chattopadhyay
p671
sg4
Vsocial reformer
p672
sg6
VKamaladevi Chattopadhyay was an Indian social reformer and freedom fighter.\u000a
p673
sg8
S'is a'
p674
sa(dp675
g2
Vkamaladevi chattopadhyay
p676
sg4
Vsocial fighter
p677
sg6
VKamaladevi Chattopadhyay was an Indian social reformer and freedom fighter.\u000a
p678
sg8
S'is a'
p679
sa(dp680
g2
Vkamaladevi chattopadhyay
p681
sg4
Vfreedom fighter
p682
sg6
VKamaladevi Chattopadhyay was an Indian social reformer and freedom fighter.\u000a
p683
sg8
S'is a'
p684
sa(dp685
g2
Vrasika
p686
sg4
Vaesthete
p687
sg6
VA rasika is a term for an aesthete of Hindustani classical music.\u000a
p688
sg8
Vterm for
p689
sa(dp690
g2
Vyazh
p691
sg4
Vlute
p692
sg6
VYazh is a direct ancestor of modern day Veena or Lute.\u000a
p693
sg8
Vancestor of
p694
sa(dp695
g2
Vyazh
p696
sg4
Vday modern veena
p697
sg6
VYazh is a direct ancestor of modern day Veena or Lute.\u000a
p698
sg8
Vancestor of
p699
sa(dp700
g2
Vyazh
p701
sg4
Vdirect ancestor
p702
sg6
VYazh is a direct ancestor of modern day Veena or Lute.\u000a
p703
sg8
S'is a'
p704
sa(dp705
g2
Vyazh
p706
sg4
Vancestor
p707
sg6
VYazh is a direct ancestor of modern day Veena or Lute.\u000a
p708
sg8
S'is a'
p709
sa(dp710
g2
Vpattabhiramayya
p711
sg4
Vnineteenth-century composer
p712
sg6
VPattabhiramayya was a nineteenth-century composer of Carnatic music.\u000a
p713
sg8
S'is a'
p714
sa(dp715
g2
Vpattabhiramayya
p716
sg4
Vcomposer
p717
sg6
VPattabhiramayya was a nineteenth-century composer of Carnatic music.\u000a
p718
sg8
S'is a'
p719
sa(dp720
g2
Vpattabhiramayya
p721
sg4
Vmusic
p722
sg6
VPattabhiramayya was a nineteenth-century composer of Carnatic music.\u000a
p723
sg8
Vcomposer of
p724
sa(dp725
g2
Vtiger varadachariar
p726
sg4
Vhis disciple
p727
sg6
VSoon, MDR emerged as Tiger Varadachariar s favorite and was his closest disciple when the latter died in 1950.\u000a
p728
sg8
S'is a'
p729
sa(dp730
g2
Vtiger varadachariar
p731
sg4
Vclosest disciple
p732
sg6
VSoon, MDR emerged as Tiger Varadachariar s favorite and was his closest disciple when the latter died in 1950.\u000a
p733
sg8
S'is a'
p734
sa(dp735
g2
Vtiger varadachariar
p736
sg4
Vdisciple
p737
sg6
VSoon, MDR emerged as Tiger Varadachariar s favorite and was his closest disciple when the latter died in 1950.\u000a
p738
sg8
S'is a'
p739
sa(dp740
g2
Vbilahari
p741
sg4
Vmusic
p742
sg6
VBilahari is a ragam in Carnatic music.\u000a
p743
sg8
Vragam in
p744
sa(dp745
g2
Vbilahari
p746
sg4
Vragam
p747
sg6
VBilahari is a ragam in Carnatic music.\u000a
p748
sg8
S'is a'
p749
sa(dp750
g2
Vbilahari
p751
sg4
Vnishadham
p752
sg6
VBilahari is an asymmetric ragam that does not contain madhyamam or nishadham in the ascending scale.\u000a
p753
sg8
Vnot contain
p754
sa(dp755
g2
Vbilahari
p756
sg4
Vmadhyamam
p757
sg6
VBilahari is an asymmetric ragam that does not contain madhyamam or nishadham in the ascending scale.\u000a
p758
sg8
g754
sa(dp759
g2
Vbilahari
p760
sg4
Vasymmetric ragam
p761
sg6
VBilahari is an asymmetric ragam that does not contain madhyamam or nishadham in the ascending scale.\u000a
p762
sg8
S'is a'
p763
sa(dp764
g2
Vbilahari
p765
sg4
Vragam
p766
sg6
VBilahari is an asymmetric ragam that does not contain madhyamam or nishadham in the ascending scale.\u000a
p767
sg8
S'is a'
p768
sa(dp769
g2
Vcarnatic music
p770
sg4
Vsouth_india
p771
sg6
VThis is a list of Carnatic instrumentalists : musicians famous for playing the carnatic music of South India.\u000a
p772
sg8
Vmusic of
p773
sa(dp774
g2
Vcarnatic music
p775
sg4
Vduo
p776
sg6
VThe Hyderabad Brothers, D. Raghavachari and D. Seshachari, are a Carnatic music singing duo.\u000a
p777
sg8
Vsing
p778
sa(dp779
g2
Vdwaram lakshmi
p780
sg4
Vsinger
p781
sg6
VDwaram Lakshmi is an Indian singer of classical carnatic and Hindustani music.\u000a
p782
sg8
S'is a'
p783
sa(dp784
g2
Vdwaram lakshmi
p785
sg4
Vindian singer
p786
sg6
VDwaram Lakshmi is an Indian singer of classical carnatic and Hindustani music.\u000a
p787
sg8
S'is a'
p788
sa(dp789
g2
Vdwaram lakshmi
p790
sg4
Vhindustani music
p791
sg6
VDwaram Lakshmi is an Indian singer of classical carnatic and Hindustani music.\u000a
p792
sg8
Vsinger of
p793
sa(dp794
g2
Vnavaneetam
p795
sg4
Vragam
p796
sg6
VNavaneetam is a ragam in Carnatic music.\u000a
p797
sg8
S'is a'
p798
sa(dp799
g2
Vnavaneetam
p800
sg4
Vmusic
p801
sg6
VNavaneetam is a ragam in Carnatic music.\u000a
p802
sg8
Vragam in
p803
sa(dp804
g2
Vshulini
p805
sg4
Vragam
p806
sg6
VShulini is a ragam in Carnatic music.\u000a
p807
sg8
S'is a'
p808
sa(dp809
g2
Vshulini
p810
sg4
Vmusic
p811
sg6
VShulini is a ragam in Carnatic music.\u000a
p812
sg8
Vragam in
p813
sa(dp814
g2
Vshulini
p815
sg4
Vcouple
p816
sg6
VShulini has a couple of minor janya ragams associated with it.\u000a
p817
sg8
Vhave
p818
sa(dp819
g2
Vvakulabharanam
p820
sg4
Vragam
p821
sg6
VVakulabharanam is a ragam in Carnatic music.\u000a
p822
sg8
S'is a'
p823
sa(dp824
g2
Vvakulabharanam
p825
sg4
Vmusic
p826
sg6
VVakulabharanam is a ragam in Carnatic music.\u000a
p827
sg8
Vragam in
p828
sa(dp829
g2
Vvenkatamakhin
p830
sg4
Voriginal list
p831
sg6
VVativasantabhairavi is the 14th Melakarta in the original list compiled by Venkatamakhin.\u000a
p832
sg8
Vcompile
p833
sa(dp834
g2
Vvakulabharanam
p835
sg4
Vminor ragam
p836
sg6
VVakulabharanam has a few minor janya ragams associated with it, of which Vasantabhairavi is heard occasionally in concerts.\u000a
p837
sg8
Vhave
p838
sa(dp839
g2
Vmuthuswami dikshitar
p840
sg4
Vcomposition prasanna_venkateshwaram
p841
sg6
VMuthuswami Dikshitar s composition Prasanna Venkateshwaram is set to Vativasantabhairavi ragam.\u000a
p842
sg8
Vs
p843
sa(dp844
g2
Vvenkatamakhin
p845
sg4
Vfoundational contribution
p846
sg6
VTanappacharya, Govinda Dikshita and Venkatamakhin made foundational contributions from Tanjore about a century later.\u000a
p847
sg8
Vmake
p848
sa(dp849
g2
Vsvaramelakalanidhi
p850
sg4
Vconcept
p851
sg6
VThe Svaramelakalanidhi brings the theory up to date, rationalizes intervals and scales, introduces the concepts of svayambhu-svara,.\u000a
p852
sg8
Vintroduce
p853
sa(dp854
g2
Vsvaramelakalanidhi
p855
sg4
Vinterval
p856
sg6
VThe Svaramelakalanidhi brings the theory up to date, rationalizes intervals and scales, introduces the concepts of svayambhu-svara,.\u000a
p857
sg8
Vrationalize
p858
sa(dp859
g2
Vsvaramelakalanidhi
p860
sg4
Vscale
p861
sg6
VThe Svaramelakalanidhi brings the theory up to date, rationalizes intervals and scales, introduces the concepts of svayambhu-svara,.\u000a
p862
sg8
g858
sa(dp863
g2
Vsvaramelakalanidhi
p864
sg4
Vtheory
p865
sg6
VThe Svaramelakalanidhi brings the theory up to date, rationalizes intervals and scales, introduces the concepts of svayambhu-svara,.\u000a
p866
sg8
Vbring
p867
sa(dp868
g2
Vvagadheeswari
p869
sg4
Vmusic
p870
sg6
VVagadheeswari is a ragam in Carnatic music.\u000a
p871
sg8
Vragam in
p872
sa(dp873
g2
Vvagadheeswari
p874
sg4
Vragam
p875
sg6
VVagadheeswari is a ragam in Carnatic music.\u000a
p876
sg8
S'is a'
p877
sa(dp878
g2
Vnedumangad sivanandan
p879
sg4
Vdakshayani_amma
p880
sg6
VNedumangad Sivanandan was born to the harmonist-vocalist Neyyanttingara Vasudevan Pillai and Dakshayani Amma in Neyyatinkara in Trivandrum district of Kerala.\u000a
p881
sg8
Vbear to
p882
sa(dp883
g2
Vnedumangad sivanandan
p884
sg4
Vharmonist-vocalist neyyanttingara_vasudevan_pillai
p885
sg6
VNedumangad Sivanandan was born to the harmonist-vocalist Neyyanttingara Vasudevan Pillai and Dakshayani Amma in Neyyatinkara in Trivandrum district of Kerala.\u000a
p886
sg8
Vbear to
p887
sa(dp888
g2
Vnedumangad sivanandan
p889
sg4
Vneyyatinkara
p890
sg6
VNedumangad Sivanandan was born to the harmonist-vocalist Neyyanttingara Vasudevan Pillai and Dakshayani Amma in Neyyatinkara in Trivandrum district of Kerala.\u000a
p891
sg8
Vbear in
p892
sa(dp893
g2
Vnedumangad sivanandan
p894
sg4
Vdistrict
p895
sg6
VNedumangad Sivanandan was born to the harmonist-vocalist Neyyanttingara Vasudevan Pillai and Dakshayani Amma in Neyyatinkara in Trivandrum district of Kerala.\u000a
p896
sg8
Vbear in
p897
sa(dp898
g2
Vnedumangad sivanandan
p899
sg4
Vvilasini_s._nair
p900
sg6
VNedumangad Sivanandan is married to Vilasini S. Nair.\u000a
p901
sg8
Vmarry to
p902
sa(dp903
g2
Vswarajati
p904
sg4
Vmusic
p905
sg6
VSwarajati is a form in Carnatic music, which is helpful before learning a varnam.\u000a
p906
sg8
Vform in
p907
sa(dp908
g2
Vswarajati
p909
sg4
Vform
p910
sg6
VSwarajati is a form in Carnatic music, which is helpful before learning a varnam.\u000a
p911
sg8
S'is a'
p912
sa(dp913
g2
Vswarajati
p914
sg4
Vnumerous raaga
p915
sg6
VSwarajatis have been composed in numerous raagas - Bilahari, Hamsadhvani, Kalyani, Janjuti, Kamach, etc.\u000a
p916
sg8
Vcompose in
p917
sa(dp918
g2
Vvarnam
p919
sg4
Vpiece
p920
sg6
VA Varnam is a composed piece of fairly short duration usually set to Aadi or Ata taalam.\u000a
p921
sg8
S'is a'
p922
sa(dp923
g2
Vvarnam
p924
sg4
Vshort duration
p925
sg6
VA Varnam is a composed piece of fairly short duration usually set to Aadi or Ata taalam.\u000a
p926
sg8
Vpiece of
p927
sa(dp928
g2
Vvarnam
p929
sg4
Vaadi
p930
sg6
VA Varnam is a composed piece of fairly short duration usually set to Aadi or Ata taalam.\u000a
p931
sg8
Vset to
p932
sa(dp933
g2
Vcharanam
p934
sg4
Vraga theme
p935
sg6
VThe Charanam is often composed on a raga theme related to the Pallavi and the Anupallavi.\u000a
p936
sg8
Vcompose on
p937
sa(dp938
g2
Vanupallavi
p939
sg4
Vmore charanam
p940
sg6
VKrithis formally have a Pallavi, an Anupallavi and one or more Charanams.\u000a
p941
sg8
S'is a'
p942
sa(dp943
g2
Vanupallavi
p944
sg4
Vcharanam
p945
sg6
VKrithis formally have a Pallavi, an Anupallavi and one or more Charanams.\u000a
p946
sg8
S'is a'
p947
sa(dp948
g2
Vniraval
p949
sg4
Vextempore manner
p950
sg6
VNiraval is similar to sangathi but performed in an extempore manner.\u000a
p951
sg8
Vperform in
p952
sa(dp953
g2
Vpunya srinivas
p954
sg4
Vvainika
p955
sg6
VPunya Srinivas is a professional vainika and vocalist.\u000a
p956
sg8
S'is a'
p957
sa(dp958
g2
Vpunya srinivas
p959
sg4
Vprofessional vocalist
p960
sg6
VPunya Srinivas is a professional vainika and vocalist.\u000a
p961
sg8
S'is a'
p962
sa(dp963
g2
Vpunya srinivas
p964
sg4
Vvocalist
p965
sg6
VPunya Srinivas is a professional vainika and vocalist.\u000a
p966
sg8
S'is a'
p967
sa(dp968
g2
Vpunya srinivas
p969
sg4
Vprofessional vainika
p970
sg6
VPunya Srinivas is a professional vainika and vocalist.\u000a
p971
sg8
S'is a'
p972
sa(dp973
g2
Vpallavi
p974
sg4
Vpiece-de-resistance
p975
sg6
VThe Pallavi is mainly presented as the piece-de-resistance of the concert.\u000a
p976
sg8
Vpresent as
p977
sa(dp978
g2
Vsaketharaman
p979
sg4
Vmusician
p980
sg6
VSaketharaman is a performing musician of Carnatic music in India.\u000a
p981
sg8
S'is a'
p982
sa(dp983
g2
Vsaketharaman
p984
sg4
Vperform musician
p985
sg6
VSaketharaman is a performing musician of Carnatic music in India.\u000a
p986
sg8
S'is a'
p987
sa(dp988
g2
Vsaketharaman
p989
sg4
Vmusic
p990
sg6
VSaketharaman is a performing musician of Carnatic music in India.\u000a
p991
sg8
Vmusician of
p992
sa(dp993
g2
Vsaketharaman
p994
sg4
Vlalgudi famous bani
p995
sg6
VSaketharaman has imbibed the famous Lalgudi Bani rich in Bhavam.\u000a
p996
sg8
Vimbibe
p997
sa(dp998
g2
Virayimman thampi
p999
sg4
Vomanathinkal lullaby famous kidavo
p1000
sg6
VIrayimman Thampi wrote the famous lullaby Omanathinkal Kidavo for Swathi Thirunal.\u000a
p1001
sg8
Vwrite
p1002
sa(dp1003
g2
Virayimman thampi
p1004
sg4
V1856
p1005
sg6
VIrayimman Thampi died in 1856.\u000a
p1006
sg8
Vdie in
p1007
sa(dp1008
g2
Vjyoti swarupini
p1009
sg4
Vragam
p1010
sg6
VJyoti swarupini is a ragam in Carnatic music.\u000a
p1011
sg8
S'is a'
p1012
sa(dp1013
g2
Vjyoti swarupini
p1014
sg4
Vmusic
p1015
sg6
VJyoti swarupini is a ragam in Carnatic music.\u000a
p1016
sg8
Vragam in
p1017
sa(dp1018
g2
Vcarnatic music
p1019
sg4
Vhindustani
p1020
sg6
VThere are two scales, one each in Hindustani music and Carnatic music.\u000a
p1021
sg8
Vmusic 's
p1022
sa(dp1023
g2
g1019
sg4
Vhindustani
p1024
sg6
VThere are two scales, one each in Hindustani music and Carnatic music.\u000a
p1025
sg8
Vmusic 's
p1026
sa(dp1027
g2
Vvarnam
p1028
sg4
Vform
p1029
sg6
VVarnam is a form of song in the Carnatic music repertoire.\u000a
p1030
sg8
S'is a'
p1031
sa(dp1032
g2
Vvarnam
p1033
sg4
Vsong
p1034
sg6
VVarnam is a form of song in the Carnatic music repertoire.\u000a
p1035
sg8
Vform of
p1036
sa(dp1037
g2
Vvarnam
p1038
sg4
Vpiece
p1039
sg6
VA Varnam is a relatively long piece and can range from 30 minutes to up to an hour.\u000a
p1040
sg8
S'is a'
p1041
sa(dp1042
g2
Vvarnam
p1043
sg4
Vlong piece
p1044
sg6
VA Varnam is a relatively long piece and can range from 30 minutes to up to an hour.\u000a
p1045
sg8
S'is a'
p1046
sa(dp1047
g2
Vvarnam
p1048
sg4
V30
p1049
sg6
VA Varnam is a relatively long piece and can range from 30 minutes to up to an hour.\u000a
p1050
sg8
Vrange from
p1051
sa(dp1052
g2
Vvarnam
p1053
sg4
Vtaana
p1054
sg6
VIt has two types : Taana varnam and Pada varnam.\u000a
p1055
sg8
Vvarnam 's
p1056
sa(dp1057
g2
Vvarnam
p1058
sg4
Vtaana
p1059
sg6
VIt has two types : Taana varnam and Pada varnam.\u000a
p1060
sg8
Vvarnam 's
p1061
sa(dp1062
g2
Vpallavi
p1063
sg4
Vdouble speed
p1064
sg6
VSometimes when repeating the Pallavi the Annupallavi and Muktayi Swarams are repeated in double or triple speed.\u000a
p1065
sg8
Vrepeat in
p1066
sa(dp1067
g2
Vmuthu thandavar
p1068
sg4
Vcomposer
p1069
sg6
VMuthu Thandavar was composer of Carnatic music.\u000a
p1070
sg8
S'is a'
p1071
sa(dp1072
g2
Vmuthu thandavar
p1073
sg4
Vmusic
p1074
sg6
VMuthu Thandavar was composer of Carnatic music.\u000a
p1075
sg8
Vcomposer of
p1076
sa(dp1077
g2
Vmuthu thandavar
p1078
sg4
Vtamil_trinity_of_carnatic music
p1079
sg6
VMuthu Thandavar, along with Arunachala Kavi and Marimutthu Pillai are known as the Tamil Trinity of Carnatic music.\u000a
p1080
sg8
Vknow as
p1081
sa(dp1082
g2
Vmuthu thandavar
p1083
sg4
Vmarimutthu_pillai
p1084
sg6
VMuthu Thandavar, along with Arunachala Kavi and Marimutthu Pillai are known as the Tamil Trinity of Carnatic music.\u000a
p1085
sg8
Vknow with
p1086
sa(dp1087
g2
Vmuthu thandavar
p1088
sg4
Varunachala_kavi
p1089
sg6
VMuthu Thandavar, along with Arunachala Kavi and Marimutthu Pillai are known as the Tamil Trinity of Carnatic music.\u000a
p1090
sg8
Vknow with
p1091
sa(dp1092
g2
Vmuthu thandavar
p1093
sg4
Vseveral padam
p1094
sg6
VMuthu Thandavar also composed several padams, short songs mainly sung accompanying Bharatanatyam performances.\u000a
p1095
sg8
Vcompose
p1096
sa(dp1097
g2
Vmuthu thandavar
p1098
sg4
Vshort song
p1099
sg6
VMuthu Thandavar also composed several padams, short songs mainly sung accompanying Bharatanatyam performances.\u000a
p1100
sg8
g1096
sa(dp1101
g2
Virayimman thampi
p1102
sg4
Vhe
p1103
sg6
VHe had a brother Prince Makayiram Thirunal, grandfather of Irayimman Thampi, who pre-deceased him.\u000a
p1104
sg8
Vpre-decease
p1105
sa(dp1106
g2
Vmridangam
p1107
sg4
Voccasion
p1108
sg6
VVeteran mridangam exponent Pudukottai Dakshinamurthy Pillai accompanied them on the mridangam on that occasion.\u000a
p1109
sg8
Vmridangam on
p1110
sa(dp1111
g2
g1107
sg4
Vveteran
p1112
sg6
VVeteran mridangam exponent Pudukottai Dakshinamurthy Pillai accompanied them on the mridangam on that occasion.\u000a
p1113
sg8
Vmridangam 's
p1114
sa(dp1115
g2
Vsunadavinodini
p1116
sg4
Vmusic
p1117
sg6
VSunadavinodini is a ragam in Carnatic music.\u000a
p1118
sg8
Vragam in
p1119
sa(dp1120
g2
Vsunadavinodini
p1121
sg4
Vragam
p1122
sg6
VSunadavinodini is a ragam in Carnatic music.\u000a
p1123
sg8
S'is a'
p1124
sa(dp1125
g2
Vsunadavinodini
p1126
sg4
Vpanchamam
p1127
sg6
VSunadavinodini is a symmetric ragam that does not contain rishabham or panchamam.\u000a
p1128
sg8
Vnot contain
p1129
sa(dp1130
g2
Vsunadavinodini
p1131
sg4
Vrishabham
p1132
sg6
VSunadavinodini is a symmetric ragam that does not contain rishabham or panchamam.\u000a
p1133
sg8
g1129
sa(dp1134
g2
Vsunadavinodini
p1135
sg4
Vragam
p1136
sg6
VSunadavinodini is a symmetric ragam that does not contain rishabham or panchamam.\u000a
p1137
sg8
S'is a'
p1138
sa(dp1139
g2
Vsunadavinodini
p1140
sg4
Vsymmetric ragam
p1141
sg6
VSunadavinodini is a symmetric ragam that does not contain rishabham or panchamam.\u000a
p1142
sg8
S'is a'
p1143
sa(dp1144
g2
Vmanodharma
p1145
sg4
Vmusical value
p1146
sg6
VManodharma has many aspects and performers develop distinct styles based on his/her musical values, interpretation and understanding.\u000a
p1147
sg8
Vhave
p1148
sa(dp1149
g2
Vmanodharma
p1150
sg4
Vsuch role
p1151
sg6
VManodharma plays such a significant role that a capable artiste may never render a raga the same way twice.\u000a
p1152
sg8
Vplay
p1153
sa(dp1154
g2
Vkamavardani
p1155
sg4
Vmusic
p1156
sg6
VKamavardani is a ragam in Carnatic music.\u000a
p1157
sg8
Vragam in
p1158
sa(dp1159
g2
Vkamavardani
p1160
sg4
Vragam
p1161
sg6
VKamavardani is a ragam in Carnatic music.\u000a
p1162
sg8
S'is a'
p1163
sa(dp1164
g2
Vkamavardani
p1165
sg4
Vmayamalavagowla
p1166
sg6
VKamavardani is the prati madhyamam equivalent of Mayamalavagowla.\u000a
p1167
sg8
Vequivalent of
p1168
sa(dp1169
g2
Vkamavardani
p1170
sg4
Vequivalent
p1171
sg6
VKamavardani is the prati madhyamam equivalent of Mayamalavagowla.\u000a
p1172
sg8
S'is a'
p1173
sa(dp1174
g2
Vkamavardani
p1175
sg4
Vpratus equivalent
p1176
sg6
VKamavardani is the prati madhyamam equivalent of Mayamalavagowla.\u000a
p1177
sg8
S'is a'
p1178
sa(dp1179
g2
Vkamavardani
p1180
sg4
Vmadhyamam equivalent
p1181
sg6
VKamavardani is the prati madhyamam equivalent of Mayamalavagowla.\u000a
p1182
sg8
S'is a'
p1183
sa(dp1184
g2
Vmanikkavacakar
p1185
sg4
Vtamil
p1186
sg6
VManikkavacakar was a Tamil poet who wrote Tiruvasakam, a book of Shaiva hymns.\u000a
p1187
sg8
Vpoet 's
p1188
sa(dp1189
g2
Vmanikkavacakar
p1190
sg4
Vpoet
p1191
sg6
VManikkavacakar was a Tamil poet who wrote Tiruvasakam, a book of Shaiva hymns.\u000a
p1192
sg8
S'is a'
p1193
sa(dp1194
g2
Vmanikkavacakar
p1195
sg4
Vtiruvasakam
p1196
sg6
VManikkavacakar was a Tamil poet who wrote Tiruvasakam, a book of Shaiva hymns.\u000a
p1197
sg8
Vwrite
p1198
sa(dp1199
g2
Vgayakapriya
p1200
sg4
Vmusic
p1201
sg6
VGayakapriya is a ragam in Carnatic music.\u000a
p1202
sg8
Vragam in
p1203
sa(dp1204
g2
Vgayakapriya
p1205
sg4
Vragam
p1206
sg6
VGayakapriya is a ragam in Carnatic music.\u000a
p1207
sg8
S'is a'
p1208
sa(dp1209
g2
Vvenkatamakhin
p1210
sg4
Voriginal list
p1211
sg6
VGeyahejjujji is the 13th Melakarta in the original list compiled by Venkatamakhin.\u000a
p1212
sg8
Vcompile
p1213
sa(dp1214
g2
Vgayakapriya
p1215
sg4
Vminor ragam
p1216
sg6
VGayakapriya has a few minor janya ragams associated with it, of which Kalagada is heard occasionally in concerts.\u000a
p1217
sg8
Vhave
p1218
sa(dp1219
g2
Vmuthuswami dikshitar
p1220
sg4
Vbhakthum
p1221
sg6
VMuthuswami Dikshitar s composition Ramachandra bhakthum is set to Geyahejjujji ragam.\u000a
p1222
sg8
g843
sa(dp1223
g2
Vtyagaraja
p1224
sg4
Vhe
p1225
sg6
VHe was also influenced by Tyagaraja and Gopalakrishna Bharathi.\u000a
p1226
sg8
Vinfluence
p1227
sa(dp1228
g2
Varuna sairam
p1229
sg4
Veminent carnatic
p1230
sg6
VAruna Sairam is an eminent Carnatic music vocalist.\u000a
p1231
sg8
Vvocalist 's
p1232
sa(dp1233
g2
Varuna sairam
p1234
sg4
Vmusic vocalist
p1235
sg6
VAruna Sairam is an eminent Carnatic music vocalist.\u000a
p1236
sg8
S'is a'
p1237
sa(dp1238
g2
Varuna sairam
p1239
sg4
Vvocalist
p1240
sg6
VAruna Sairam is an eminent Carnatic music vocalist.\u000a
p1241
sg8
S'is a'
p1242
sa(dp1243
g2
Vveena kuppayyar
p1244
sg4
Vexponent
p1245
sg6
VVeena Kuppayyar was an exponent of Veena and a composer of Carnatic music.\u000a
p1246
sg8
S'is a'
p1247
sa(dp1248
g2
Vveena kuppayyar
p1249
sg4
Vveena
p1250
sg6
VVeena Kuppayyar was an exponent of Veena and a composer of Carnatic music.\u000a
p1251
sg8
Vexponent of
p1252
sa(dp1253
g2
Vragavardhini
p1254
sg4
Vtwo
p1255
sg6
VRagavardhini has two separate meanings in Indian classical music :.\u000a
p1256
sg8
Vhave
p1257
sa(dp1258
g2
Vhatakambari
p1259
sg4
Vmusic
p1260
sg6
VHatakambari is a ragam in Carnatic music.\u000a
p1261
sg8
Vragam in
p1262
sa(dp1263
g2
Vhatakambari
p1264
sg4
Vragam
p1265
sg6
VHatakambari is a ragam in Carnatic music.\u000a
p1266
sg8
S'is a'
p1267
sa(dp1268
g2
Vvenkatamakhin
p1269
sg4
Voriginal list
p1270
sg6
VJayashuddhamalavi is the 18th Melakarta in the original list compiled by Venkatamakhin.\u000a
p1271
sg8
Vcompile
p1272
sa(dp1273
g2
Vhatakambari
p1274
sg4
Vminor ragam
p1275
sg6
VHatakambari has a few minor janya ragams associated with it.\u000a
p1276
sg8
Vhave
p1277
sa(dp1278
g2
Vkanakangi
p1279
sg4
Vmusic
p1280
sg6
VKanakangi is a ragam in Carnatic music.\u000a
p1281
sg8
Vragam in
p1282
sa(dp1283
g2
Vkanakangi
p1284
sg4
Vragam
p1285
sg6
VKanakangi is a ragam in Carnatic music.\u000a
p1286
sg8
S'is a'
p1287
sa(dp1288
g2
Vvenkatamakhin
p1289
sg4
Voriginal list
p1290
sg6
VKanakambari is the 1st Melakarta in the original list compiled by Venkatamakhin.\u000a
p1291
sg8
Vcompile
p1292
sa(dp1293
g2
Vgayathri girish
p1294
sg4
Vvocalist
p1295
sg6
VGayathri Girish is amongst the leading Carnatic vocalists of today.\u000a
p1296
sg8
Vbe amongst
p1297
sa(dp1298
g2
Vhanumatodi
p1299
sg4
Vmusic
p1300
sg6
VHanumatodi, more popularly known as Todi, is a ragam in Carnatic music.\u000a
p1301
sg8
Vragam in
p1302
sa(dp1303
g2
Vhanumatodi
p1304
sg4
Vtodi
p1305
sg6
VHanumatodi, more popularly known as Todi, is a ragam in Carnatic music.\u000a
p1306
sg8
Vknow as
p1307
sa(dp1308
g2
Vhanumatodi
p1309
sg4
Vragam
p1310
sg6
VHanumatodi, more popularly known as Todi, is a ragam in Carnatic music.\u000a
p1311
sg8
S'is a'
p1312
sa(dp1313
g2
Vshubhapantuvarali
p1314
sg4
Vequivalent
p1315
sg6
VThe equivalent of the Hindustani raga Todi in Carnatic music is Shubhapantuvarali.\u000a
p1316
sg8
S'is a'
p1317
sa(dp1318
g2
Vshubhapantuvarali
p1319
sg4
Vraga todi
p1320
sg6
VThe equivalent of the Hindustani raga Todi in Carnatic music is Shubhapantuvarali.\u000a
p1321
sg8
Vequivalent of
p1322
sa(dp1323
g2
Vmysore vasudevachar
p1324
sg4
Vrukmini_devi
p1325
sg6
VMysore Vasudevachar also taught in Rukmini Devi s Kalakshetra,.\u000a
p1326
sg8
Vteach in
p1327
sa(dp1328
g2
Vdharmavati
p1329
sg4
Vragam
p1330
sg6
VDharmavati is a ragam in Carnatic music.\u000a
p1331
sg8
S'is a'
p1332
sa(dp1333
g2
Vdharmavati
p1334
sg4
Vmusic
p1335
sg6
VDharmavati is a ragam in Carnatic music.\u000a
p1336
sg8
Vragam in
p1337
sa(dp1338
g2
Vmadhuvanti
p1339
sg4
Vnearest scale
p1340
sg6
VMadhuvanti is the nearest Hindustani music scale to Dharmavati.\u000a
p1341
sg8
S'is a'
p1342
sa(dp1343
g2
Vmadhuvanti
p1344
sg4
Vscale
p1345
sg6
VMadhuvanti is the nearest Hindustani music scale to Dharmavati.\u000a
p1346
sg8
S'is a'
p1347
sa(dp1348
g2
Vmadhuvanti
p1349
sg4
Vmusic scale
p1350
sg6
VMadhuvanti is the nearest Hindustani music scale to Dharmavati.\u000a
p1351
sg8
S'is a'
p1352
sa(dp1353
g2
Vmadhuvanti
p1354
sg4
Vhindustani scale
p1355
sg6
VMadhuvanti is the nearest Hindustani music scale to Dharmavati.\u000a
p1356
sg8
S'is a'
p1357
sa(dp1358
g2
Vmadhuvanti
p1359
sg4
Vdharmavati
p1360
sg6
VMadhuvanti is the nearest Hindustani music scale to Dharmavati.\u000a
p1361
sg8
Vscale to
p1362
sa(dp1363
g2
Vkshetrayya
p1364
sg4
Vmusic
p1365
sg6
VKshetrayya was a prolific Telugu poet and composer of Carnatic music.\u000a
p1366
sg8
Vcomposer of
p1367
sa(dp1368
g2
Vkshetrayya
p1369
sg4
Vprolific telugu
p1370
sg6
VKshetrayya was a prolific Telugu poet and composer of Carnatic music.\u000a
p1371
sg8
Vcomposer 's
p1372
sa(dp1373
g2
Vkshetrayya
p1374
sg4
Vpoet
p1375
sg6
VKshetrayya was a prolific Telugu poet and composer of Carnatic music.\u000a
p1376
sg8
S'is a'
p1377
sa(dp1378
g2
Vkshetrayya
p1379
sg4
Vcomposer
p1380
sg6
VKshetrayya was a prolific Telugu poet and composer of Carnatic music.\u000a
p1381
sg8
S'is a'
p1382
sa(dp1383
g2
Vkharaharapriya
p1384
sg4
Vkharaharapriya
p1385
sg6
VShree is a janya ragam of Kharaharapriya, the 22nd Melakarta ragam.\u000a
p1386
sg8
Vragam of
p1387
sa(dp1388
g2
Vkharaharapriya
p1389
sg4
Vnd melakarta
p1390
sg6
VShree is a janya ragam of Kharaharapriya, the 22nd Melakarta ragam.\u000a
p1391
sg8
Vragam 's
p1392
sa(dp1393
g2
Vkharaharapriya
p1394
sg4
Vragam
p1395
sg6
VShree is a janya ragam of Kharaharapriya, the 22nd Melakarta ragam.\u000a
p1396
sg8
S'is a'
p1397
sa(dp1398
g2
Vdhavalambari
p1399
sg4
Vragam
p1400
sg6
VDhavalambari is a ragam in Carnatic music.\u000a
p1401
sg8
S'is a'
p1402
sa(dp1403
g2
Vdhavalambari
p1404
sg4
Vmusic
p1405
sg6
VDhavalambari is a ragam in Carnatic music.\u000a
p1406
sg8
Vragam in
p1407
sa(dp1408
g2
Vdhavalambari
p1409
sg4
Vminor ragam
p1410
sg6
VDhavalambari has a few minor janya ragams associated with it.\u000a
p1411
sg8
Vhave
p1412
sa(dp1413
g2
Vcarnatic music
p1414
sg4
Vduo
p1415
sg6
VThe Bombay sisters, C. Saroja and C. Lalitha, are a Carnatic music singing duo.\u000a
p1416
sg8
Vsing
p1417
sa(dp1418
g2
Vpakad
p1419
sg4
Vyaman
p1420
sg6
VFor example, here is a pakad for raga Yaman, a prominent raga from Hindustani Music :.\u000a
p1421
sg8
Vpakad for
p1422
sa(dp1423
g2
g1419
sg4
Vexample
p1424
sg6
VFor example, here is a pakad for raga Yaman, a prominent raga from Hindustani Music :.\u000a
p1425
sg8
Vbe for
p1426
sa(dp1427
g2
Vpalghat parameswara bhagavathar
p1428
sg4
Vmusic composer
p1429
sg6
VPalghat Parameswara Bhagavathar was a Carnatic music composer and musician born in Nurani, Kerala, India.\u000a
p1430
sg8
S'is a'
p1431
sa(dp1432
g2
Vpalghat parameswara bhagavathar
p1433
sg4
Vmusician
p1434
sg6
VPalghat Parameswara Bhagavathar was a Carnatic music composer and musician born in Nurani, Kerala, India.\u000a
p1435
sg8
S'is a'
p1436
sa(dp1437
g2
Vpalghat parameswara bhagavathar
p1438
sg4
Vcarnatic musician
p1439
sg6
VPalghat Parameswara Bhagavathar was a Carnatic music composer and musician born in Nurani, Kerala, India.\u000a
p1440
sg8
S'is a'
p1441
sa(dp1442
g2
Vpalghat parameswara bhagavathar
p1443
sg4
Vcarnatic composer
p1444
sg6
VPalghat Parameswara Bhagavathar was a Carnatic music composer and musician born in Nurani, Kerala, India.\u000a
p1445
sg8
S'is a'
p1446
sa(dp1447
g2
Vpalghat parameswara bhagavathar
p1448
sg4
Vcomposer
p1449
sg6
VPalghat Parameswara Bhagavathar was a Carnatic music composer and musician born in Nurani, Kerala, India.\u000a
p1450
sg8
S'is a'
p1451
sa(dp1452
g2
Vpalghat parameswara bhagavathar
p1453
sg4
Vmusic musician
p1454
sg6
VPalghat Parameswara Bhagavathar was a Carnatic music composer and musician born in Nurani, Kerala, India.\u000a
p1455
sg8
S'is a'
p1456
sa(dp1457
g2
Vtanam
p1458
sg4
Vimportant form
p1459
sg6
VTanam is one of the most important forms of improvisation, and is integral to ragam, tanam and pallavi.\u000a
p1460
sg8
Vof
p1461
sa(dp1462
g2
Vtanam
p1463
sg4
Vragam
p1464
sg6
VTanam is one of the most important forms of improvisation, and is integral to ragam, tanam and pallavi.\u000a
p1465
sg8
Vintegral to
p1466
sa(dp1467
g2
Vtanam
p1468
sg4
Vversion
p1469
sg6
VTanam is a rhythmic version of the raga alapana.\u000a
p1470
sg8
S'is a'
p1471
sa(dp1472
g2
Vtanam
p1473
sg4
Vrhythmic version
p1474
sg6
VTanam is a rhythmic version of the raga alapana.\u000a
p1475
sg8
S'is a'
p1476
sa(dp1477
g2
Vtanam
p1478
sg4
Vraga alapana
p1479
sg6
VTanam is a rhythmic version of the raga alapana.\u000a
p1480
sg8
Vversion of
p1481
sa(dp1482
g2
Vpallavi
p1483
sg4
Vequivalent
p1484
sg6
VPallavi is the equivalent of a refrain in Western music.\u000a
p1485
sg8
S'is a'
p1486
sa(dp1487
g2
Vpallavi
p1488
sg4
Vrefrain
p1489
sg6
VPallavi is the equivalent of a refrain in Western music.\u000a
p1490
sg8
Vequivalent of
p1491
sa(dp1492
g2
Vpallavi
p1493
sg4
Vcomposition
p1494
sg6
VThe Pallavi is usually a one-line composition set to a single cycle of tala.\u000a
p1495
sg8
S'is a'
p1496
sa(dp1497
g2
Vpallavi
p1498
sg4
Vone-line composition
p1499
sg6
VThe Pallavi is usually a one-line composition set to a single cycle of tala.\u000a
p1500
sg8
S'is a'
p1501
sa(dp1502
g2
Vpallavi
p1503
sg4
Vsingle cycle
p1504
sg6
VThe Pallavi is usually a one-line composition set to a single cycle of tala.\u000a
p1505
sg8
Vset to
p1506
sa(dp1507
g2
Vpallavi
p1508
sg4
V2
p1509
sg6
VPallavi has 2 portions to it.\u000a
p1510
sg8
Vhave
p1511
sa(dp1512
g2
Vpallavi
p1513
sg4
Vmost case
p1514
sg6
VIn most cases the Pallavi is set to Chatushtra Nadai meaning each beat carries 4 units.\u000a
p1515
sg8
Vset to
p1516
sa(dp1517
g2
Vpallavi
p1518
sg4
Vone
p1519
sg6
VPallavi can be sung in 2 different aspects, one called as Pratiloma and then the Anulomam.\u000a
p1520
sg8
Vsing in
p1521
sa(dp1522
g2
Vpallavi
p1523
sg4
g1509
sg6
VPallavi can be sung in 2 different aspects, one called as Pratiloma and then the Anulomam.\u000a
p1524
sg8
Vsing in
p1525
sa(dp1526
g2
Vpallavi
p1527
sg4
Vmusician ability
p1528
sg6
VThe Pallavi challenges the musicians ability to improvise with complex and intricate patterns.\u000a
p1529
sg8
Vchallenge
p1530
sa(dp1531
g2
Vmannargudi easwaran
p1532
sg4
Vlead player
p1533
sg6
VMannargudi Easwaran is a leading contemporary mridangam player and Carnatic musician.\u000a
p1534
sg8
S'is a'
p1535
sa(dp1536
g2
Vmannargudi easwaran
p1537
sg4
Vmusician
p1538
sg6
VMannargudi Easwaran is a leading contemporary mridangam player and Carnatic musician.\u000a
p1539
sg8
S'is a'
p1540
sa(dp1541
g2
Vmannargudi easwaran
p1542
sg4
Vmridangam player
p1543
sg6
VMannargudi Easwaran is a leading contemporary mridangam player and Carnatic musician.\u000a
p1544
sg8
S'is a'
p1545
sa(dp1546
g2
Vmannargudi easwaran
p1547
sg4
Vplayer
p1548
sg6
VMannargudi Easwaran is a leading contemporary mridangam player and Carnatic musician.\u000a
p1549
sg8
S'is a'
p1550
sa(dp1551
g2
Vmannargudi easwaran
p1552
sg4
Vcontemporary musician
p1553
sg6
VMannargudi Easwaran is a leading contemporary mridangam player and Carnatic musician.\u000a
p1554
sg8
S'is a'
p1555
sa(dp1556
g2
Vmannargudi easwaran
p1557
sg4
Vlead musician
p1558
sg6
VMannargudi Easwaran is a leading contemporary mridangam player and Carnatic musician.\u000a
p1559
sg8
S'is a'
p1560
sa(dp1561
g2
Vmannargudi easwaran
p1562
sg4
Vmridangam musician
p1563
sg6
VMannargudi Easwaran is a leading contemporary mridangam player and Carnatic musician.\u000a
p1564
sg8
S'is a'
p1565
sa(dp1566
g2
Vmannargudi easwaran
p1567
sg4
Vcarnatic musician
p1568
sg6
VMannargudi Easwaran is a leading contemporary mridangam player and Carnatic musician.\u000a
p1569
sg8
S'is a'
p1570
sa(dp1571
g2
Vmannargudi easwaran
p1572
sg4
Vcontemporary player
p1573
sg6
VMannargudi Easwaran is a leading contemporary mridangam player and Carnatic musician.\u000a
p1574
sg8
S'is a'
p1575
sa(dp1576
g2
Vrangapura vihara
p1577
sg4
Vfamous carnatic
p1578
sg6
VRangapura Vihara is a famous Carnatic song composed by Muthuswami Dikshitar and dedicated to Sri Ranganathaswamy of Srirangam.\u000a
p1579
sg8
Vsong 's
p1580
sa(dp1581
g2
Vrangapura vihara
p1582
sg4
Vsong
p1583
sg6
VRangapura Vihara is a famous Carnatic song composed by Muthuswami Dikshitar and dedicated to Sri Ranganathaswamy of Srirangam.\u000a
p1584
sg8
S'is a'
p1585
sa(dp1586
g2
Vvarunapriya
p1587
sg4
Vragam
p1588
sg6
VVarunapriya is a ragam in Carnatic music.\u000a
p1589
sg8
S'is a'
p1590
sa(dp1591
g2
Vvarunapriya
p1592
sg4
Vmusic
p1593
sg6
VVarunapriya is a ragam in Carnatic music.\u000a
p1594
sg8
Vragam in
p1595
sa(dp1596
g2
Vvarunapriya
p1597
sg4
Vragam
p1598
sg6
VVarunapriya does not have janya ragams associated with it.\u000a
p1599
sg8
Vnot janya
p1600
sa(dp1601
g2
Vshree ranjani
p1602
sg4
Vragam
p1603
sg6
VShree ranjani is a ragam in Carnatic music.\u000a
p1604
sg8
S'is a'
p1605
sa(dp1606
g2
Vshree ranjani
p1607
sg4
Vmusic
p1608
sg6
VShree ranjani is a ragam in Carnatic music.\u000a
p1609
sg8
Vragam in
p1610
sa(dp1611
g2
Vshree ranjani
p1612
sg4
Vpanchamam
p1613
sg6
VShree ranjani is a symmetric scale that does not contain panchamam.\u000a
p1614
sg8
Vnot contain
p1615
sa(dp1616
g2
Vshree ranjani
p1617
sg4
Vsymmetric scale
p1618
sg6
VShree ranjani is a symmetric scale that does not contain panchamam.\u000a
p1619
sg8
S'is a'
p1620
sa(dp1621
g2
Vshree ranjani
p1622
sg4
Vscale
p1623
sg6
VShree ranjani is a symmetric scale that does not contain panchamam.\u000a
p1624
sg8
S'is a'
p1625
sa(dp1626
g2
Vshree ranjani
p1627
sg4
Vkharaharapriya
p1628
sg6
VShree ranjani is a janya ragam of Kharaharapriya, the 22nd Melakarta ragam.\u000a
p1629
sg8
Vragam of
p1630
sa(dp1631
g2
Vshree ranjani
p1632
sg4
Vnd melakarta
p1633
sg6
VShree ranjani is a janya ragam of Kharaharapriya, the 22nd Melakarta ragam.\u000a
p1634
sg8
Vragam 's
p1635
sa(dp1636
g2
Vkharaharapriya
p1637
sg4
Vkharaharapriya
p1638
sg6
VShree ranjani is a janya ragam of Kharaharapriya, the 22nd Melakarta ragam.\u000a
p1639
sg8
Vragam of
p1640
sa(dp1641
g2
Vkharaharapriya
p1642
sg4
Vnd melakarta
p1643
sg6
VShree ranjani is a janya ragam of Kharaharapriya, the 22nd Melakarta ragam.\u000a
p1644
sg8
Vragam 's
p1645
sa(dp1646
g2
Vkharaharapriya
p1647
sg4
Vragam
p1648
sg6
VShree ranjani is a janya ragam of Kharaharapriya, the 22nd Melakarta ragam.\u000a
p1649
sg8
S'is a'
p1650
sa(dp1651
g2
Vshree ranjani
p1652
sg4
Vjanya ragam
p1653
sg6
VShree ranjani is a janya ragam of Kharaharapriya, the 22nd Melakarta ragam.\u000a
p1654
sg8
S'is a'
p1655
sa(dp1656
g2
Vshree ranjani
p1657
sg4
Vragam
p1658
sg6
VShree ranjani is a janya ragam of Kharaharapriya, the 22nd Melakarta ragam.\u000a
p1659
sg8
S'is a'
p1660
sa(dp1661
g2
Vshree ranjani
p1662
sg4
Vpopular ragam
p1663
sg6
VShree ranjani is a pleasing and popular ragam.\u000a
p1664
sg8
S'is a'
p1665
sa(dp1666
g2
Vshree ranjani
p1667
sg4
Vpleasing ragam
p1668
sg6
VShree ranjani is a pleasing and popular ragam.\u000a
p1669
sg8
S'is a'
p1670
sa(dp1671
g2
Vshree ranjani
p1672
sg4
Vragam
p1673
sg6
VShree ranjani is a pleasing and popular ragam.\u000a
p1674
sg8
S'is a'
p1675
sa(dp1676
g2
Vtanam
p1677
sg4
Vpart
p1678
sg6
VIn Violin and Veena solo concerts, however, tanam is almost always performed as part of the main piece.\u000a
p1679
sg8
Vperform as
p1680
sa(dp1681
g2
g1677
sg4
Vsolo concert
p1682
sg6
VIn Violin and Veena solo concerts, however, tanam is almost always performed as part of the main piece.\u000a
p1683
sg8
Vperform in
p1684
sa(dp1685
g2
Vvenkatamakhin
p1686
sg4
Voriginal list
p1687
sg6
VJhankarabhramari is the 19th Melakarta in the original list compiled by Venkatamakhin.\u000a
p1688
sg8
Vcompile
p1689
sa(dp1690
g2
Vjhankaradhvani
p1691
sg4
Vminor ragam
p1692
sg6
VJhankaradhvani has a few minor janya ragams associated with it.\u000a
p1693
sg8
Vhave
p1694
sa(dp1695
g2
Vdharmapuri subbarayar
p1696
sg4
Vcomposer
p1697
sg6
VDharmapuri Subbarayar was a composer of Carnatic music who lived during the nineteenth century.\u000a
p1698
sg8
S'is a'
p1699
sa(dp1700
g2
Vdharmapuri subbarayar
p1701
sg4
Vmusic
p1702
sg6
VDharmapuri Subbarayar was a composer of Carnatic music who lived during the nineteenth century.\u000a
p1703
sg8
Vcomposer of
p1704
sa(dp1705
g2
Vmuthuswami dikshitar
p1706
sg4
V21_october_1835
p1707
sg6
VMuthuswami Dikshitar died on 21 October 1835.\u000a
p1708
sg8
Vdie on
p1709
sa(dp1710
g2
Vmuthuswami dikshitar
p1711
sg4
Vmany kritis
p1712
sg6
VMuthuswami Dikshitar composed many kritis in groups.\u000a
p1713
sg8
Vcompose
p1714
sa(dp1715
g2
Vshubhapantuvarali
p1716
sg4
Vragam
p1717
sg6
VShubhapantuvarali is a ragam in Carnatic music.\u000a
p1718
sg8
S'is a'
p1719
sa(dp1720
g2
Vshubhapantuvarali
p1721
sg4
Vmusic
p1722
sg6
VShubhapantuvarali is a ragam in Carnatic music.\u000a
p1723
sg8
Vragam in
p1724
sa(dp1725
g2
Vshubhapantuvarali
p1726
sg4
Vminor ragam
p1727
sg6
VShubhapantuvarali has a few minor janya ragams associated with it.\u000a
p1728
sg8
Vhave
p1729
sa(dp1730
g2
Vtevaram
p1731
sg4
Vfirst volume
p1732
sg6
VThe Tevaram denotes the first seven volumes of the Tirumurai, the twelve-volume collection of Tamil Saiva devotional poetry.\u000a
p1733
sg8
Vdenote
p1734
sa(dp1735
g2
Vtevaram
p1736
sg4
Vsole reason
p1737
sg6
VTevaram was one of the sole reasons for converting Vedic ritual to Agamic puja followed in Shiva temples.\u000a
p1738
sg8
Vof
p1739
sa(dp1740
g2
Vdhatuvardani
p1741
sg4
Vragam
p1742
sg6
VDhatuvardani is a ragam in Carnatic music.\u000a
p1743
sg8
S'is a'
p1744
sa(dp1745
g2
Vdhatuvardani
p1746
sg4
Vmusic
p1747
sg6
VDhatuvardani is a ragam in Carnatic music.\u000a
p1748
sg8
Vragam in
p1749
sa(dp1750
g2
Vdhatuvardani
p1751
sg4
Vragam
p1752
sg6
VDhatuvardani is the 69th Melakarta ragam in the 72 melakarta ragam system of Carnatic music.\u000a
p1753
sg8
S'is a'
p1754
sa(dp1755
g2
Vdhatuvardani
p1756
sg4
Vth melakarta
p1757
sg6
VDhatuvardani is the 69th Melakarta ragam in the 72 melakarta ragam system of Carnatic music.\u000a
p1758
sg8
Vragam 's
p1759
sa(dp1760
g2
Vdhatuvardani
p1761
sg4
Vmelakarta system
p1762
sg6
VDhatuvardani is the 69th Melakarta ragam in the 72 melakarta ragam system of Carnatic music.\u000a
p1763
sg8
Vragam in
p1764
sa(dp1765
g2
Vdhatuvardani
p1766
sg4
Vmelakarta ragam
p1767
sg6
VAs Dhatuvardani is a melakarta ragam, by definition it is a sampurna ragam.\u000a
p1768
sg8
S'is a'
p1769
sa(dp1770
g2
Vdhatuvardani
p1771
sg4
Vragam
p1772
sg6
VAs Dhatuvardani is a melakarta ragam, by definition it is a sampurna ragam.\u000a
p1773
sg8
S'is a'
p1774
sa(dp1775
g2
Vvenkatamakhin
p1776
sg4
Voriginal list
p1777
sg6
VToyavegavahini is the 16th Melakarta in the original list compiled by Venkatamakhin.\u000a
p1778
sg8
Vcompile
p1779
sa(dp1780
g2
Vchakra tanam
p1781
sg4
Vstyle
p1782
sg6
VChakra Tanam is one of the styles of tanam singing in Carnatic Classical Music tradition.\u000a
p1783
sg8
Vof
p1784
sa(dp1785
g2
Vkalpanaswaram
p1786
sg4
Vswarakalpana
p1787
sg6
VKalpanaswaram, also known as swarakalpana, consists of improvising melodic and rhythmic passages using swaras.\u000a
p1788
sg8
Vknow as
p1789
sa(dp1790
g2
Vkalpanaswaram
p1791
sg4
Velementary type
p1792
sg6
VKalpanaswaram is the most elementary type of improvisation, usually taught before any other form of improvisation.\u000a
p1793
sg8
S'is a'
p1794
sa(dp1795
g2
Vkalpanaswaram
p1796
sg4
Vtype
p1797
sg6
VKalpanaswaram is the most elementary type of improvisation, usually taught before any other form of improvisation.\u000a
p1798
sg8
S'is a'
p1799
sa(dp1800
g2
Vkalpanaswaram
p1801
sg4
Vimprovisation
p1802
sg6
VKalpanaswaram is the most elementary type of improvisation, usually taught before any other form of improvisation.\u000a
p1803
sg8
Vtype of
p1804
sa(dp1805
g2
Vkalpanaswaram
p1806
sg4
Vother form
p1807
sg6
VKalpanaswaram is the most elementary type of improvisation, usually taught before any other form of improvisation.\u000a
p1808
sg8
Vteach before
p1809
sa(dp1810
g2
Vtanam
p1811
sg4
Vimportant form
p1812
sg6
VTanam is one of the most important forms of improvisation, and is integral to Ragam Tanam Pallavi.\u000a
p1813
sg8
Vof
p1814
sa(dp1815
g2
Vtanam
p1816
sg4
Vtanam pallavi
p1817
sg6
VTanam is one of the most important forms of improvisation, and is integral to Ragam Tanam Pallavi.\u000a
p1818
sg8
Vragam
p1819
sa(dp1820
g2
Vkalpanaswaram
p1821
sg4
Vniraval
p1822
sg6
VThe niraval is followed by kalpanaswarams.\u000a
p1823
sg8
Vfollow
p1824
sa(dp1825
g2
Vkalpanaswaram
p1826
sg4
Vraga
p1827
sg6
VAfter singing the opening kriti, usually, the performer sings the kalpanaswaram of the raga to the beat.\u000a
p1828
sg8
Vkalpanaswaram of
p1829
sa(dp1830
g2
Vandolika
p1831
sg4
Vraga
p1832
sg6
VAndolika is a Carnatic raga, which is also sometimes written as Andholika.\u000a
p1833
sg8
S'is a'
p1834
sa(dp1835
g2
Vandolika
p1836
sg4
Vcarnatic raga
p1837
sg6
VAndolika is a Carnatic raga, which is also sometimes written as Andholika.\u000a
p1838
sg8
S'is a'
p1839
sa(dp1840
g2
Vneyveli santhanagopalan
p1841
sg4
Vvocalist
p1842
sg6
VNeyveli Santhanagopalan is an Indian Carnatic vocalist.\u000a
p1843
sg8
S'is a'
p1844
sa(dp1845
g2
Vneyveli santhanagopalan
p1846
sg4
Vindian carnatic
p1847
sg6
VNeyveli Santhanagopalan is an Indian Carnatic vocalist.\u000a
p1848
sg8
Vvocalist 's
p1849
sa(dp1850
g2
Vvishwambari
p1851
sg4
Vragam
p1852
sg6
VVishwambari is a ragam in Carnatic music.\u000a
p1853
sg8
S'is a'
p1854
sa(dp1855
g2
Vvishwambari
p1856
sg4
Vmusic
p1857
sg6
VVishwambari is a ragam in Carnatic music.\u000a
p1858
sg8
Vragam in
p1859
sa(dp1860
g2
Vvishwambari
p1861
sg4
Vmelakarta
p1862
sg6
VAs Vishwambari is a melakarta, by definition it is a sampoorna ragam.\u000a
p1863
sg8
S'is a'
p1864
sa(dp1865
g2
Vvishwambari
p1866
sg4
Vminor ragam
p1867
sg6
VVishwambari has a few minor janya ragams associated with it.\u000a
p1868
sg8
Vhave
p1869
sa(dp1870
g2
Vbhavadhaarini
p1871
sg4
Vanantaraman
p1872
sg6
VBhavadhaarini was born to Nalini Anantaraman and S.Anantaraman.\u000a
p1873
sg8
Vbear to
p1874
sa(dp1875
g2
Vbhavadhaarini
p1876
sg4
Vnalini_anantaraman
p1877
sg6
VBhavadhaarini was born to Nalini Anantaraman and S.Anantaraman.\u000a
p1878
sg8
Vbear to
p1879
sa(dp1880
g2
Vmaddale
p1881
sg4
Vindia
p1882
sg6
VThe Maddale is a percussion instrument from Karnataka, India.\u000a
p1883
sg8
Vinstrument from
p1884
sa(dp1885
g2
Vmaddale
p1886
sg4
Vkarnataka
p1887
sg6
VThe Maddale is a percussion instrument from Karnataka, India.\u000a
p1888
sg8
Vinstrument from
p1889
sa(dp1890
g2
Vmaddale
p1891
sg4
Vinstrument
p1892
sg6
VThe Maddale is a percussion instrument from Karnataka, India.\u000a
p1893
sg8
S'is a'
p1894
sa(dp1895
g2
Vmaddale
p1896
sg4
Vpercussion instrument
p1897
sg6
VThe Maddale is a percussion instrument from Karnataka, India.\u000a
p1898
sg8
S'is a'
p1899
sa(dp1900
g2
Vmaddale
p1901
sg4
Vtabla
p1902
sg6
VUnlike Mrudangam or Tabla, Maddale produces tonic when played either on rim or on ink.\u000a
p1903
sg8
Vproduce unlike
p1904
sa(dp1905
g2
Vmaddale
p1906
sg4
Vmrudangam
p1907
sg6
VUnlike Mrudangam or Tabla, Maddale produces tonic when played either on rim or on ink.\u000a
p1908
sg8
Vproduce unlike
p1909
sa(dp1910
g2
Vmaddale
p1911
sg4
Vink
p1912
sg6
VUnlike Mrudangam or Tabla, Maddale produces tonic when played either on rim or on ink.\u000a
p1913
sg8
Vplay on
p1914
sa(dp1915
g2
Vmaddale
p1916
sg4
Vrim
p1917
sg6
VUnlike Mrudangam or Tabla, Maddale produces tonic when played either on rim or on ink.\u000a
p1918
sg8
Vplay on
p1919
sa(dp1920
g2
Vmaddale
p1921
sg4
Vfamily
p1922
sg6
VMaddale belongs to mridangam family of drums and hence shares the history of similar drums.\u000a
p1923
sg8
Vmridangam
p1924
sa(dp1925
g2
Vmridangam
p1926
sg4
Vpakhawaj
p1927
sg6
VUse of palm produces a sound that is somewhat a mixture of pakhawaj and mridangam.\u000a
p1928
sg8
Vmixture of
p1929
sa(dp1930
g2
Vmaddale
p1931
sg4
Vink
p1932
sg6
VMaddale unlike Mrudangam or Tabla produces tonic when playing on rim and on ink.\u000a
p1933
sg8
Vplay on
p1934
sa(dp1935
g2
Vmaddale
p1936
sg4
Vrim
p1937
sg6
VMaddale unlike Mrudangam or Tabla produces tonic when playing on rim and on ink.\u000a
p1938
sg8
Vplay on
p1939
sa(dp1940
g2
Vmaddale
p1941
sg4
Vtabla
p1942
sg6
VMaddale unlike Mrudangam or Tabla produces tonic when playing on rim and on ink.\u000a
p1943
sg8
Vunlike
p1944
sa(dp1945
g2
Vmaddale
p1946
sg4
Vmrudangam
p1947
sg6
VMaddale unlike Mrudangam or Tabla produces tonic when playing on rim and on ink.\u000a
p1948
sg8
g1944
sa(dp1949
g2
Vmaddale
p1950
sg4
Vtonic
p1951
sg6
VMaddale is tuned to the tonic of the Yakshagana singer before performance.\u000a
p1952
sg8
Vtune to
p1953
sa(dp1954
g2
Vkalakshetra
p1955
sg4
Voffer
p1956
sg6
VLakshman 's father was only too happy to accept the offer made by Kalakshetra.\u000a
p1957
sg8
Vmake
p1958
sa(dp1959
g2
Vkantamani
p1960
sg4
Vragam
p1961
sg6
VKantamani is a ragam in Carnatic music.\u000a
p1962
sg8
S'is a'
p1963
sa(dp1964
g2
Vkantamani
p1965
sg4
Vmusic
p1966
sg6
VKantamani is a ragam in Carnatic music.\u000a
p1967
sg8
Vragam in
p1968
sa(dp1969
g2
Vkantamani
p1970
sg4
Vcouple
p1971
sg6
VKantamani has a couple of minor janya ragams associated with it.\u000a
p1972
sg8
Vhave
p1973
sa(dp1974
g2
Vvani sateesh
p1975
sg4
Vdoordarshan
p1976
sg6
VVani Sateesh is a regular performer for both All India Radio, Doordarshan and various TV Channels.\u000a
p1977
sg8
Vperformer for
p1978
sa(dp1979
g2
Vvani sateesh
p1980
sg4
Vall_india_radio
p1981
sg6
VVani Sateesh is a regular performer for both All India Radio, Doordarshan and various TV Channels.\u000a
p1982
sg8
Vperformer for
p1983
sa(dp1984
g2
Vvani sateesh
p1985
sg4
Vperformer
p1986
sg6
VVani Sateesh is a regular performer for both All India Radio, Doordarshan and various TV Channels.\u000a
p1987
sg8
S'is a'
p1988
sa(dp1989
g2
Vvani sateesh
p1990
sg4
Vregular performer
p1991
sg6
VVani Sateesh is a regular performer for both All India Radio, Doordarshan and various TV Channels.\u000a
p1992
sg8
S'is a'
p1993
sa(dp1994
g2
Vmargazhi raagam
p1995
sg4
Vtwo
p1996
sg6
VMargazhi Raagam brings together two things that are close to my heart - music and cinema !.\u000a
p1997
sg8
Vbring
p1998
sa(dp1999
g2
Vchembai
p2000
sg4
Vpowerful voice
p2001
sg6
VChembai was noted for his powerful voice and majestic style of singing.\u000a
p2002
sg8
Vnote for
p2003
sa(dp2004
g2
Vchembai
p2005
sg4
Vpowerful voice
p2006
sg6
VChembai was noted for his powerful voice and majestic style of singing.\u000a
p2007
sg8
Vnote for
p2008
sa(dp2009
g2
Vchembai
p2010
sg4
Vflute training
p2011
sg6
VChembai also received violin and flute training in 1912.\u000a
p2012
sg8
Vreceive
p2013
sa(dp2014
g2
Vchembai
p2015
sg4
Vmany recording
p2016
sg6
VChembai has many recordings to his credit.\u000a
p2017
sg8
Vhave
p2018
sa(dp2019
g2
Vchembai
p2020
sg4
Vspecial attraction
p2021
sg6
VChembai was uniquely blessed in this respect, for his voice which had great depth, was a special attraction.\u000a
p2022
sg8
Vbless for
p2023
sa(dp2024
g2
Vchembai
p2025
sg4
Vrespect
p2026
sg6
VChembai was uniquely blessed in this respect, for his voice which had great depth, was a special attraction.\u000a
p2027
sg8
Vbless in
p2028
sa(dp2029
g2
Vchembai
p2030
sg4
V78
p2031
sg6
VChembai died on 16 October 1974, aged 78, of a cardiac arrest.\u000a
p2032
sg8
Vage
p2033
sa(dp2034
g2
Vchembai
p2035
sg4
V16_october_1974
p2036
sg6
VChembai died on 16 October 1974, aged 78, of a cardiac arrest.\u000a
p2037
sg8
Vdie on
p2038
sa(dp2039
g2
Vchembai
p2040
sg4
Vmusic festival
p2041
sg6
VChembai had been conducting a music festival in his native village right from 1924 onwards.\u000a
p2042
sg8
Vconduct
p2043
sa(dp2044
g2
Vchembai
p2045
sg4
Vsangeetholsavam
p2046
sg6
VChembai had also been conducting a Sangeetholsavam on Guruvayur Ekadasi Day at Guruvayur every year.\u000a
p2047
sg8
Vconduct
p2048
sa(dp2049
g2
Vmohanam
p2050
sg4
Vraga
p2051
sg6
VMohanam is a raga in Carnatic music.\u000a
p2052
sg8
S'is a'
p2053
sa(dp2054
g2
Vmohanam
p2055
sg4
Vmusic
p2056
sg6
VMohanam is a raga in Carnatic music.\u000a
p2057
sg8
Vraga in
p2058
sa(dp2059
g2
Vmohanam
p2060
sg4
Vnishadham
p2061
sg6
VMohanam is a symmetric raga that does not contain madhyamam or nishadham.\u000a
p2062
sg8
Vnot contain
p2063
sa(dp2064
g2
Vmohanam
p2065
sg4
Vmadhyamam
p2066
sg6
VMohanam is a symmetric raga that does not contain madhyamam or nishadham.\u000a
p2067
sg8
g2063
sa(dp2068
g2
Vmohanam
p2069
sg4
Vsymmetric raga
p2070
sg6
VMohanam is a symmetric raga that does not contain madhyamam or nishadham.\u000a
p2071
sg8
S'is a'
p2072
sa(dp2073
g2
Vmohanam
p2074
sg4
Vraga
p2075
sg6
VMohanam is a symmetric raga that does not contain madhyamam or nishadham.\u000a
p2076
sg8
S'is a'
p2077
sa(dp2078
g2
Vmelakarta
p2079
sg4
Vcollection
p2080
sg6
VMelakarta is a collection of fundamental ragas in Carnatic music.\u000a
p2081
sg8
S'is a'
p2082
sa(dp2083
g2
Vmelakarta
p2084
sg4
Vfundamental raga
p2085
sg6
VMelakarta is a collection of fundamental ragas in Carnatic music.\u000a
p2086
sg8
Vcollection of
p2087
sa(dp2088
g2
Vhindolam
p2089
sg4
Vrishabha
p2090
sg6
VFor example, Hindolam has Rishabha and Panchama missing.\u000a
p2091
sg8
Vhave
p2092
sa(dp2093
g2
Vhindolam
p2094
sg4
Vpanchama
p2095
sg6
VFor example, Hindolam has Rishabha and Panchama missing.\u000a
p2096
sg8
g2092
sa(dp2097
g2
Vvenkatamakhin
p2098
sg4
Voriginal list
p2099
sg6
VDhunibinnashadjam is the 9th Melakarta in the original list compiled by Venkatamakhin.\u000a
p2100
sg8
Vcompile
p2101
sa(dp2102
g2
Vghatam
p2103
sg4
Vmridangam
p2104
sg6
VDuring a percussion ensemble, the mridangam is often accompanied by the ghatam, kanjira, and the morsing.\u000a
p2105
sg8
Vaccompany
p2106
sa(dp2107
g2
Vmridangam
p2108
sg4
Vlarge role
p2109
sg6
VMridangam has a large role in Newa music.\u000a
p2110
sg8
Vhave
p2111
sa(dp2112
g2
Vmridangam
p2113
sg4
Vit
p2114
sg6
VThe mridangam is played resting it parallel to the floor.\u000a
p2115
sg8
Vrest
p2116
sa(dp2117
g2
Vmridangam
p2118
sg4
Vmusic performance
p2119
sg6
VToday the mridangam is most widely used in Carnatic music performances.\u000a
p2120
sg8
Vuse in
p2121
sa(dp2122
g2
Vmridangam
p2123
sg4
Vaccompanying instrument
p2124
sg6
VMridangam is used as an accompanying instrument in Yakshagana Himmela where it is called Maddale.\u000a
p2125
sg8
Vuse as
p2126
sa(dp2127
g2
Vmridangam
p2128
sg4
Vmusic
p2129
sg6
VHowever, Mridangam used in Yakshagana is markedly different in structure and acoustics from the ones used in Carnatic music.\u000a
p2130
sg8
Vuse in
p2131
sa(dp2132
g2
Vpacchimiriam adiyappa
p2133
sg4
Vfamous musician
p2134
sg6
VPacchimiriam Adiyappa was a famous court musician at the Maratha kingdom of Thanjavur in the 18th century.\u000a
p2135
sg8
S'is a'
p2136
sa(dp2137
g2
Vpacchimiriam adiyappa
p2138
sg4
Vmusician
p2139
sg6
VPacchimiriam Adiyappa was a famous court musician at the Maratha kingdom of Thanjavur in the 18th century.\u000a
p2140
sg8
S'is a'
p2141
sa(dp2142
g2
Vpacchimiriam adiyappa
p2143
sg4
Vcourt musician
p2144
sg6
VPacchimiriam Adiyappa was a famous court musician at the Maratha kingdom of Thanjavur in the 18th century.\u000a
p2145
sg8
S'is a'
p2146
sa(dp2147
g2
Vmanavati
p2148
sg4
Vmusic
p2149
sg6
VManavati is a ragam in Carnatic music.\u000a
p2150
sg8
Vragam in
p2151
sa(dp2152
g2
Vmanavati
p2153
sg4
Vragam
p2154
sg6
VManavati is a ragam in Carnatic music.\u000a
p2155
sg8
S'is a'
p2156
sa(dp2157
g2
Vvenkatamakhin
p2158
sg4
Voriginal list
p2159
sg6
VManoranjani is the 5th Melakarta in the original list compiled by Venkatamakhin.\u000a
p2160
sg8
Vcompile
p2161
sa(dp2162
g2
Vmanavati
p2163
sg4
Vminor ragam
p2164
sg6
VManavati has a few minor janya ragams associated with it.\u000a
p2165
sg8
Vhave
p2166
sa(dp2167
g2
Vsaveri
p2168
sg4
Vcarnatic ragam
p2169
sg6
VSaveri is a Carnatic music ragam.\u000a
p2170
sg8
S'is a'
p2171
sa(dp2172
g2
Vsaveri
p2173
sg4
Vmusic ragam
p2174
sg6
VSaveri is a Carnatic music ragam.\u000a
p2175
sg8
S'is a'
p2176
sa(dp2177
g2
Vsaveri
p2178
sg4
Vragam
p2179
sg6
VSaveri is a Carnatic music ragam.\u000a
p2180
sg8
S'is a'
p2181
sa(dp2182
g2
Vvidyabhushana
p2183
sg4
Vvocalist
p2184
sg6
VVidyabhushana is a vocalist from Karnataka.\u000a
p2185
sg8
S'is a'
p2186
sa(dp2187
g2
Vvidyabhushana
p2188
sg4
Vkarnataka
p2189
sg6
VVidyabhushana is a vocalist from Karnataka.\u000a
p2190
sg8
Vvocalist from
p2191
sa(dp2192
g2
Vsenavati
p2193
sg4
Vragam
p2194
sg6
VSenavati is a ragam in Carnatic music.\u000a
p2195
sg8
S'is a'
p2196
sa(dp2197
g2
Vsenavati
p2198
sg4
Vmusic
p2199
sg6
VSenavati is a ragam in Carnatic music.\u000a
p2200
sg8
Vragam in
p2201
sa(dp2202
g2
Vvenkatamakhin
p2203
sg4
Voriginal list
p2204
sg6
VSenagrani is the 7th Melakarta in the original list compiled by Venkatamakhin.\u000a
p2205
sg8
Vcompile
p2206
sa(dp2207
g2
Vsenavati
p2208
sg4
Vminor ragam
p2209
sg6
VSenavati has a few minor janya ragams associated with it.\u000a
p2210
sg8
Vhave
p2211
sa(dp2212
g2
Vmararanjani
p2213
sg4
Vmusic
p2214
sg6
VMararanjani is a ragam in Carnatic music.\u000a
p2215
sg8
Vragam in
p2216
sa(dp2217
g2
Vmararanjani
p2218
sg4
Vragam
p2219
sg6
VMararanjani is a ragam in Carnatic music.\u000a
p2220
sg8
S'is a'
p2221
sa(dp2222
g2
Vhindolam
p2223
sg4
Vmusic
p2224
sg6
VHindolam is a ragam in Carnatic music.\u000a
p2225
sg8
Vragam in
p2226
sa(dp2227
g2
Vhindolam
p2228
sg4
Vragam
p2229
sg6
VHindolam is a ragam in Carnatic music.\u000a
p2230
sg8
S'is a'
p2231
sa(dp2232
g2
Vhindolam
p2233
sg4
Vpanchamam
p2234
sg6
VHindolam is a symmetric ragam that does not contain rishabham and panchamam.\u000a
p2235
sg8
Vnot contain
p2236
sa(dp2237
g2
Vhindolam
p2238
sg4
Vrishabham
p2239
sg6
VHindolam is a symmetric ragam that does not contain rishabham and panchamam.\u000a
p2240
sg8
g2236
sa(dp2241
g2
Vhindolam
p2242
sg4
Vragam
p2243
sg6
VHindolam is a symmetric ragam that does not contain rishabham and panchamam.\u000a
p2244
sg8
S'is a'
p2245
sa(dp2246
g2
Vhindolam
p2247
sg4
Vsymmetric ragam
p2248
sg6
VHindolam is a symmetric ragam that does not contain rishabham and panchamam.\u000a
p2249
sg8
S'is a'
p2250
sa(dp2251
g2
Vhindolam
p2252
sg4
Vmelakarta ragam
p2253
sg6
VHindolam is not a melakarta ragam, since it does not contain all the seven svaras.\u000a
p2254
sg8
S'is a'
p2255
sa(dp2256
g2
Vshuddha saveri
p2257
sg4
Vragam
p2258
sg6
VShuddha Saveri is a ragam in Carnatic music.\u000a
p2259
sg8
S'is a'
p2260
sa(dp2261
g2
Vshuddha saveri
p2262
sg4
Vmusic
p2263
sg6
VShuddha Saveri is a ragam in Carnatic music.\u000a
p2264
sg8
Vragam in
p2265
sa(dp2266
g2
Vshuddha saveri
p2267
sg4
Vragam
p2268
sg6
VShuddha Saveri is a symmetric ragam that does not contain gandharam or nishadam.\u000a
p2269
sg8
S'is a'
p2270
sa(dp2271
g2
Vshuddha saveri
p2272
sg4
Vsymmetric ragam
p2273
sg6
VShuddha Saveri is a symmetric ragam that does not contain gandharam or nishadam.\u000a
p2274
sg8
S'is a'
p2275
sa(dp2276
g2
Vshuddha saveri
p2277
sg4
Vnishadam
p2278
sg6
VShuddha Saveri is a symmetric ragam that does not contain gandharam or nishadam.\u000a
p2279
sg8
Vnot contain
p2280
sa(dp2281
g2
Vshuddha saveri
p2282
sg4
Vgandharam
p2283
sg6
VShuddha Saveri is a symmetric ragam that does not contain gandharam or nishadam.\u000a
p2284
sg8
g2280
sa(dp2285
g2
Vmuthuswami dikshitar
p2286
sg4
Vguha
p2287
sg6
VSree guru guha is a song set by muthuswami dikshitar.\u000a
p2288
sg8
Vset
p2289
sa(dp2290
g2
Vranjani
p2291
sg4
Vmeenakshi
p2292
sg6
VRanjani and Gayatri were born to N. Balasubramanian and Meenakshi.\u000a
p2293
sg8
Vbear to
p2294
sa(dp2295
g2
Vranjani
p2296
sg4
Vn._balasubramanian
p2297
sg6
VRanjani and Gayatri were born to N. Balasubramanian and Meenakshi.\u000a
p2298
sg8
Vbear to
p2299
sa(dp2300
g2
Vranjani
p2301
sg4
Vmusic career
p2302
sg6
VRanjani and Gayatri began their music career as violin duet artistes even before they reached their teens.\u000a
p2303
sg8
Vbegin
p2304
sa(dp2305
g2
Vranjani
p2306
sg4
Vvarious artist
p2307
sg6
VBoth Ranjani and Gayatri have accompanied various artists on the violin, including D.K. Pattammal.\u000a
p2308
sg8
Vaccompany
p2309
sa(dp2310
g2
Vranjani
p2311
sg4
Vmultiple award
p2312
sg6
VRanjani and Gayatri have received multiple awards and recognitions throughout their career.\u000a
p2313
sg8
Vreceive
p2314
sa(dp2315
g2
Vranjani
p2316
sg4
Vrecognition
p2317
sg6
VRanjani and Gayatri have received multiple awards and recognitions throughout their career.\u000a
p2318
sg8
g2314
sa(dp2319
g2
Vranjani
p2320
sg4
Vvarious album
p2321
sg6
VRanjani and Gayatri have various albums to their credit.\u000a
p2322
sg8
Vhave
p2323
sa(dp2324
g2
Vmuttuthandavar
p2325
sg4
Vprominent saivite
p2326
sg6
VMuttuthandavar was a prominent Saivite poet based in the temple town of Chidambaram.\u000a
p2327
sg8
Vpoet 's
p2328
sa(dp2329
g2
Vmuttuthandavar
p2330
sg4
Vpoet
p2331
sg6
VMuttuthandavar was a prominent Saivite poet based in the temple town of Chidambaram.\u000a
p2332
sg8
S'is a'
p2333
sa(dp2334
g2
Vmuttuthandavar
p2335
sg4
Vtemple town
p2336
sg6
VMuttuthandavar was a prominent Saivite poet based in the temple town of Chidambaram.\u000a
p2337
sg8
Vbase in
p2338
sa(dp2339
g2
Vmuttuthandavar
p2340
sg4
Vtown
p2341
sg6
VMuttuthandavar was born in town of Shiyali.\u000a
p2342
sg8
Vbear in
p2343
sa(dp2344
g2
Vmridangam
p2345
sg4
Vmusic
p2346
sg6
VDhananjayan received a scholarship at Kalakshetra to study Bharatanatyam, Kathakali, Mridangam and music.\u000a
p2347
sg8
S'is a'
p2348
sa(dp2349
g2
Vdhananjayans
p2350
sg4
Vkalakshetra
p2351
sg6
VThe Dhananjayans left Kalakshetra in the late 1960s to build a career on their own.\u000a
p2352
sg8
Vleave
p2353
sa(dp2354
g2
Vdhananjayans
p2355
sg4
Vcareer
p2356
sg6
VThe Dhananjayans left Kalakshetra in the late 1960s to build a career on their own.\u000a
p2357
sg8
Vbuild
p2358
sa(dp2359
g2
Vdhananjayans
p2360
sg4
Vschool own bharata their dance kalanjali
p2361
sg6
VThe Dhananjayans started their own dance school Bharata Kalanjali in 1968 in Adyar, Chennai.\u000a
p2362
sg8
Vstart
p2363
sa(dp2364
g2
Vdwaram bhavanarayana rao
p2365
sg4
Vviolinist
p2366
sg6
VDwaram Bhavanarayana Rao was famous Violinist and son of legendary Padmasri Dwaram Venkataswamy Naidu.\u000a
p2367
sg8
S'is a'
p2368
sa(dp2369
g2
Vdwaram bhavanarayana rao
p2370
sg4
Vfamous violinist
p2371
sg6
VDwaram Bhavanarayana Rao was famous Violinist and son of legendary Padmasri Dwaram Venkataswamy Naidu.\u000a
p2372
sg8
S'is a'
p2373
sa(dp2374
g2
Vdwaram bhavanarayana rao
p2375
sg4
Vson
p2376
sg6
VDwaram Bhavanarayana Rao was famous Violinist and son of legendary Padmasri Dwaram Venkataswamy Naidu.\u000a
p2377
sg8
S'is a'
p2378
sa(dp2379
g2
Vdwaram bhavanarayana rao
p2380
sg4
Vlegendary padmasri_dwaram_venkataswamy_naidu
p2381
sg6
VDwaram Bhavanarayana Rao was famous Violinist and son of legendary Padmasri Dwaram Venkataswamy Naidu.\u000a
p2382
sg8
Vson of
p2383
sa(dp2384
g2
Vmalayamarutam
p2385
sg4
Vmusic
p2386
sg6
VMalayamarutam is a ragam in Carnatic music.\u000a
p2387
sg8
Vragam in
p2388
sa(dp2389
g2
Vmalayamarutam
p2390
sg4
Vragam
p2391
sg6
VMalayamarutam is a ragam in Carnatic music.\u000a
p2392
sg8
S'is a'
p2393
sa(dp2394
g2
Vmalayamarutam
p2395
sg4
Vmadhyamam
p2396
sg6
VMalayamarutam is a symmetric ragam that does not contain madhyamam.\u000a
p2397
sg8
Vnot contain
p2398
sa(dp2399
g2
Vmalayamarutam
p2400
sg4
Vragam
p2401
sg6
VMalayamarutam is a symmetric ragam that does not contain madhyamam.\u000a
p2402
sg8
S'is a'
p2403
sa(dp2404
g2
Vmalayamarutam
p2405
sg4
Vsymmetric ragam
p2406
sg6
VMalayamarutam is a symmetric ragam that does not contain madhyamam.\u000a
p2407
sg8
S'is a'
p2408
sa(dp2409
g2
Vmalayamarutam
p2410
sg4
Vscale
p2411
sg6
VMalayamarutam is a pleasing scale, but has only a few compositions in classical music.\u000a
p2412
sg8
S'is a'
p2413
sa(dp2414
g2
Vmalayamarutam
p2415
sg4
Vplease scale
p2416
sg6
VMalayamarutam is a pleasing scale, but has only a few compositions in classical music.\u000a
p2417
sg8
S'is a'
p2418
sa(dp2419
g2
Vmalayamarutam
p2420
sg4
Vfew composition
p2421
sg6
VMalayamarutam is a pleasing scale, but has only a few compositions in classical music.\u000a
p2422
sg8
Vhave
p2423
sa(dp2424
g2
Vsvaramelakalanidhi
p2425
sg4
Vconcept
p2426
sg6
VThe Svaramelakalanidhi brings the theory up to date, rationalizes intervals and scales, introduces the concepts of svayambhu-svara,.\u000a
p2427
sg8
Vintroduce
p2428
sa(dp2429
g2
Vsvaramelakalanidhi
p2430
sg4
Vinterval
p2431
sg6
VThe Svaramelakalanidhi brings the theory up to date, rationalizes intervals and scales, introduces the concepts of svayambhu-svara,.\u000a
p2432
sg8
Vrationalize
p2433
sa(dp2434
g2
Vsvaramelakalanidhi
p2435
sg4
Vscale
p2436
sg6
VThe Svaramelakalanidhi brings the theory up to date, rationalizes intervals and scales, introduces the concepts of svayambhu-svara,.\u000a
p2437
sg8
g2433
sa(dp2438
g2
Vsvaramelakalanidhi
p2439
sg4
Vtheory
p2440
sg6
VThe Svaramelakalanidhi brings the theory up to date, rationalizes intervals and scales, introduces the concepts of svayambhu-svara,.\u000a
p2441
sg8
Vbring
p2442
sa(dp2443
g2
Vabhirami anthadhi
p2444
sg4
Vcollection
p2445
sg6
VAbhirami Anthadhi is a collection of poems composed by Abirami Pattar.\u000a
p2446
sg8
S'is a'
p2447
sa(dp2448
g2
Vabhirami anthadhi
p2449
sg4
Vpoem
p2450
sg6
VAbhirami Anthadhi is a collection of poems composed by Abirami Pattar.\u000a
p2451
sg8
Vcollection of
p2452
sa(dp2453
g2
Vsarangapani
p2454
sg4
Vminister_of_education
p2455
sg6
VSarangapani was the Minister of Education in the court of the local king Venkata Perumal.\u000a
p2456
sg8
S'is a'
p2457
sa(dp2458
g2
Vvenkatamakhin
p2459
sg4
Voriginal list
p2460
sg6
VChayavati is the 17th Melakarta in the original list compiled by Venkatamakhin.\u000a
p2461
sg8
Vcompile
p2462
sa(dp2463
g2
Vsuryakantam
p2464
sg4
Vjanya ragam
p2465
sg6
VSuryakantam has many janya ragams associated with it, of which Vasanta, Sowrashtram and Bhairavam are popular in concerts.\u000a
p2466
sg8
Vhave
p2467
sa(dp2468
g2
Vvijaya dasa
p2469
sg4
Vfamily
p2470
sg6
VVijaya Dasa was born in a poor Brahmin family in Cheekalaparvi in Manvi taluk of Raichur district, Karnataka state.\u000a
p2471
sg8
Vbear in
p2472
sa(dp2473
g2
Vvijaya dasa
p2474
sg4
Vtaluk
p2475
sg6
VVijaya Dasa was born in a poor Brahmin family in Cheekalaparvi in Manvi taluk of Raichur district, Karnataka state.\u000a
p2476
sg8
Vbear in
p2477
sa(dp2478
g2
Vvijaya dasa
p2479
sg4
Vcheekalaparvi
p2480
sg6
VVijaya Dasa was born in a poor Brahmin family in Cheekalaparvi in Manvi taluk of Raichur district, Karnataka state.\u000a
p2481
sg8
Vbear in
p2482
sa(dp2483
g2
Vkalpanaswaram
p2484
sg4
Vswarakalpana
p2485
sg6
VKalpanaswaram, also known as swarakalpana, consists of improvising melodic and rhythmic passages using swaras.\u000a
p2486
sg8
Vknow as
p2487
sa(dp2488
g2
Vtanam
p2489
sg4
Vimportant form
p2490
sg6
VTanam is one of the most important forms of improvisation, and is integral to Ragam-Tanam-Pallavi.\u000a
p2491
sg8
Vof
p2492
sa(dp2493
g2
Vtanam
p2494
sg4
Vragam-tanam-pallavi
p2495
sg6
VTanam is one of the most important forms of improvisation, and is integral to Ragam-Tanam-Pallavi.\u000a
p2496
sg8
Vintegral to
p2497
sa(dp2498
g2
Vkalpanaswaram
p2499
sg4
Vniraval
p2500
sg6
VThe niraval is followed by kalpanaswarams.\u000a
p2501
sg8
Vfollow
p2502
sa(dp2503
g2
Vmadhyamavati
p2504
sg4
Vmusic
p2505
sg6
VMadhyamavati is a raga in Carnatic music.\u000a
p2506
sg8
Vraga in
p2507
sa(dp2508
g2
Vmadhyamavati
p2509
sg4
Vraga
p2510
sg6
VMadhyamavati is a raga in Carnatic music.\u000a
p2511
sg8
S'is a'
p2512
sa(dp2513
g2
Vmadhyamavati
p2514
sg4
Vdhaivatam
p2515
sg6
VMadhyamavati is a symmetric ragam that does not contain gandharam or dhaivatam.\u000a
p2516
sg8
Vnot contain
p2517
sa(dp2518
g2
Vmadhyamavati
p2519
sg4
Vgandharam
p2520
sg6
VMadhyamavati is a symmetric ragam that does not contain gandharam or dhaivatam.\u000a
p2521
sg8
g2517
sa(dp2522
g2
Vmadhyamavati
p2523
sg4
Vragam
p2524
sg6
VMadhyamavati is a symmetric ragam that does not contain gandharam or dhaivatam.\u000a
p2525
sg8
S'is a'
p2526
sa(dp2527
g2
Vmadhyamavati
p2528
sg4
Vsymmetric ragam
p2529
sg6
VMadhyamavati is a symmetric ragam that does not contain gandharam or dhaivatam.\u000a
p2530
sg8
S'is a'
p2531
sa(dp2532
g2
Vmadhuvanti
p2533
sg4
Vname
p2534
sg6
VMadhuvanti is the name of a raga used in Indian classical music.\u000a
p2535
sg8
S'is a'
p2536
sa(dp2537
g2
Vmadhuvanti
p2538
sg4
Vraga
p2539
sg6
VMadhuvanti is the name of a raga used in Indian classical music.\u000a
p2540
sg8
Vname of
p2541
sa(dp2542
g2
Vmadhuvanti
p2543
sg4
Vtodi
p2544
sg6
VMadhuvanti belongs to thaat Todi.\u000a
p2545
sg8
Vthaat
p2546
sa(dp2547
g2
Vmadhuvanti
p2548
sg4
Vloving sentiment
p2549
sg6
VMadhuvanti expresses a gentle loving sentiment.\u000a
p2550
sg8
Vexpress
p2551
sa(dp2552
g2
Vmadhuvanti
p2553
sg4
Vraga
p2554
sg6
VMadhuvanti is the janya raga of the 59th Melakarta of Carnatic Music, Dharmavati.\u000a
p2555
sg8
S'is a'
p2556
sa(dp2557
g2
Vmadhuvanti
p2558
sg4
Vjanya raga
p2559
sg6
VMadhuvanti is the janya raga of the 59th Melakarta of Carnatic Music, Dharmavati.\u000a
p2560
sg8
S'is a'
p2561
sa(dp2562
g2
Vmadhuvanti
p2563
sg4
Vdharmavati
p2564
sg6
VMadhuvanti is the janya raga of the 59th Melakarta of Carnatic Music, Dharmavati.\u000a
p2565
sg8
Vraga of
p2566
sa(dp2567
g2
Vmadhuvanti
p2568
sg4
Vth melakarta_of_carnatic_music
p2569
sg6
VMadhuvanti is the janya raga of the 59th Melakarta of Carnatic Music, Dharmavati.\u000a
p2570
sg8
Vraga of
p2571
sa(dp2572
g2
Vmadhuvanti
p2573
sg4
Vmelodious raga
p2574
sg6
VMadhuvanti is a very melodious raga.\u000a
p2575
sg8
S'is a'
p2576
sa(dp2577
g2
Vmadhuvanti
p2578
sg4
Vraga
p2579
sg6
VMadhuvanti is a very melodious raga.\u000a
p2580
sg8
S'is a'
p2581
sa(dp2582
g2
Vchingleput ranganathan
p2583
sg4
Vvocalist
p2584
sg6
VChingleput Ranganathan was a classical Carnatic vocalist and Guru.\u000a
p2585
sg8
S'is a'
p2586
sa(dp2587
g2
Vchingleput ranganathan
p2588
sg4
Vclassical carnatic
p2589
sg6
VChingleput Ranganathan was a classical Carnatic vocalist and Guru.\u000a
p2590
sg8
Vvocalist 's
p2591
sa(dp2592
g2
Vkudamaloor janardanan
p2593
sg4
Vmusic tradition
p2594
sg6
VKudamaloor Janardanan is an Indian flautist of the Carnatic music tradition.\u000a
p2595
sg8
Vflautist of
p2596
sa(dp2597
g2
Vkudamaloor janardanan
p2598
sg4
Vflautist
p2599
sg6
VKudamaloor Janardanan is an Indian flautist of the Carnatic music tradition.\u000a
p2600
sg8
S'is a'
p2601
sa(dp2602
g2
Vkudamaloor janardanan
p2603
sg4
Vindian flautist
p2604
sg6
VKudamaloor Janardanan is an Indian flautist of the Carnatic music tradition.\u000a
p2605
sg8
S'is a'
p2606
sa(dp2607
g2
Vkudamaloor janardanan
p2608
sg4
Vmusical family
p2609
sg6
VKudamaloor Janardanan was born into a musical family in Kerala, India.\u000a
p2610
sg8
Vbear into
p2611
sa(dp2612
g2
Vkudamaloor janardanan
p2613
sg4
Vkerala
p2614
sg6
VKudamaloor Janardanan was born into a musical family in Kerala, India.\u000a
p2615
sg8
Vbear in
p2616
sa(dp2617
g2
Vkudamaloor janardanan
p2618
sg4
Vindia
p2619
sg6
VKudamaloor Janardanan was born into a musical family in Kerala, India.\u000a
p2620
sg8
Vbear in
p2621
sa(dp2622
g2
Vghatam
p2623
sg4
Vflute
p2624
sg6
VThe accompanying artists on Mridangam, Veena, Ghatam and second flutes are not known.\u000a
p2625
sg8
S'is a'
p2626
sa(dp2627
g2
Vghatam
p2628
sg4
Vsecond flute
p2629
sg6
VThe accompanying artists on Mridangam, Veena, Ghatam and second flutes are not known.\u000a
p2630
sg8
S'is a'
p2631
sa(dp2632
g2
Varunachala kavi
p2633
sg4
Vpoet
p2634
sg6
VArunachala Kavi was a Tamil poet and a composer of Carnatic music.\u000a
p2635
sg8
S'is a'
p2636
sa(dp2637
g2
Varunachala kavi
p2638
sg4
Vcomposer
p2639
sg6
VArunachala Kavi was a Tamil poet and a composer of Carnatic music.\u000a
p2640
sg8
S'is a'
p2641
sa(dp2642
g2
Varunachala kavi
p2643
sg4
Vtamil
p2644
sg6
VArunachala Kavi was a Tamil poet and a composer of Carnatic music.\u000a
p2645
sg8
Vpoet 's
p2646
sa(dp2647
g2
Varunachala kavi
p2648
sg4
Vmusic
p2649
sg6
VArunachala Kavi was a Tamil poet and a composer of Carnatic music.\u000a
p2650
sg8
Vcomposer of
p2651
sa(dp2652
g2
Vgiriraja kavi
p2653
sg4
Vmajor role
p2654
sg6
VGiriraja Kavi played a major role in influencing the formative years of his celebrated grandson Tyagaraja.\u000a
p2655
sg8
Vplay
p2656
sa(dp2657
g2
Vgiriraja kavi
p2658
sg4
Vformative year
p2659
sg6
VGiriraja Kavi played a major role in influencing the formative years of his celebrated grandson Tyagaraja.\u000a
p2660
sg8
Vinfluence
p2661
sa(dp2662
g2
Vtyagaraja
p2663
sg4
Vposition
p2664
sg6
VHe was instrumental in securing a place at court for his grandson, a position that Tyagaraja soon abjured.\u000a
p2665
sg8
Vabjure
p2666
sa(dp2667
g2
Vdivyamani
p2668
sg4
Vragam system
p2669
sg6
VDivyamani is a ragam in the 72 melakarta ragam system of Carnatic music.\u000a
p2670
sg8
Vragam in
p2671
sa(dp2672
g2
Vdivyamani
p2673
sg4
Vragam
p2674
sg6
VDivyamani is a ragam in the 72 melakarta ragam system of Carnatic music.\u000a
p2675
sg8
S'is a'
p2676
sa(dp2677
g2
Vdivyamani
p2678
sg4
Vminor ragam
p2679
sg6
VDivyamani has a few minor janya ragams associated with it.\u000a
p2680
sg8
Vhave
p2681
sa(dp2682
g2
Vudayaravichandrika
p2683
sg4
Vragam
p2684
sg6
VUdayaravichandrika is a ragam in Carnatic music.\u000a
p2685
sg8
S'is a'
p2686
sa(dp2687
g2
Vudayaravichandrika
p2688
sg4
Vmusic
p2689
sg6
VUdayaravichandrika is a ragam in Carnatic music.\u000a
p2690
sg8
Vragam in
p2691
sa(dp2692
g2
Vudayaravichandrika
p2693
sg4
Vragam
p2694
sg6
VUdayaravichandrika is a symmetric ragam that does not contain rishabham or dhaivatam.\u000a
p2695
sg8
S'is a'
p2696
sa(dp2697
g2
Vudayaravichandrika
p2698
sg4
Vsymmetric ragam
p2699
sg6
VUdayaravichandrika is a symmetric ragam that does not contain rishabham or dhaivatam.\u000a
p2700
sg8
S'is a'
p2701
sa(dp2702
g2
Vudayaravichandrika
p2703
sg4
Vdhaivatam
p2704
sg6
VUdayaravichandrika is a symmetric ragam that does not contain rishabham or dhaivatam.\u000a
p2705
sg8
Vnot contain
p2706
sa(dp2707
g2
Vudayaravichandrika
p2708
sg4
Vrishabham
p2709
sg6
VUdayaravichandrika is a symmetric ragam that does not contain rishabham or dhaivatam.\u000a
p2710
sg8
g2706
sa(dp2711
g2
Vgayathri venkataraghavan
p2712
sg4
Vvocalist
p2713
sg6
VGayathri Venkataraghavan is an Indian Carnatic vocalist.\u000a
p2714
sg8
S'is a'
p2715
sa(dp2716
g2
Vgayathri venkataraghavan
p2717
sg4
Vindian carnatic
p2718
sg6
VGayathri Venkataraghavan is an Indian Carnatic vocalist.\u000a
p2719
sg8
Vvocalist 's
p2720
sa(dp2721
g2
Vvarali
p2722
sg4
Vvakra prayoga
p2723
sg6
VVarali is an asymmetric ragam due to the vakra prayoga in ascending scale.\u000a
p2724
sg8
Vdue to
p2725
sa(dp2726
g2
Vvarali
p2727
sg4
Vasymmetric ragam
p2728
sg6
VVarali is an asymmetric ragam due to the vakra prayoga in ascending scale.\u000a
p2729
sg8
S'is a'
p2730
sa(dp2731
g2
Vvarali
p2732
sg4
Vragam
p2733
sg6
VVarali is an asymmetric ragam due to the vakra prayoga in ascending scale.\u000a
p2734
sg8
S'is a'
p2735
sa(dp2736
g2
Vveenai dhanammal
p2737
sg4
Vbrindas
p2738
sg6
VVeenai Dhanammal, who was also Brindas grandmother, herself taught her some compositions.\u000a
p2739
sg8
Vgrandmother 's
p2740
sa(dp2741
g2
Vveenai dhanammal
p2742
sg4
Vgrandmother
p2743
sg6
VVeenai Dhanammal, who was also Brindas grandmother, herself taught her some compositions.\u000a
p2744
sg8
S'is a'
p2745
sa(dp2746
g2
Vmuthuswami dikshitar
p2747
sg4
Vtyagaraja
p2748
sg6
VMuthuswami Dikshitar mainly composed in Sanskrit, while Tyagaraja and Syama Sastri mainly composed in Telugu.\u000a
p2749
sg8
Vcompose while
p2750
sa(dp2751
g2
Vmuthuswami dikshitar
p2752
sg4
Vtelugu
p2753
sg6
VMuthuswami Dikshitar mainly composed in Sanskrit, while Tyagaraja and Syama Sastri mainly composed in Telugu.\u000a
p2754
sg8
Vcompose in
p2755
sa(dp2756
g2
Vpantula rama
p2757
sg4
Vfamily
p2758
sg6
VPantula Rama was born into a family with a lineage of music.\u000a
p2759
sg8
Vbear into
p2760
sa(dp2761
g2
Vpantula rama
p2762
sg4
Vlineage
p2763
sg6
VPantula Rama was born into a family with a lineage of music.\u000a
p2764
sg8
Vbear with
p2765
sa(dp2766
g2
Vvyjayanthimala
p2767
sg4
Vfilm
p2768
sg6
VIn AVM 's Vazhkai, where Vyjayanthimala was introduced in film, Pattammal also sang his Bharatha samudhaayam vaazhgave.\u000a
p2769
sg8
Vintroduce in
p2770
sa(dp2771
g2
Vgingger shankar
p2772
sg4
Vsinger
p2773
sg6
VGingger Shankar is an Indian American singer, composer and multi-instrumentalist.\u000a
p2774
sg8
S'is a'
p2775
sa(dp2776
g2
Vgingger shankar
p2777
sg4
Vindian singer
p2778
sg6
VGingger Shankar is an Indian American singer, composer and multi-instrumentalist.\u000a
p2779
sg8
S'is a'
p2780
sa(dp2781
g2
Vgingger shankar
p2782
sg4
Vamerican singer
p2783
sg6
VGingger Shankar is an Indian American singer, composer and multi-instrumentalist.\u000a
p2784
sg8
S'is a'
p2785
sa(dp2786
g2
Vkonerirajapuram vaidyanatha ayyar
p2787
sg4
Vcarnatic vocalist
p2788
sg6
VKonerirajapuram Vaidyanatha Ayyar was a Carnatic vocalist from the Indian state of Tamil Nadu.\u000a
p2789
sg8
S'is a'
p2790
sa(dp2791
g2
Vkonerirajapuram vaidyanatha ayyar
p2792
sg4
Vvocalist
p2793
sg6
VKonerirajapuram Vaidyanatha Ayyar was a Carnatic vocalist from the Indian state of Tamil Nadu.\u000a
p2794
sg8
S'is a'
p2795
sa(dp2796
g2
Vkonerirajapuram vaidyanatha ayyar
p2797
sg4
Vindian state
p2798
sg6
VKonerirajapuram Vaidyanatha Ayyar was a Carnatic vocalist from the Indian state of Tamil Nadu.\u000a
p2799
sg8
Vvocalist from
p2800
sa(dp2801
g2
Vkonerirajapuram vaidyanatha ayyar
p2802
sg4
Vcolossus
p2803
sg6
VKonerirajapuram Vaidyanatha Ayyar was a COLOSSUS who reached the pinnacle of glory by sheer will-power and unparalleled dedication.\u000a
p2804
sg8
S'is a'
p2805
sa(dp2806
g2
Vchembai
p2807
sg4
Vfestival
p2808
sg6
VChembai had conducted the festival in the temple town on his own for about 60 years.\u000a
p2809
sg8
Vconduct
p2810
sa(dp2811
g2
Vsusheela raman
p2812
sg4
Vbritish musician
p2813
sg6
VSusheela Raman is an acclaimed British Indian musician.\u000a
p2814
sg8
S'is a'
p2815
sa(dp2816
g2
Vsusheela raman
p2817
sg4
Vmusician
p2818
sg6
VSusheela Raman is an acclaimed British Indian musician.\u000a
p2819
sg8
S'is a'
p2820
sa(dp2821
g2
Vsusheela raman
p2822
sg4
Vacclaimed musician
p2823
sg6
VSusheela Raman is an acclaimed British Indian musician.\u000a
p2824
sg8
S'is a'
p2825
sa(dp2826
g2
Vsusheela raman
p2827
sg4
Vindian musician
p2828
sg6
VSusheela Raman is an acclaimed British Indian musician.\u000a
p2829
sg8
S'is a'
p2830
sa(dp2831
g2
Vkalpanaswaram
p2832
sg4
Vcarnatic concert
p2833
sg6
VKalpanaswaram is performed in a Carnatic Concert for the main song, the singer chooses to perform the Raga Alapana.\u000a
p2834
sg8
Vperform in
p2835
sa(dp2836
g2
Vsarasangi
p2837
sg4
Vmusic
p2838
sg6
VSarasangi is a ragam in Carnatic music.\u000a
p2839
sg8
Vragam in
p2840
sa(dp2841
g2
Vsarasangi
p2842
sg4
Vragam
p2843
sg6
VSarasangi is a ragam in Carnatic music.\u000a
p2844
sg8
S'is a'
p2845
sa(dp2846
g2
Vsarasangi
p2847
sg4
Vmelakarta ragam
p2848
sg6
VBy definition, Sarasangi, a melakarta ragam, is a sampurna ragam.\u000a
p2849
sg8
S'is a'
p2850
sa(dp2851
g2
Vsarasangi
p2852
sg4
Vragam
p2853
sg6
VBy definition, Sarasangi, a melakarta ragam, is a sampurna ragam.\u000a
p2854
sg8
S'is a'
p2855
sa(dp2856
g2
Vsarasangi
p2857
sg4
Vsampurna ragam
p2858
sg6
VBy definition, Sarasangi, a melakarta ragam, is a sampurna ragam.\u000a
p2859
sg8
S'is a'
p2860
sa(dp2861
g2
Vsarasangi
p2862
sg4
Vminor ragam
p2863
sg6
VSarasangi has a few minor janya ragams associated with it, of which Kamala manohari and Nalinakanti are popular.\u000a
p2864
sg8
Vhave
p2865
sa(dp2866
g2
Vsaramati
p2867
sg4
Vmusic
p2868
sg6
VSaramati is a ragam in Carnatic music.\u000a
p2869
sg8
Vragam in
p2870
sa(dp2871
g2
Vsaramati
p2872
sg4
Vragam
p2873
sg6
VSaramati is a ragam in Carnatic music.\u000a
p2874
sg8
S'is a'
p2875
sa(dp2876
g2
Vsaramati
p2877
sg4
Vrishabham
p2878
sg6
VSaramati is an asymmetric ragam that does not contain panchamam or rishabham in the descending scale.\u000a
p2879
sg8
Vnot contain
p2880
sa(dp2881
g2
Vsaramati
p2882
sg4
Vpanchamam
p2883
sg6
VSaramati is an asymmetric ragam that does not contain panchamam or rishabham in the descending scale.\u000a
p2884
sg8
g2880
sa(dp2885
g2
Vsaramati
p2886
sg4
Vasymmetric ragam
p2887
sg6
VSaramati is an asymmetric ragam that does not contain panchamam or rishabham in the descending scale.\u000a
p2888
sg8
S'is a'
p2889
sa(dp2890
g2
Vsaramati
p2891
sg4
Vragam
p2892
sg6
VSaramati is an asymmetric ragam that does not contain panchamam or rishabham in the descending scale.\u000a
p2893
sg8
S'is a'
p2894
sa(dp2895
g2
Vdhanyasi
p2896
sg4
Vragam
p2897
sg6
VDhanyasi is a ragam in Carnatic music.\u000a
p2898
sg8
S'is a'
p2899
sa(dp2900
g2
Vdhanyasi
p2901
sg4
Vmusic
p2902
sg6
VDhanyasi is a ragam in Carnatic music.\u000a
p2903
sg8
Vragam in
p2904
sa(dp2905
g2
Vdhanyasi
p2906
sg4
Vshuddha combination
p2907
sg6
VIt is a combination of the pentatonic scale Shuddha Dhanyasi and the sampurna raga scale Hanumatodi.\u000a
p2908
sg8
S'is a'
p2909
sa(dp2910
g2
Vdhanyasi
p2911
sg4
Vasymmetric ragam
p2912
sg6
VDhanyasi is an asymmetric ragam that does not contain rishabham or dhaivatam in the ascending scale.\u000a
p2913
sg8
S'is a'
p2914
sa(dp2915
g2
Vdhanyasi
p2916
sg4
Vragam
p2917
sg6
VDhanyasi is an asymmetric ragam that does not contain rishabham or dhaivatam in the ascending scale.\u000a
p2918
sg8
S'is a'
p2919
sa(dp2920
g2
Vdhanyasi
p2921
sg4
Vdhaivatam
p2922
sg6
VDhanyasi is an asymmetric ragam that does not contain rishabham or dhaivatam in the ascending scale.\u000a
p2923
sg8
Vnot contain
p2924
sa(dp2925
g2
Vdhanyasi
p2926
sg4
Vrishabham
p2927
sg6
VDhanyasi is an asymmetric ragam that does not contain rishabham or dhaivatam in the ascending scale.\u000a
p2928
sg8
g2924
sa(dp2929
g2
Vmysore manjunath
p2930
sg4
Vviolinist
p2931
sg6
VMysore Manjunath is an Indian violinist, one of the Mysore brothers duo.\u000a
p2932
sg8
S'is a'
p2933
sa(dp2934
g2
Vmysore manjunath
p2935
sg4
Vindian violinist
p2936
sg6
VMysore Manjunath is an Indian violinist, one of the Mysore brothers duo.\u000a
p2937
sg8
S'is a'
p2938
sa(dp2939
g2
Vmysore manjunath
p2940
sg4
Vbrother duo
p2941
sg6
VMysore Manjunath is an Indian violinist, one of the Mysore brothers duo.\u000a
p2942
sg8
Vof
p2943
sa(dp2944
g2
Vranjani
p2945
sg4
Vraga
p2946
sg6
VRanjani is a Carnatic raga, which is also sometimes written as Ranjini.\u000a
p2947
sg8
S'is a'
p2948
sa(dp2949
g2
Vranjani
p2950
sg4
Vcarnatic raga
p2951
sg6
VRanjani is a Carnatic raga, which is also sometimes written as Ranjini.\u000a
p2952
sg8
S'is a'
p2953
sa(dp2954
g2
Vpapanasam sivan
p2955
sg4
Vaward
p2956
sg6
VLater in 1962 Papanasam Sivan received the President award.\u000a
p2957
sg8
Vreceive
p2958
sa(dp2959
g2
Vrithvik raja
p2960
sg4
Vmusician
p2961
sg6
VRithvik Raja is a Carnatic Musician from India.\u000a
p2962
sg8
S'is a'
p2963
sa(dp2964
g2
Vrithvik raja
p2965
sg4
Vcarnatic musician
p2966
sg6
VRithvik Raja is a Carnatic Musician from India.\u000a
p2967
sg8
S'is a'
p2968
sa(dp2969
g2
Vrithvik raja
p2970
sg4
Vindia
p2971
sg6
VRithvik Raja is a Carnatic Musician from India.\u000a
p2972
sg8
Vmusician from
p2973
sa(dp2974
g2
Vrithvik raja
p2975
sg4
Vchennai
p2976
sg6
VRithvik Raja was born in Chennai, Tamil Nadu, India.\u000a
p2977
sg8
Vbear in
p2978
sa(dp2979
g2
Vabhogi
p2980
sg4
Vmusic
p2981
sg6
VAbhogi is a raga in Carnatic music and has been adapted to Hindustani music.\u000a
p2982
sg8
Vraga in
p2983
sa(dp2984
g2
Vabhogi
p2985
sg4
Vmusic
p2986
sg6
VAbhogi is a raga in Carnatic music and has been adapted to Hindustani music.\u000a
p2987
sg8
Vadapt to
p2988
sa(dp2989
g2
Vabhogi
p2990
sg4
Vraga
p2991
sg6
VAbhogi is a raga in Carnatic music and has been adapted to Hindustani music.\u000a
p2992
sg8
S'is a'
p2993
sa(dp2994
g2
Vabhogi
p2995
sg4
Vmusic
p2996
sg6
VAbhogi has been borrowed from Carnatic music into Hindustani music and is also quite popular in the latter.\u000a
p2997
sg8
Vborrow from
p2998
sa(dp2999
g2
Vabhogi
p3000
sg4
Vsymmetric scale
p3001
sg6
VAbhogi is a symmetric pentatonic scale that does not contain panchamam and nishadam.\u000a
p3002
sg8
S'is a'
p3003
sa(dp3004
g2
Vabhogi
p3005
sg4
Vpentatonic scale
p3006
sg6
VAbhogi is a symmetric pentatonic scale that does not contain panchamam and nishadam.\u000a
p3007
sg8
S'is a'
p3008
sa(dp3009
g2
Vabhogi
p3010
sg4
Vscale
p3011
sg6
VAbhogi is a symmetric pentatonic scale that does not contain panchamam and nishadam.\u000a
p3012
sg8
S'is a'
p3013
sa(dp3014
g2
Vabhogi
p3015
sg4
Vpanchamam
p3016
sg6
VAbhogi is a symmetric pentatonic scale that does not contain panchamam and nishadam.\u000a
p3017
sg8
Vnot contain
p3018
sa(dp3019
g2
Vabhogi
p3020
sg4
Vnishadam
p3021
sg6
VAbhogi is a symmetric pentatonic scale that does not contain panchamam and nishadam.\u000a
p3022
sg8
g3018
sa(dp3023
g2
Vabhogi
p3024
sg4
Vscale
p3025
sg6
VAbhogi is a scale that is used for compositions in a medium to fast tempo.\u000a
p3026
sg8
S'is a'
p3027
sa(dp3028
g2
Vabhogi
p3029
sg4
Vcomposition
p3030
sg6
VAbhogi is a scale that is used for compositions in a medium to fast tempo.\u000a
p3031
sg8
Vuse for
p3032
sa(dp3033
g2
Vabhogi
p3034
sg4
Vmedium
p3035
sg6
VAbhogi is a scale that is used for compositions in a medium to fast tempo.\u000a
p3036
sg8
Vuse in
p3037
sa(dp3038
g2
Vugabhoga
p3039
sg4
Vfreestyle rendering
p3040
sg6
VLater ugabhoga led to freestyle rendering of raga without lyrics known as allapane.\u000a
p3041
sg8
Vlead to
p3042
sa(dp3043
g2
g3039
sg4
Vlyric
p3044
sg6
VLater ugabhoga led to freestyle rendering of raga without lyrics known as allapane.\u000a
p3045
sg8
Vlead without
p3046
sa(dp3047
g2
Vramapriya
p3048
sg4
Vragam
p3049
sg6
VRamapriya is a ragam in Carnatic music.\u000a
p3050
sg8
S'is a'
p3051
sa(dp3052
g2
Vramapriya
p3053
sg4
Vmusic
p3054
sg6
VRamapriya is a ragam in Carnatic music.\u000a
p3055
sg8
Vragam in
p3056
sa(dp3057
g2
Vramapriya
p3058
sg4
Vminor ragam
p3059
sg6
VRamapriya has a few minor janya ragams associated with it.\u000a
p3060
sg8
Vhave
p3061
sa(dp3062
g2
Vrupavati
p3063
sg4
Vmusic
p3064
sg6
VRupavati is a ragam in Carnatic music.\u000a
p3065
sg8
Vragam in
p3066
sa(dp3067
g2
Vrupavati
p3068
sg4
Vragam
p3069
sg6
VRupavati is a ragam in Carnatic music.\u000a
p3070
sg8
S'is a'
p3071
sa(dp3072
g2
Vrupavati
p3073
sg4
Vth melakarta
p3074
sg6
VRupavati is also the original name given to the 12th Melakarta in the list compiled by Venkatamakhin.\u000a
p3075
sg8
Vgive to
p3076
sa(dp3077
g2
Vrupavati
p3078
sg4
Vlist
p3079
sg6
VRupavati is also the original name given to the 12th Melakarta in the list compiled by Venkatamakhin.\u000a
p3080
sg8
Vgive in
p3081
sa(dp3082
g2
Vvenkatamakhin
p3083
sg4
g3079
sg6
VRupavati is also the original name given to the 12th Melakarta in the list compiled by Venkatamakhin.\u000a
p3084
sg8
Vcompile
p3085
sa(dp3086
g2
Vrupavati
p3087
sg4
Vname
p3088
sg6
VRupavati is also the original name given to the 12th Melakarta in the list compiled by Venkatamakhin.\u000a
p3089
sg8
S'is a'
p3090
sa(dp3091
g2
Vrupavati
p3092
sg4
Voriginal name
p3093
sg6
VRupavati is also the original name given to the 12th Melakarta in the list compiled by Venkatamakhin.\u000a
p3094
sg8
S'is a'
p3095
sa(dp3096
g2
Vrupavati
p3097
sg4
Vminor ragam
p3098
sg6
VRupavati has a few minor janya ragams associated with it.\u000a
p3099
sg8
Vhave
p3100
sa(dp3101
g2
Vshadvidamargini
p3102
sg4
Vmusic
p3103
sg6
VShadvidamargini is a ragam in Carnatic music.\u000a
p3104
sg8
Vragam in
p3105
sa(dp3106
g2
Vshadvidamargini
p3107
sg4
Vragam
p3108
sg6
VShadvidamargini is a ragam in Carnatic music.\u000a
p3109
sg8
S'is a'
p3110
sa(dp3111
g2
Vshadvidamargini
p3112
sg4
Vminor ragam
p3113
sg6
VShadvidamargini has a few minor janya ragams associated with it.\u000a
p3114
sg8
Vhave
p3115
sa(dp3116
g2
Vvenkatamakhin
p3117
sg4
Voriginal list
p3118
sg6
VBhanumati is the 4th Melakarta in the original list compiled by Venkatamakhin.\u000a
p3119
sg8
Vcompile
p3120
sa(dp3121
g2
Vsuvarnangi
p3122
sg4
Vragam
p3123
sg6
VSuvarnangi is a ragam in Carnatic music.\u000a
p3124
sg8
S'is a'
p3125
sa(dp3126
g2
Vsuvarnangi
p3127
sg4
Vmusic
p3128
sg6
VSuvarnangi is a ragam in Carnatic music.\u000a
p3129
sg8
Vragam in
p3130
sa(dp3131
g2
Vsuvarnangi
p3132
sg4
Vminor ragam
p3133
sg6
VSuvarnangi has a few minor janya ragams associated with it.\u000a
p3134
sg8
Vhave
p3135
sa(dp3136
g2
Vvani sateesh
p3137
sg4
Vkarnataka
p3138
sg6
VVani Sateesh was born in Bangalore, Karnataka.\u000a
p3139
sg8
Vbear in
p3140
sa(dp3141
g2
Vvani sateesh
p3142
sg4
Vbangalore
p3143
sg6
VVani Sateesh was born in Bangalore, Karnataka.\u000a
p3144
sg8
Vbear in
p3145
sa(dp3146
g2
Vdakshinamurthy pillai
p3147
sg4
V1937
p3148
sg6
VDakshinamurthy Pillai lived during 1875 to 1937.\u000a
p3149
sg8
Vlive to
p3150
sa(dp3151
g2
Vdakshinamurthy pillai
p3152
sg4
V1875
p3153
sg6
VDakshinamurthy Pillai lived during 1875 to 1937.\u000a
p3154
sg8
Vlive during
p3155
sa(dp3156
g2
Vchenda
p3157
sg4
Vdrummer neck
p3158
sg6
VThe Chenda is suspended from the drummers neck so that it hangs vertically.\u000a
p3159
sg8
Vsuspend from
p3160
sa(dp3161
g2
Vdevoleena bhattacharjee
p3162
sg4
Vrole
p3163
sg6
VDevoleena Bhattacharjee played the role of Baani Kaur Dhillon, younger sister of Preeto in the serial.\u000a
p3164
sg8
Vplay
p3165
sa(dp3166
g2
Vbhupalam
p3167
sg4
Vragam
p3168
sg6
VBhupalam is a ragam in Carnatic music.\u000a
p3169
sg8
S'is a'
p3170
sa(dp3171
g2
Vbhupalam
p3172
sg4
Vmusic
p3173
sg6
VBhupalam is a ragam in Carnatic music.\u000a
p3174
sg8
Vragam in
p3175
sa(dp3176
g2
Vbhupalam
p3177
sg4
Vragam
p3178
sg6
VBhupalam is a symmetric ragam that does not contain madhyamam or nishadham.\u000a
p3179
sg8
S'is a'
p3180
sa(dp3181
g2
Vbhupalam
p3182
sg4
Vsymmetric ragam
p3183
sg6
VBhupalam is a symmetric ragam that does not contain madhyamam or nishadham.\u000a
p3184
sg8
S'is a'
p3185
sa(dp3186
g2
Vbhupalam
p3187
sg4
Vnishadham
p3188
sg6
VBhupalam is a symmetric ragam that does not contain madhyamam or nishadham.\u000a
p3189
sg8
Vnot contain
p3190
sa(dp3191
g2
Vbhupalam
p3192
sg4
Vmadhyamam
p3193
sg6
VBhupalam is a symmetric ragam that does not contain madhyamam or nishadham.\u000a
p3194
sg8
g3190
sa(dp3195
g2
Vakshipthika
p3196
sg4
Valapana
p3197
sg6
VIn Carnatic music, the Akshipthika is the first part or the introductory part of the alapana.\u000a
p3198
sg8
Vpart of
p3199
sa(dp3200
g2
Vakshipthika
p3201
sg4
Vintroductory part
p3202
sg6
VIn Carnatic music, the Akshipthika is the first part or the introductory part of the alapana.\u000a
p3203
sg8
S'is a'
p3204
sa(dp3205
g2
Vakshipthika
p3206
sg4
Vpart
p3207
sg6
VIn Carnatic music, the Akshipthika is the first part or the introductory part of the alapana.\u000a
p3208
sg8
S'is a'
p3209
sa(dp3210
g2
Vakshipthika
p3211
sg4
Vfirst part
p3212
sg6
VIn Carnatic music, the Akshipthika is the first part or the introductory part of the alapana.\u000a
p3213
sg8
S'is a'
p3214
sa(dp3215
g2
Vakshipthika
p3216
sg4
g3197
sg6
VIn Carnatic music, the Akshipthika is the first part or the introductory part of the alapana.\u000a
p3217
sg8
Vpart of
p3218
sa(dp3219
g2
Vakshipthika
p3220
sg4
Vraagam
p3221
sg6
VAkshipthika is the introduction to the raagam.\u000a
p3222
sg8
Vintroduction to
p3223
sa(dp3224
g2
Vakshipthika
p3225
sg4
Vintroduction
p3226
sg6
VAkshipthika is the introduction to the raagam.\u000a
p3227
sg8
S'is a'
p3228
sa(dp3229
g2
Vasaveri
p3230
sg4
Vmusic
p3231
sg6
VAsaveri is a ragam in Carnatic music.\u000a
p3232
sg8
Vragam in
p3233
sa(dp3234
g2
Vasaveri
p3235
sg4
Vragam
p3236
sg6
VAsaveri is a ragam in Carnatic music.\u000a
p3237
sg8
S'is a'
p3238
sa(dp3239
g2
Vasaveri
p3240
sg4
Vsangita_ratnakara
p3241
sg6
VAsaveri is an ancient ragam, which is mentioned in the Sangita Ratnakara.\u000a
p3242
sg8
Vmention in
p3243
sa(dp3244
g2
Vasaveri
p3245
sg4
Vancient ragam
p3246
sg6
VAsaveri is an ancient ragam, which is mentioned in the Sangita Ratnakara.\u000a
p3247
sg8
S'is a'
p3248
sa(dp3249
g2
Vasaveri
p3250
sg4
Vragam
p3251
sg6
VAsaveri is an ancient ragam, which is mentioned in the Sangita Ratnakara.\u000a
p3252
sg8
S'is a'
p3253
sa(dp3254
g2
Vasaveri
p3255
sg4
Vkomal_asavari
p3256
sg6
VAsaveri resembles Komal Asavari and Asa Todi of Hindustani classical music.\u000a
p3257
sg8
Vresemble
p3258
sa(dp3259
g2
Vasaveri
p3260
sg4
Vnishadam
p3261
sg6
VAsaveri is an asymmetric ragam that does not contain gandharam and nishadam in the ascending scale.\u000a
p3262
sg8
Vnot contain
p3263
sa(dp3264
g2
Vasaveri
p3265
sg4
Vgandharam
p3266
sg6
VAsaveri is an asymmetric ragam that does not contain gandharam and nishadam in the ascending scale.\u000a
p3267
sg8
g3263
sa(dp3268
g2
Vasaveri
p3269
sg4
Vasymmetric ragam
p3270
sg6
VAsaveri is an asymmetric ragam that does not contain gandharam and nishadam in the ascending scale.\u000a
p3271
sg8
S'is a'
p3272
sa(dp3273
g2
Vasaveri
p3274
sg4
Vragam
p3275
sg6
VAsaveri is an asymmetric ragam that does not contain gandharam and nishadam in the ascending scale.\u000a
p3276
sg8
S'is a'
p3277
sa(dp3278
g2
Vsthai
p3279
sg4
Voctave
p3280
sg6
VIn Carnatic music, Sthai refers to the octave, especially in the Telugu language.\u000a
p3281
sg8
Vrefer to
p3282
sa(dp3283
g2
Vsthai
p3284
sg4
Vmusic
p3285
sg6
VIn Carnatic music, Sthai refers to the octave, especially in the Telugu language.\u000a
p3286
sg8
Vrefer in
p3287
sa(dp3288
g2
Vsthai
p3289
sg4
Vlanguage
p3290
sg6
VIn Carnatic music, Sthai refers to the octave, especially in the Telugu language.\u000a
p3291
sg8
Vrefer in
p3292
sa(dp3293
g2
Valapana
p3294
sg4
Vpreface
p3295
sg6
VAlapana is a preface to a song, which explores the ragam of the song, without any lyrics.\u000a
p3296
sg8
S'is a'
p3297
sa(dp3298
g2
Valapana
p3299
sg4
Vsong
p3300
sg6
VAlapana is a preface to a song, which explores the ragam of the song, without any lyrics.\u000a
p3301
sg8
Vpreface to
p3302
sa(dp3303
g2
Vkalpanaswaram
p3304
sg4
Vimagined swaram
p3305
sg6
VKalpanaswaram literally means imagined swarams.\u000a
p3306
sg8
Vmean
p3307
sa(dp3308
g2
Vtanam
p3309
sg4
V/ improvisation
p3310
sg6
VTanam is rhythmic / rhythm based improvisation of the ragam.\u000a
p3311
sg8
S'is a'
p3312
sa(dp3313
g2
Vtanam
p3314
sg4
Vrhythmic improvisation
p3315
sg6
VTanam is rhythmic / rhythm based improvisation of the ragam.\u000a
p3316
sg8
S'is a'
p3317
sa(dp3318
g2
Vtanam
p3319
sg4
Vrhythm improvisation
p3320
sg6
VTanam is rhythmic / rhythm based improvisation of the ragam.\u000a
p3321
sg8
S'is a'
p3322
sa(dp3323
g2
Vtanam
p3324
sg4
Vimprovisation
p3325
sg6
VTanam is rhythmic / rhythm based improvisation of the ragam.\u000a
p3326
sg8
S'is a'
p3327
sa(dp3328
g2
Vtanam
p3329
sg4
Vragam
p3330
sg6
VTanam is rhythmic / rhythm based improvisation of the ragam.\u000a
p3331
sg8
Vimprovisation of
p3332
sa(dp3333
g2
Vtanam
p3334
sg4
Vpallavi
p3335
sg6
VIt consists of Ragam Alapana, Tanam and a Pallavi line.\u000a
p3336
sg8
Vline 's
p3337
sa(dp3338
g2
Vtanam
p3339
sg4
Vline
p3340
sg6
VIt consists of Ragam Alapana, Tanam and a Pallavi line.\u000a
p3341
sg8
S'is a'
p3342
sa(dp3343
g2
Vviruttam
p3344
sg4
Vdevotional sung
p3345
sg6
VViruttam is a devotional verse or phrase sung in an impromptu choice of ragam or ragamalika usually before a song.\u000a
p3346
sg8
S'is a'
p3347
sa(dp3348
g2
Vviruttam
p3349
sg4
Vverse
p3350
sg6
VViruttam is a devotional verse or phrase sung in an impromptu choice of ragam or ragamalika usually before a song.\u000a
p3351
sg8
S'is a'
p3352
sa(dp3353
g2
Vviruttam
p3354
sg4
Vphrase sung
p3355
sg6
VViruttam is a devotional verse or phrase sung in an impromptu choice of ragam or ragamalika usually before a song.\u000a
p3356
sg8
S'is a'
p3357
sa(dp3358
g2
Vviruttam
p3359
sg4
Vsung
p3360
sg6
VViruttam is a devotional verse or phrase sung in an impromptu choice of ragam or ragamalika usually before a song.\u000a
p3361
sg8
S'is a'
p3362
sa(dp3363
g2
Vviruttam
p3364
sg4
Vdevotional verse
p3365
sg6
VViruttam is a devotional verse or phrase sung in an impromptu choice of ragam or ragamalika usually before a song.\u000a
p3366
sg8
S'is a'
p3367
sa(dp3368
g2
Vsthai
p3369
sg4
Voctave
p3370
sg6
VSthai refers to an octave of music.\u000a
p3371
sg8
Vrefer to
p3372
sa(dp3373
g2
Vpallavi
p3374
sg4
Vverse
p3375
sg6
VPallavi is the first verse in a composition, especially varanams, Keerthanams or Kritis.\u000a
p3376
sg8
S'is a'
p3377
sa(dp3378
g2
Vpallavi
p3379
sg4
Vfirst verse
p3380
sg6
VPallavi is the first verse in a composition, especially varanams, Keerthanams or Kritis.\u000a
p3381
sg8
S'is a'
p3382
sa(dp3383
g2
Vpallavi
p3384
sg4
Vcomposition
p3385
sg6
VPallavi is the first verse in a composition, especially varanams, Keerthanams or Kritis.\u000a
p3386
sg8
Vverse in
p3387
sa(dp3388
g2
Vanupallavi
p3389
sg4
Vpallavus
p3390
sg6
VAnupallavi is an optional verse that follows the pallavi in a composition, especially keerthanams or kritis.\u000a
p3391
sg8
Vfollow
p3392
sa(dp3393
g2
Vanupallavi
p3394
sg4
Vverse
p3395
sg6
VAnupallavi is an optional verse that follows the pallavi in a composition, especially keerthanams or kritis.\u000a
p3396
sg8
S'is a'
p3397
sa(dp3398
g2
Vanupallavi
p3399
sg4
Voptional verse
p3400
sg6
VAnupallavi is an optional verse that follows the pallavi in a composition, especially keerthanams or kritis.\u000a
p3401
sg8
S'is a'
p3402
sa(dp3403
g2
Vcharanam
p3404
sg4
Vanupallavus
p3405
sg6
VCharanams are the verse that follow the pallavi or anupallavi.\u000a
p3406
sg8
Vfollow
p3407
sa(dp3408
g2
g3404
sg4
Vpallavus
p3409
sg6
VCharanams are the verse that follow the pallavi or anupallavi.\u000a
p3410
sg8
g3407
sa(dp3411
g2
Vlalgudi vijayalakshmi
p3412
sg4
Vviolinist
p3413
sg6
VLalgudi Vijayalakshmi is a well-known Carnatic violinist, vocalist and composer.\u000a
p3414
sg8
S'is a'
p3415
sa(dp3416
g2
Vlalgudi vijayalakshmi
p3417
sg4
Vwell-known carnatic
p3418
sg6
VLalgudi Vijayalakshmi is a well-known Carnatic violinist, vocalist and composer.\u000a
p3419
sg8
Vviolinist 's
p3420
sa(dp3421
g2
Vlalgudi vijayalakshmi
p3422
sg4
Vlalgudi_jayaraman
p3423
sg6
VLalgudi Vijayalakshmi was born in Chennai to violin maestro, Lalgudi Jayaraman.\u000a
p3424
sg8
Vbear to
p3425
sa(dp3426
g2
Vlalgudi vijayalakshmi
p3427
sg4
Vviolin maestro
p3428
sg6
VLalgudi Vijayalakshmi was born in Chennai to violin maestro, Lalgudi Jayaraman.\u000a
p3429
sg8
Vbear to
p3430
sa(dp3431
g2
Vlalgudi vijayalakshmi
p3432
sg4
Vchennai
p3433
sg6
VLalgudi Vijayalakshmi was born in Chennai to violin maestro, Lalgudi Jayaraman.\u000a
p3434
sg8
Vbear in
p3435
sa(dp3436
g2
Vlalgudi vijayalakshmi
p3437
sg4
V1979
p3438
sg6
VLalgudi Vijayalakshmi debuted in 1979.\u000a
p3439
sg8
Vdebut in
p3440
sa(dp3441
g2
Vsangeetha kalasarathy
p3442
sg4
Vtitle
p3443
sg6
VSangeetha Kalasarathy, is the title awarded yearly by Parthasarathy Swami Sabha for Carnatic Music expert.\u000a
p3444
sg8
S'is a'
p3445
sa(dp3446
g2
Vsangeetha kalasarathy
p3447
sg4
Vexpert
p3448
sg6
VSangeetha Kalasarathy, is the title awarded yearly by Parthasarathy Swami Sabha for Carnatic Music expert.\u000a
p3449
sg8
Vaward by
p3450
sa(dp3451
g2
Vjalarnavam
p3452
sg4
Vragam
p3453
sg6
VJalarnavam is a ragam in Carnatic music.\u000a
p3454
sg8
S'is a'
p3455
sa(dp3456
g2
Vjalarnavam
p3457
sg4
Vmusic
p3458
sg6
VJalarnavam is a ragam in Carnatic music.\u000a
p3459
sg8
Vragam in
p3460
sa(dp3461
g2
Vjalarnavam
p3462
sg4
Vminor ragam
p3463
sg6
VJalarnavam has a minor janya ragam associated with it.\u000a
p3464
sg8
Vhave
p3465
sa(dp3466
g2
Vnatabhairavi
p3467
sg4
Vmusic
p3468
sg6
VNatabhairavi is a ragam in Carnatic music.\u000a
p3469
sg8
Vragam in
p3470
sa(dp3471
g2
Vnatabhairavi
p3472
sg4
Vragam
p3473
sg6
VNatabhairavi is a ragam in Carnatic music.\u000a
p3474
sg8
S'is a'
p3475
sa(dp3476
g2
Vnatabhairavi
p3477
sg4
Vthaat
p3478
sg6
VNatabhairavi corresponds to the Asavari thaat of Hindustani music.\u000a
p3479
sg8
Vcorrespond to
p3480
sa(dp3481
g2
Vnatabhairavi
p3482
sg4
Vragam
p3483
sg6
VNatabhairavi is known to be a ragam that incites feelings of grandeur and devotion in the listeners.\u000a
p3484
sg8
Vbe
p3485
sa(dp3486
g2
Vvenkatamakhin
p3487
sg4
Voriginal list
p3488
sg6
VNariritigowla is the 20th Melakarta in the original list compiled by Venkatamakhin.\u000a
p3489
sg8
Vcompile
p3490
sa(dp3491
g2
Vmuthuswami dikshitar
p3492
sg4
Vcomposition sri_neelotpalanayike
p3493
sg6
VMuthuswami Dikshitar s composition Sri Neelotpalanayike is set to Nariritigowla.\u000a
p3494
sg8
g843
sa(dp3495
g2
Vvenkatamakhin
p3496
sg4
Vson
p3497
sg6
VVenkatamakhin was the son of Govinda Dikshita, a Kannada Brahmin from Mysore.\u000a
p3498
sg8
S'is a'
p3499
sa(dp3500
g2
Vvenkatamakhin
p3501
sg4
Vkannada_brahmin
p3502
sg6
VVenkatamakhin was the son of Govinda Dikshita, a Kannada Brahmin from Mysore.\u000a
p3503
sg8
Vson of
p3504
sa(dp3505
g2
Vvenkatamakhin
p3506
sg4
Vgovinda_dikshita
p3507
sg6
VVenkatamakhin was the son of Govinda Dikshita, a Kannada Brahmin from Mysore.\u000a
p3508
sg8
Vson of
p3509
sa(dp3510
g2
Vvenkatamakhin
p3511
sg4
Vformal training
p3512
sg6
VVenkatamakhin received his formal training under his elder brother, Yagnanarayana Dikshita.\u000a
p3513
sg8
Vreceive
p3514
sa(dp3515
g2
Vshamalangi
p3516
sg4
Vcouple
p3517
sg6
VShamalangi has a couple of minor janya ragams associated with it.\u000a
p3518
sg8
Vhave
p3519
sa(dp3520
g2
Vsivamani
p3521
sg4
Vson
p3522
sg6
VSivamani is the son of S. M. Anandan, a Chennai - based percussionist.\u000a
p3523
sg8
S'is a'
p3524
sa(dp3525
g2
Vsivamani
p3526
sg4
Vs._m._anandan
p3527
sg6
VSivamani is the son of S. M. Anandan, a Chennai - based percussionist.\u000a
p3528
sg8
Vson of
p3529
sa(dp3530
g2
Vsivamani
p3531
sg4
Vmumbai
p3532
sg6
VSivamani started his musical career at the age of 11, and later shifted to Mumbai.\u000a
p3533
sg8
Vshift to
p3534
sa(dp3535
g2
Vsivamani
p3536
sg4
Vhis career
p3537
sg6
VSivamani started his musical career at the age of 11, and later shifted to Mumbai.\u000a
p3538
sg8
Vstart
p3539
sa(dp3540
g2
Vsivamani
p3541
sg4
Vseveral musician
p3542
sg6
VSivamani has since collaborated with several musicians including Louis Banks.\u000a
p3543
sg8
Vcollaborate with
p3544
sa(dp3545
g2
Vsivamani
p3546
sg4
Vdrum
p3547
sg6
VSivamani has played drums for many film score composers hailing from Tamil Nadu.\u000a
p3548
sg8
Vplay
p3549
sa(dp3550
g2
Vsivamani
p3551
sg4
Vtamil_nadu
p3552
sg6
VSivamani has played drums for many film score composers hailing from Tamil Nadu.\u000a
p3553
sg8
Vhail from
p3554
sa(dp3555
g2
Vsivamani
p3556
sg4
Vdubai
p3557
sg6
VSivamani has performed in Dubai, Moscow, New York, Doha and Toronto.\u000a
p3558
sg8
Vperform in
p3559
sa(dp3560
g2
Vsivamani
p3561
sg4
Vrecipient
p3562
sg6
VSivamani is the recipient of Kalaimamani award announced by the Tamil Nadu Government in 2009.\u000a
p3563
sg8
S'is a'
p3564
sa(dp3565
g2
Vsivamani
p3566
sg4
Vaward
p3567
sg6
VSivamani is the recipient of Kalaimamani award announced by the Tamil Nadu Government in 2009.\u000a
p3568
sg8
Vrecipient of
p3569
sa(dp3570
g2
Vkalpanaswaram
p3571
sg4
Vraga
p3572
sg6
VAfter singing the opening kriti, usually, the performer sings the kalpanaswaram of the raga to the beat.\u000a
p3573
sg8
Vkalpanaswaram of
p3574
sa(dp3575
g2
Vrama ravi
p3576
sg4
Vrecipient
p3577
sg6
VRama Ravi is a Carnatic vocalist and recipient of the Sangita Kala Acharya award from the Madras Music Academy.\u000a
p3578
sg8
S'is a'
p3579
sa(dp3580
g2
Vrama ravi
p3581
sg4
Vcarnatic vocalist
p3582
sg6
VRama Ravi is a Carnatic vocalist and recipient of the Sangita Kala Acharya award from the Madras Music Academy.\u000a
p3583
sg8
S'is a'
p3584
sa(dp3585
g2
Vrama ravi
p3586
sg4
Vcarnatic recipient
p3587
sg6
VRama Ravi is a Carnatic vocalist and recipient of the Sangita Kala Acharya award from the Madras Music Academy.\u000a
p3588
sg8
S'is a'
p3589
sa(dp3590
g2
Vrama ravi
p3591
sg4
Vvocalist
p3592
sg6
VRama Ravi is a Carnatic vocalist and recipient of the Sangita Kala Acharya award from the Madras Music Academy.\u000a
p3593
sg8
S'is a'
p3594
sa(dp3595
g2
Vrama ravi
p3596
sg4
Vaward
p3597
sg6
VRama Ravi is a Carnatic vocalist and recipient of the Sangita Kala Acharya award from the Madras Music Academy.\u000a
p3598
sg8
Vvocalist of
p3599
sa(dp3600
g2
Vrama ravi
p3601
sg4
Vm.r._subramania_iyer
p3602
sg6
VRama Ravi was born to Thulasi and M.R. Subramania Iyer, on 12 February 1943 in Chennai.\u000a
p3603
sg8
Vbear to
p3604
sa(dp3605
g2
Vrama ravi
p3606
sg4
Vthulasi
p3607
sg6
VRama Ravi was born to Thulasi and M.R. Subramania Iyer, on 12 February 1943 in Chennai.\u000a
p3608
sg8
Vbear to
p3609
sa(dp3610
g2
Vrama ravi
p3611
sg4
V12_february_1943
p3612
sg6
VRama Ravi was born to Thulasi and M.R. Subramania Iyer, on 12 February 1943 in Chennai.\u000a
p3613
sg8
Vbear on
p3614
sa(dp3615
g2
Vrama ravi
p3616
sg4
Vchennai
p3617
sg6
VRama Ravi was born to Thulasi and M.R. Subramania Iyer, on 12 February 1943 in Chennai.\u000a
p3618
sg8
Vbear in
p3619
sa(dp3620
g2
Vvyasatirtha
p3621
sg4
Vtime
p3622
sg6
VVyasatirtha did not had any time studying much under his Guru Brahmanya.\u000a
p3623
sg8
Vnot have
p3624
sa(dp3625
g2
Vvyasatirtha
p3626
sg4
Vseveral year
p3627
sg6
VVyasatirtha is believed to have studied for several years under Shripadaraja.\u000a
p3628
sg8
Vstudy for
p3629
sa(dp3630
g2
Vvyasatirtha
p3631
sg4
Vtime
p3632
sg6
VIt was during the time of Krishnadevaraya that Vyasatirtha saw the peak of his influence over the empire.\u000a
p3633
sg8
Vsee
p3634
sa(dp3635
g2
Vvyasatirtha
p3636
sg4
Vsystem
p3637
sg6
VVyasatirtha was almost the second Founder of the system of Madhva.\u000a
p3638
sg8
Vfounder of
p3639
sa(dp3640
g2
Vvyasatirtha
p3641
sg4
Vsecond founder
p3642
sg6
VVyasatirtha was almost the second Founder of the system of Madhva.\u000a
p3643
sg8
S'is a'
p3644
sa(dp3645
g2
Vvyasatirtha
p3646
sg4
Vfounder
p3647
sg6
VVyasatirtha was almost the second Founder of the system of Madhva.\u000a
p3648
sg8
S'is a'
p3649
sa(dp3650
g2
Vvyasatirtha
p3651
sg4
Vkannada
p3652
sg6
VVyasatirtha was a Psalmist in Kannada and had composed many beautiful songs in his mother tongue Kannada.\u000a
p3653
sg8
Vpsalmist in
p3654
sa(dp3655
g2
Vvyasatirtha
p3656
sg4
Vmany song
p3657
sg6
VVyasatirtha was a Psalmist in Kannada and had composed many beautiful songs in his mother tongue Kannada.\u000a
p3658
sg8
Vcompose
p3659
sa(dp3660
g2
Vvyasatirtha
p3661
sg4
Vpsalmist
p3662
sg6
VVyasatirtha was a Psalmist in Kannada and had composed many beautiful songs in his mother tongue Kannada.\u000a
p3663
sg8
S'is a'
p3664
sa(dp3665
g2
Vvyasatirtha
p3666
sg4
Vdate
p3667
sg6
VIn his own inimitable way, Vyasatirtha has undertaken thorough and up to date examination of his school and Nyaya-Vaishesika.\u000a
p3668
sg8
Vup to
p3669
sa(dp3670
g2
Vvyasatirtha
p3671
sg4
Vexamination
p3672
sg6
VIn his own inimitable way, Vyasatirtha has undertaken thorough and up to date examination of his school and Nyaya-Vaishesika.\u000a
p3673
sg8
Vundertake
p3674
sa(dp3675
g2
Vnamanarayani
p3676
sg4
Vragam
p3677
sg6
VNamanarayani is a ragam in Carnatic music.\u000a
p3678
sg8
S'is a'
p3679
sa(dp3680
g2
Vnamanarayani
p3681
sg4
Vmusic
p3682
sg6
VNamanarayani is a ragam in Carnatic music.\u000a
p3683
sg8
Vragam in
p3684
sa(dp3685
g2
Vnamanarayani
p3686
sg4
Vfew scale
p3687
sg6
VNamanarayani has a few minor derived scales associated with it.\u000a
p3688
sg8
Vhave
p3689
sa(dp3690
g2
Vdevagandhari
p3691
sg4
Vindian music
p3692
sg6
VDevagandhari is a raga in Indian classical music.\u000a
p3693
sg8
Vraga in
p3694
sa(dp3695
g2
Vdevagandhari
p3696
sg4
Vraga
p3697
sg6
VDevagandhari is a raga in Indian classical music.\u000a
p3698
sg8
S'is a'
p3699
sa(dp3700
g2
Varabhi
p3701
sg4
Vone
p3702
sg6
VThe closest raga to this one is Arabhi.\u000a
p3703
sg8
Vraga to
p3704
sa(dp3705
g2
Varabhi
p3706
sg4
Vclosest raga
p3707
sg6
VThe closest raga to this one is Arabhi.\u000a
p3708
sg8
S'is a'
p3709
sa(dp3710
g2
Varabhi
p3711
sg4
Vraga
p3712
sg6
VThe closest raga to this one is Arabhi.\u000a
p3713
sg8
S'is a'
p3714
sa(dp3715
g2
Vdevagandhari
p3716
sg4
Vraginus
p3717
sg6
VIn the Ragmala, Devagandhari is a ragini of Malkaunsa.\u000a
p3718
sg8
S'is a'
p3719
sa(dp3720
g2
Vdevagandhari
p3721
sg4
Vmalkaunsa
p3722
sg6
VIn the Ragmala, Devagandhari is a ragini of Malkaunsa.\u000a
p3723
sg8
Vraginus of
p3724
sa(dp3725
g2
Vvenu
p3726
sg4
Vgod krishna
p3727
sg6
VThe venu is associated with the Hindu god Krishna, who is often depicted playing it.\u000a
p3728
sg8
Vassociate with
p3729
sa(dp3730
g2
Vthavil
p3731
sg4
Vcylindrical shell
p3732
sg6
VThe thavil consists of a cylindrical shell hollowed out of a solid block of jackfruit wood.\u000a
p3733
sg8
Vconsist of
p3734
sa(dp3735
g2
Vgangeyabhushani
p3736
sg4
Vragam
p3737
sg6
VGangeyabhushani is a ragam in Carnatic music.\u000a
p3738
sg8
S'is a'
p3739
sa(dp3740
g2
Vgangeyabhushani
p3741
sg4
Vmusic
p3742
sg6
VGangeyabhushani is a ragam in Carnatic music.\u000a
p3743
sg8
Vragam in
p3744
sa(dp3745
g2
Vgangeyabhushani
p3746
sg4
Vjanya
p3747
sg6
VGangeyabhushani currently has no janya ragams associated with it.\u000a
p3748
sg8
Vhave
p3749
sa(dp3750
g2
g3747
sg4
Vit
p3751
sg6
VGangeyabhushani currently has no janya ragams associated with it.\u000a
p3752
sg8
Vassociate with
p3753
sa(dp3754
g2
Vjanya
p3755
sg4
Vmelakarta th natabhairavi
p3756
sg6
VIt is considered a janya of the 20th melakarta Natabhairavi.\u000a
p3757
sg8
Vjanya of
p3758
sa(dp3759
g2
Vsaraswati veena
p3760
sg4
Vkinnari_veena
p3761
sg6
VThe Saraswati veena developed from Kinnari Veena.\u000a
p3762
sg8
Vdevelop from
p3763
sa(dp3764
g2
Vnandini muthuswamy
p3765
sg4
Vviolinist
p3766
sg6
VNandini Muthuswamy is a Carnatic violinist from South India.\u000a
p3767
sg8
S'is a'
p3768
sa(dp3769
g2
Vnandini muthuswamy
p3770
sg4
Vcarnatic violinist
p3771
sg6
VNandini Muthuswamy is a Carnatic violinist from South India.\u000a
p3772
sg8
S'is a'
p3773
sa(dp3774
g2
Vnandini muthuswamy
p3775
sg4
Vsouth_india
p3776
sg6
VNandini Muthuswamy is a Carnatic violinist from South India.\u000a
p3777
sg8
Vviolinist from
p3778
sa(dp3779
g2
Vrasikapriya
p3780
sg4
Vragam
p3781
sg6
VRasikapriya is a ragam in Carnatic music.\u000a
p3782
sg8
S'is a'
p3783
sa(dp3784
g2
Vrasikapriya
p3785
sg4
Vmusic
p3786
sg6
VRasikapriya is a ragam in Carnatic music.\u000a
p3787
sg8
Vragam in
p3788
sa(dp3789
g2
Vrasikapriya
p3790
sg4
Vminor ragam
p3791
sg6
VRasikapriya has a few minor janya ragams associated with it.\u000a
p3792
sg8
Vhave
p3793
sa(dp3794
g2
Vdarbari kanada
p3795
sg4
Vragam
p3796
sg6
VDarbari kanada resembles Kanada ragam, and is suitable for Thillanas, Bhajans and other light melodies.\u000a
p3797
sg8
Vresemble
p3798
sa(dp3799
g2
Vabheri
p3800
sg4
Vmusic
p3801
sg6
VAbheri is a raga in Carnatic music.\u000a
p3802
sg8
Vraga in
p3803
sa(dp3804
g2
Vabheri
p3805
sg4
Vraga
p3806
sg6
VAbheri is a raga in Carnatic music.\u000a
p3807
sg8
S'is a'
p3808
sa(dp3809
g2
Vkharaharapriya
p3810
sg4
Vmelakarta
p3811
sg6
VIt is a Janya raga, whose Melakarta raga is Kharaharapriya, 22nd in the 72 Melakarta raga system.\u000a
p3812
sg8
Vraga 's
p3813
sa(dp3814
g2
Vkharaharapriya
p3815
sg4
Vraga system
p3816
sg6
VIt is a Janya raga, whose Melakarta raga is Kharaharapriya, 22nd in the 72 Melakarta raga system.\u000a
p3817
sg8
Vnd in
p3818
sa(dp3819
g2
Vkharaharapriya
p3820
sg4
Vraga
p3821
sg6
VIt is a Janya raga, whose Melakarta raga is Kharaharapriya, 22nd in the 72 Melakarta raga system.\u000a
p3822
sg8
S'is a'
p3823
sa(dp3824
g2
Vkharaharapriya
p3825
sg4
Vnd
p3826
sg6
VIt is a Janya raga, whose Melakarta raga is Kharaharapriya, 22nd in the 72 Melakarta raga system.\u000a
p3827
sg8
S'is a'
p3828
sa(dp3829
g2
Vabheri
p3830
sg4
Vraga
p3831
sg6
VAbheri is an audava-sampoorna raga.\u000a
p3832
sg8
S'is a'
p3833
sa(dp3834
g2
Vabheri
p3835
sg4
Vaudava-sampoorna raga
p3836
sg6
VAbheri is an audava-sampoorna raga.\u000a
p3837
sg8
S'is a'
p3838
sa(dp3839
g2
Vmuthuswami dikshitar
p3840
sg4
Vveenabheri
p3841
sg6
VMuthuswami Dikshitar has composed Veenabheri in this raga.\u000a
p3842
sg8
Vcompose
p3843
sa(dp3844
g2
Vgambhiranata
p3845
sg4
Vmusic
p3846
sg6
VGambhiranata is a raga in Carnatic music.\u000a
p3847
sg8
Vraga in
p3848
sa(dp3849
g2
Vgambhiranata
p3850
sg4
Vraga
p3851
sg6
VGambhiranata is a raga in Carnatic music.\u000a
p3852
sg8
S'is a'
p3853
sa(dp3854
g2
Vgambhiranata
p3855
sg4
Vshuddha_nata
p3856
sg6
VGambhiranata is also known as Shuddha Nata.\u000a
p3857
sg8
Vknow as
p3858
sa(dp3859
g2
Vgambhiranata
p3860
sg4
Vdhaivatam
p3861
sg6
VGambhiranata is a symmetric raga that does not contain rishabham or dhaivatam.\u000a
p3862
sg8
Vnot contain
p3863
sa(dp3864
g2
Vgambhiranata
p3865
sg4
Vrishabham
p3866
sg6
VGambhiranata is a symmetric raga that does not contain rishabham or dhaivatam.\u000a
p3867
sg8
g3863
sa(dp3868
g2
Vgambhiranata
p3869
sg4
Vsymmetric raga
p3870
sg6
VGambhiranata is a symmetric raga that does not contain rishabham or dhaivatam.\u000a
p3871
sg8
S'is a'
p3872
sa(dp3873
g2
Vgambhiranata
p3874
sg4
Vraga
p3875
sg6
VGambhiranata is a symmetric raga that does not contain rishabham or dhaivatam.\u000a
p3876
sg8
S'is a'
p3877
sa(dp3878
g2
Vsalagam
p3879
sg4
Vragam
p3880
sg6
VSalagam is a ragam in Carnatic music.\u000a
p3881
sg8
S'is a'
p3882
sa(dp3883
g2
Vsalagam
p3884
sg4
Vmusic
p3885
sg6
VSalagam is a ragam in Carnatic music.\u000a
p3886
sg8
Vragam in
p3887
sa(dp3888
g2
Vsalagam
p3889
sg4
Vmelakarta ragam
p3890
sg6
VAs Salagam is a melakarta ragam, by definition it is a sampoorna ragam.\u000a
p3891
sg8
S'is a'
p3892
sa(dp3893
g2
Vsalagam
p3894
sg4
Vragam
p3895
sg6
VAs Salagam is a melakarta ragam, by definition it is a sampoorna ragam.\u000a
p3896
sg8
S'is a'
p3897
sa(dp3898
g2
Vkanakangi
p3899
sg4
Vmelakarta
p3900
sg6
VIt is the prati madhyamam equivalent of Kanakangi, which is the first melakarta.\u000a
p3901
sg8
S'is a'
p3902
sa(dp3903
g2
Vkanakangi
p3904
sg4
Vfirst melakarta
p3905
sg6
VIt is the prati madhyamam equivalent of Kanakangi, which is the first melakarta.\u000a
p3906
sg8
S'is a'
p3907
sa(dp3908
g2
Vsalagam
p3909
sg4
Vminor ragam
p3910
sg6
VSalagam has a minor janya ragam associated with it.\u000a
p3911
sg8
Vhave
p3912
sa(dp3913
g2
Vkalyanavasantam
p3914
sg4
Vragam
p3915
sg6
VKalyanavasantam is a ragam in Carnatic music.\u000a
p3916
sg8
S'is a'
p3917
sa(dp3918
g2
Vkalyanavasantam
p3919
sg4
Vmusic
p3920
sg6
VKalyanavasantam is a ragam in Carnatic music.\u000a
p3921
sg8
Vragam in
p3922
sa(dp3923
g2
Vkalyanavasantam
p3924
sg4
Vasymmetric ragam
p3925
sg6
VKalyanavasantam is an asymmetric ragam that does not contain rishabham or panchamam in the ascending scale.\u000a
p3926
sg8
S'is a'
p3927
sa(dp3928
g2
Vkalyanavasantam
p3929
sg4
Vragam
p3930
sg6
VKalyanavasantam is an asymmetric ragam that does not contain rishabham or panchamam in the ascending scale.\u000a
p3931
sg8
S'is a'
p3932
sa(dp3933
g2
Vkalyanavasantam
p3934
sg4
Vpanchamam
p3935
sg6
VKalyanavasantam is an asymmetric ragam that does not contain rishabham or panchamam in the ascending scale.\u000a
p3936
sg8
Vnot contain
p3937
sa(dp3938
g2
Vkalyanavasantam
p3939
sg4
Vrishabham
p3940
sg6
VKalyanavasantam is an asymmetric ragam that does not contain rishabham or panchamam in the ascending scale.\u000a
p3941
sg8
g3937
sa(dp3942
g2
Vgraha bhedam
p3943
sg4
Vragam
p3944
sg6
VGraha Bhedam can be applied on most Melakarta ragams to yield other Melakarta ragams.\u000a
p3945
sg8
Vapply on
p3946
sa(dp3947
g2
Vgraha bhedam
p3948
sg4
Vragam
p3949
sg6
VGraha Bhedam can be applied on most Melakarta ragams to yield other Melakarta ragams.\u000a
p3950
sg8
Vyield
p3951
sa(dp3952
g2
Vvarunapriya
p3953
sg4
Vderivative
p3954
sg6
VThe Graha Bhedam derivative of Ragavardhini is Varunapriya and vice-versa.\u000a
p3955
sg8
S'is a'
p3956
sa(dp3957
g2
Vvarunapriya
p3958
sg4
Vvice-versa
p3959
sg6
VThe Graha Bhedam derivative of Ragavardhini is Varunapriya and vice-versa.\u000a
p3960
sg8
S'is a'
p3961
sa(dp3962
g2
Vvarunapriya
p3963
sg4
Vragavardhini
p3964
sg6
VThe Graha Bhedam derivative of Ragavardhini is Varunapriya and vice-versa.\u000a
p3965
sg8
Vderivative of
p3966
sa(dp3967
g2
Vvarunapriya
p3968
sg4
Vgraha bhedam
p3969
sg6
VThe Graha Bhedam derivative of Ragavardhini is Varunapriya and vice-versa.\u000a
p3970
sg8
Vderivative 's
p3971
sa(dp3972
g2
Vmararanjani
p3973
sg4
Vvanaspati
p3974
sg6
VThe Graha Bhedam derivative of Vanaspati is Mararanjani and vice-versa.\u000a
p3975
sg8
Vderivative of
p3976
sa(dp3977
g2
Vmararanjani
p3978
sg4
Vgraha bhedam
p3979
sg6
VThe Graha Bhedam derivative of Vanaspati is Mararanjani and vice-versa.\u000a
p3980
sg8
Vderivative 's
p3981
sa(dp3982
g2
Vmararanjani
p3983
sg4
Vderivative
p3984
sg6
VThe Graha Bhedam derivative of Vanaspati is Mararanjani and vice-versa.\u000a
p3985
sg8
S'is a'
p3986
sa(dp3987
g2
Vmararanjani
p3988
sg4
Vvice-versa
p3989
sg6
VThe Graha Bhedam derivative of Vanaspati is Mararanjani and vice-versa.\u000a
p3990
sg8
S'is a'
p3991
sa(dp3992
g2
Vkantamani
p3993
sg4
Vmanavati
p3994
sg6
VThe Graha Bhedam derivative of Manavati is Kantamani and vice-versa.\u000a
p3995
sg8
Vderivative of
p3996
sa(dp3997
g2
Vkantamani
p3998
sg4
Vgraha bhedam
p3999
sg6
VThe Graha Bhedam derivative of Manavati is Kantamani and vice-versa.\u000a
p4000
sg8
Vderivative 's
p4001
sa(dp4002
g2
Vkantamani
p4003
sg4
Vderivative
p4004
sg6
VThe Graha Bhedam derivative of Manavati is Kantamani and vice-versa.\u000a
p4005
sg8
S'is a'
p4006
sa(dp4007
g2
Vkantamani
p4008
sg4
Vvice-versa
p4009
sg6
VThe Graha Bhedam derivative of Manavati is Kantamani and vice-versa.\u000a
p4010
sg8
S'is a'
p4011
sa(dp4012
g2
Vrishabhapriya
p4013
sg4
Vderivative
p4014
sg6
VThe Graha Bhedam derivative of Kokilapriya is Rishabhapriya and vice-versa.\u000a
p4015
sg8
S'is a'
p4016
sa(dp4017
g2
Vrishabhapriya
p4018
sg4
Vvice-versa
p4019
sg6
VThe Graha Bhedam derivative of Kokilapriya is Rishabhapriya and vice-versa.\u000a
p4020
sg8
S'is a'
p4021
sa(dp4022
g2
Vrishabhapriya
p4023
sg4
Vkokilapriya
p4024
sg6
VThe Graha Bhedam derivative of Kokilapriya is Rishabhapriya and vice-versa.\u000a
p4025
sg8
Vderivative of
p4026
sa(dp4027
g2
Vrishabhapriya
p4028
sg4
Vgraha bhedam
p4029
sg6
VThe Graha Bhedam derivative of Kokilapriya is Rishabhapriya and vice-versa.\u000a
p4030
sg8
Vderivative 's
p4031
sa(dp4032
g2
Vdhatuvardani
p4033
sg4
Vderivative
p4034
sg6
VThe Graha Bhedam derivative of Gayakapriya is Dhatuvardani and vice-versa.\u000a
p4035
sg8
S'is a'
p4036
sa(dp4037
g2
Vdhatuvardani
p4038
sg4
Vvice-versa
p4039
sg6
VThe Graha Bhedam derivative of Gayakapriya is Dhatuvardani and vice-versa.\u000a
p4040
sg8
S'is a'
p4041
sa(dp4042
g2
Vdhatuvardani
p4043
sg4
Vgayakapriya
p4044
sg6
VThe Graha Bhedam derivative of Gayakapriya is Dhatuvardani and vice-versa.\u000a
p4045
sg8
Vderivative of
p4046
sa(dp4047
g2
Vdhatuvardani
p4048
sg4
Vgraha bhedam
p4049
sg6
VThe Graha Bhedam derivative of Gayakapriya is Dhatuvardani and vice-versa.\u000a
p4050
sg8
Vderivative 's
p4051
sa(dp4052
g2
Vgavambhodi
p4053
sg4
Vderivative
p4054
sg6
VThe Graha Bhedam derivative of Hatakambari is Gavambhodi and vice-versa.\u000a
p4055
sg8
S'is a'
p4056
sa(dp4057
g2
Vgavambhodi
p4058
sg4
Vvice-versa
p4059
sg6
VThe Graha Bhedam derivative of Hatakambari is Gavambhodi and vice-versa.\u000a
p4060
sg8
S'is a'
p4061
sa(dp4062
g2
Vgavambhodi
p4063
sg4
Vhatakambari
p4064
sg6
VThe Graha Bhedam derivative of Hatakambari is Gavambhodi and vice-versa.\u000a
p4065
sg8
Vderivative of
p4066
sa(dp4067
g2
Vgavambhodi
p4068
sg4
Vgraha bhedam
p4069
sg6
VThe Graha Bhedam derivative of Hatakambari is Gavambhodi and vice-versa.\u000a
p4070
sg8
Vderivative 's
p4071
sa(dp4072
g2
Vneetimati
p4073
sg4
Vgangeyabhooshani
p4074
sg6
VThe graha bhedam derivative of Gangeyabhooshani is Neetimati and vice-versa.\u000a
p4075
sg8
Vderivative of
p4076
sa(dp4077
g2
Vneetimati
p4078
sg4
Vgraha derivative
p4079
sg6
VThe graha bhedam derivative of Gangeyabhooshani is Neetimati and vice-versa.\u000a
p4080
sg8
S'is a'
p4081
sa(dp4082
g2
Vneetimati
p4083
sg4
Vderivative
p4084
sg6
VThe graha bhedam derivative of Gangeyabhooshani is Neetimati and vice-versa.\u000a
p4085
sg8
S'is a'
p4086
sa(dp4087
g2
Vneetimati
p4088
sg4
Vvice-versa
p4089
sg6
VThe graha bhedam derivative of Gangeyabhooshani is Neetimati and vice-versa.\u000a
p4090
sg8
S'is a'
p4091
sa(dp4092
g2
Vneetimati
p4093
sg4
Vbhedam derivative
p4094
sg6
VThe graha bhedam derivative of Gangeyabhooshani is Neetimati and vice-versa.\u000a
p4095
sg8
S'is a'
p4096
sa(dp4097
g2
Vshubhapantuvarali
p4098
sg4
Vchalanata
p4099
sg6
VThe graha bhedam derivative of Chalanata is Shubhapantuvarali and vice-versa.\u000a
p4100
sg8
Vderivative of
p4101
sa(dp4102
g2
Vshubhapantuvarali
p4103
sg4
Vgraha derivative
p4104
sg6
VThe graha bhedam derivative of Chalanata is Shubhapantuvarali and vice-versa.\u000a
p4105
sg8
S'is a'
p4106
sa(dp4107
g2
Vshubhapantuvarali
p4108
sg4
Vderivative
p4109
sg6
VThe graha bhedam derivative of Chalanata is Shubhapantuvarali and vice-versa.\u000a
p4110
sg8
S'is a'
p4111
sa(dp4112
g2
Vshubhapantuvarali
p4113
sg4
Vvice-versa
p4114
sg6
VThe graha bhedam derivative of Chalanata is Shubhapantuvarali and vice-versa.\u000a
p4115
sg8
S'is a'
p4116
sa(dp4117
g2
Vshubhapantuvarali
p4118
sg4
Vbhedam derivative
p4119
sg6
VThe graha bhedam derivative of Chalanata is Shubhapantuvarali and vice-versa.\u000a
p4120
sg8
S'is a'
p4121
sa(dp4122
g2
Valapana
p4123
sg4
Vform
p4124
sg6
VAlapana is a form of melodic improvisation that introduces and develops a raga in Indian classical music.\u000a
p4125
sg8
S'is a'
p4126
sa(dp4127
g2
Valapana
p4128
sg4
Vmelodic improvisation
p4129
sg6
VAlapana is a form of melodic improvisation that introduces and develops a raga in Indian classical music.\u000a
p4130
sg8
Vform of
p4131
sa(dp4132
g2
Valapana
p4133
sg4
Vraga
p4134
sg6
VAlapana is a form of melodic improvisation that introduces and develops a raga in Indian classical music.\u000a
p4135
sg8
Vdevelop
p4136
sa(dp4137
g2
Valapana
p4138
sg4
Vcommunicate
p4139
sg6
VAs a term that is Sanskrit in language, alapana means to speak, address, discourse, communicate.\u000a
p4140
sg8
Vmean
p4141
sa(dp4142
g2
Valapana
p4143
sg4
Vsong
p4144
sg6
VAlapana typically precedes a song that is going to be sung in the same raga.\u000a
p4145
sg8
Vprecede
p4146
sa(dp4147
g2
Valapana
p4148
sg4
Vgradual increase
p4149
sg6
VAlapana is rendered in different speeds, with a gradual increase in tempo.\u000a
p4150
sg8
Vrender with
p4151
sa(dp4152
g2
Valapana
p4153
sg4
Vdifferent speed
p4154
sg6
VAlapana is rendered in different speeds, with a gradual increase in tempo.\u000a
p4155
sg8
Vrender in
p4156
sa(dp4157
g2
Valapana
p4158
sg4
Vcenter stage
p4159
sg6
VIn a concert, alapana typically takes center stage.\u000a
p4160
sg8
Vtake
p4161
sa(dp4162
g2
Vchembai
p4163
sg4
Vtheir house
p4164
sg6
VWhenever he came to Guruvayur, Chembai used to stay at their house.\u000a
p4165
sg8
Vstay at
p4166
sa(dp4167
g2
Vvyasatirtha
p4168
sg4
Vit
p4169
sg6
VIt is composed in Raagam : Yamunaa KalyaaNi by Vyasatirtha.\u000a
p4170
sg8
Vcompose
p4171
sa(dp4172
g2
Verode nagaraj
p4173
sg4
Vinstrument
p4174
sg6
VErode Nagaraj is a professional player of the Mrudangam instrument.\u000a
p4175
sg8
Vplayer of
p4176
sa(dp4177
g2
Verode nagaraj
p4178
sg4
Vplayer
p4179
sg6
VErode Nagaraj is a professional player of the Mrudangam instrument.\u000a
p4180
sg8
S'is a'
p4181
sa(dp4182
g2
Verode nagaraj
p4183
sg4
Vprofessional player
p4184
sg6
VErode Nagaraj is a professional player of the Mrudangam instrument.\u000a
p4185
sg8
S'is a'
p4186
sa(dp4187
g2
Vkharaharapriya
p4188
sg4
Vragam
p4189
sg6
VKharaharapriya is a ragam in Carnatic music.\u000a
p4190
sg8
S'is a'
p4191
sa(dp4192
g2
Vkharaharapriya
p4193
sg4
Vmusic
p4194
sg6
VKharaharapriya is a ragam in Carnatic music.\u000a
p4195
sg8
Vragam in
p4196
sa(dp4197
g2
Vkharaharapriya
p4198
sg4
Vrasam
p4199
sg6
VKharaharapriya has a distinct melody and brings out the Karuna rasam, invoking pathos in the listeners.\u000a
p4200
sg8
Vbring
p4201
sa(dp4202
g2
Vkharaharapriya
p4203
sg4
Vdistinct melody
p4204
sg6
VKharaharapriya has a distinct melody and brings out the Karuna rasam, invoking pathos in the listeners.\u000a
p4205
sg8
g4201
sa(dp4206
g2
Vkharaharapriya
p4207
sg4
Vpathos
p4208
sg6
VKharaharapriya has a distinct melody and brings out the Karuna rasam, invoking pathos in the listeners.\u000a
p4209
sg8
Vinvoke
p4210
sa(dp4211
g2
Vmridangam
p4212
sg4
Vmridanga father vidwan muthukulam_s._kumara_pillai
p4213
sg6
VHe had undergone preliminary lessons in Mridangam from father Mridanga Vidwan Muthukulam S. Kumara Pillai.\u000a
p4214
sg8
Vmridangam from
p4215
sa(dp4216
g2
Vratnangi
p4217
sg4
Vmusic
p4218
sg6
VRatnangi is a ragam in Carnatic music.\u000a
p4219
sg8
Vragam in
p4220
sa(dp4221
g2
Vratnangi
p4222
sg4
Vragam
p4223
sg6
VRatnangi is a ragam in Carnatic music.\u000a
p4224
sg8
S'is a'
p4225
sa(dp4226
g2
Vvenkatamakhin
p4227
sg4
Voriginal list
p4228
sg6
VPhenadhyuti is the 2nd Melakarta in the original list compiled by Venkatamakhin.\u000a
p4229
sg8
Vcompile
p4230
sa(dp4231
g2
Vratnangi
p4232
sg4
Vminor ragam
p4233
sg6
VRatnangi has a few minor janya ragams associated with it, of which Revati is very popular.\u000a
p4234
sg8
Vhave
p4235
sa(dp4236
g2
Vnattakurinji
p4237
sg4
Vraga
p4238
sg6
VNattakurinji is the janya raga of 26th melakarta raja harikambhoji in Carnatic music.\u000a
p4239
sg8
S'is a'
p4240
sa(dp4241
g2
Vnattakurinji
p4242
sg4
Vjanya raga
p4243
sg6
VNattakurinji is the janya raga of 26th melakarta raja harikambhoji in Carnatic music.\u000a
p4244
sg8
S'is a'
p4245
sa(dp4246
g2
Vnattakurinji
p4247
sg4
V26
p4248
sg6
VNattakurinji is the janya raga of 26th melakarta raja harikambhoji in Carnatic music.\u000a
p4249
sg8
Vraga of
p4250
sa(dp4251
g2
Vpurandara dasa
p4252
sg4
Vmethod
p4253
sg6
VPurandara Dasa systematized the method of teaching Carnatic music which is followed to the present day.\u000a
p4254
sg8
Vsystematize
p4255
sa(dp4256
g2
Vpurandara dasa
p4257
sg4
Vfirst composer
p4258
sg6
VPurandara Dasa was the first composer to include comments on ordinary daily life in song compositions.\u000a
p4259
sg8
S'is a'
p4260
sa(dp4261
g2
Vpurandara dasa
p4262
sg4
Vcomposer
p4263
sg6
VPurandara Dasa was the first composer to include comments on ordinary daily life in song compositions.\u000a
p4264
sg8
S'is a'
p4265
sa(dp4266
g2
Vpurandara dasa
p4267
sg4
Vcomment
p4268
sg6
VPurandara Dasa was the first composer to include comments on ordinary daily life in song compositions.\u000a
p4269
sg8
Vinclude
p4270
sa(dp4271
g2
Vpurandara dasa
p4272
sg4
Vvaggeyakara
p4273
sg6
VPurandara Dasa was a vaggeyakara, a lakshanakara, and the founder of musical pedagogy.\u000a
p4274
sg8
S'is a'
p4275
sa(dp4276
g2
Vpurandara dasa
p4277
sg4
Vgreat influence
p4278
sg6
VPurandara Dasa had great influence on Hindustani music.\u000a
p4279
sg8
Vhave
p4280
sa(dp4281
g2
Vpurandara dasa
p4282
sg4
Vessence
p4283
sg6
VPurandara Dasa has explained the essence of Upanishads, Vedas, in simple Kannada.\u000a
p4284
sg8
Vexplain
p4285
sa(dp4286
g2
Vpurandara dasa
p4287
sg4
Vevil
p4288
sg6
VPurandara Dasa fought the evils of casteism through his songs.\u000a
p4289
sg8
Vfight
p4290
sa(dp4291
g2
Vpurandara dasa
p4292
sg4
Vforceful expression
p4293
sg6
VPurandara Dasa has made some forceful expressions on untouchability which was dogging the society.\u000a
p4294
sg8
Vmake
p4295
sa(dp4296
g2
Vpurandara dasa
p4297
sg4
Vtheir feeling
p4298
sg6
VPurandara Dasa and Thyagaraja have expressed their thoughts and feelings on other aspects of life as well.\u000a
p4299
sg8
Vexpress
p4300
sa(dp4301
g2
Vpurandara dasa
p4302
sg4
Vtheir feeling
p4303
sg6
VPurandara Dasa and Thyagaraja have expressed their thoughts and feelings on other aspects of life as well.\u000a
p4304
sg8
g4300
sa(dp4305
g2
Vnatakapriya
p4306
sg4
Vragam
p4307
sg6
VNatakapriya, is a ragam in Carnatic music.\u000a
p4308
sg8
S'is a'
p4309
sa(dp4310
g2
Vnatakapriya
p4311
sg4
Vmusic
p4312
sg6
VNatakapriya, is a ragam in Carnatic music.\u000a
p4313
sg8
Vragam in
p4314
sa(dp4315
g2
Vnatakapriya
p4316
sg4
Vshadvidamargini
p4317
sg6
VNatakapriya is the shuddha madhyamam equivalent of Shadvidamargini, which is the 46th melakarta ragam.\u000a
p4318
sg8
Vequivalent of
p4319
sa(dp4320
g2
Vnatakapriya
p4321
sg4
Vequivalent
p4322
sg6
VNatakapriya is the shuddha madhyamam equivalent of Shadvidamargini, which is the 46th melakarta ragam.\u000a
p4323
sg8
S'is a'
p4324
sa(dp4325
g2
Vnatakapriya
p4326
sg4
Vmadhyamam equivalent
p4327
sg6
VNatakapriya is the shuddha madhyamam equivalent of Shadvidamargini, which is the 46th melakarta ragam.\u000a
p4328
sg8
S'is a'
p4329
sa(dp4330
g2
Vnatakapriya
p4331
sg4
Vshuddha equivalent
p4332
sg6
VNatakapriya is the shuddha madhyamam equivalent of Shadvidamargini, which is the 46th melakarta ragam.\u000a
p4333
sg8
S'is a'
p4334
sa(dp4335
g2
Vvenkatamakhin
p4336
sg4
Voriginal list
p4337
sg6
VNatabharanam is the 10th Melakarta in the original list compiled by Venkatamakhin.\u000a
p4338
sg8
Vcompile
p4339
sa(dp4340
g2
Vtiruvottriyur tyagayyar
p4341
sg4
Vcarnatic composer
p4342
sg6
VTiruvottriyur Tyagayyar was a Carnatic music composer.\u000a
p4343
sg8
S'is a'
p4344
sa(dp4345
g2
Vtiruvottriyur tyagayyar
p4346
sg4
Vmusic composer
p4347
sg6
VTiruvottriyur Tyagayyar was a Carnatic music composer.\u000a
p4348
sg8
S'is a'
p4349
sa(dp4350
g2
Vtiruvottriyur tyagayyar
p4351
sg4
Vcomposer
p4352
sg6
VTiruvottriyur Tyagayyar was a Carnatic music composer.\u000a
p4353
sg8
S'is a'
p4354
sa(dp4355
g2
Vmysore vasudevachar
p4356
sg4
Vhis music
p4357
sg6
VMysore Vasudevachar was another great admirer of his music.\u000a
p4358
sg8
Vadmirer of
p4359
sa(dp4360
g2
Vmysore vasudevachar
p4361
sg4
Vgreat admirer
p4362
sg6
VMysore Vasudevachar was another great admirer of his music.\u000a
p4363
sg8
S'is a'
p4364
sa(dp4365
g2
Vmysore vasudevachar
p4366
sg4
Vadmirer
p4367
sg6
VMysore Vasudevachar was another great admirer of his music.\u000a
p4368
sg8
S'is a'
p4369
sa(dp4370
g2
Vsucharitra
p4371
sg4
Vmusic
p4372
sg6
VSucharitra is a ragam in Carnatic music.\u000a
p4373
sg8
Vragam in
p4374
sa(dp4375
g2
Vsucharitra
p4376
sg4
Vragam
p4377
sg6
VSucharitra is a ragam in Carnatic music.\u000a
p4378
sg8
S'is a'
p4379
sa(dp4380
g2
Vsucharitra
p4381
sg4
Vmelakarta ragam
p4382
sg6
VSucharitra, being a melakarta ragam, by definition is a sampoorna ragam.\u000a
p4383
sg8
Vbe
p4384
sa(dp4385
g2
Vsucharitra
p4386
sg4
Vsampoorna ragam
p4387
sg6
VSucharitra, being a melakarta ragam, by definition is a sampoorna ragam.\u000a
p4388
sg8
S'is a'
p4389
sa(dp4390
g2
Vsucharitra
p4391
sg4
Vragam
p4392
sg6
VSucharitra, being a melakarta ragam, by definition is a sampoorna ragam.\u000a
p4393
sg8
S'is a'
p4394
sa(dp4395
g2
Vsucharitra
p4396
sg4
Vjanya ragam
p4397
sg6
VSucharitra currently has no janya ragam associated with it.\u000a
p4398
sg8
Vhave
p4399
sa(dp4400
g2
Vannamacharya
p4401
sg4
Vth century
p4402
sg6
VCurrently, Annamacharya of the 15th century is regarded as first vaggeyakara in Telugu.\u000a
p4403
sg8
Vof
p4404
sa(dp4405
g2
Vannamacharya
p4406
sg4
Vfirst vaggeyakara
p4407
sg6
VCurrently, Annamacharya of the 15th century is regarded as first vaggeyakara in Telugu.\u000a
p4408
sg8
Vregard as
p4409
sa(dp4410
g2
Vcharulatha mani
p4411
sg4
Vhuge fan
p4412
sg6
VCharulatha Mani is a leading Carnatic music vocalist and has a huge fan following in India and abroad.\u000a
p4413
sg8
Vhave
p4414
sa(dp4415
g2
Vcharulatha mani
p4416
sg4
Vmusic vocalist
p4417
sg6
VCharulatha Mani is a leading Carnatic music vocalist and has a huge fan following in India and abroad.\u000a
p4418
sg8
S'is a'
p4419
sa(dp4420
g2
Vcharulatha mani
p4421
sg4
Vvocalist
p4422
sg6
VCharulatha Mani is a leading Carnatic music vocalist and has a huge fan following in India and abroad.\u000a
p4423
sg8
S'is a'
p4424
sa(dp4425
g2
Vcharulatha mani
p4426
sg4
Vlead vocalist
p4427
sg6
VCharulatha Mani is a leading Carnatic music vocalist and has a huge fan following in India and abroad.\u000a
p4428
sg8
S'is a'
p4429
sa(dp4430
g2
Vcharulatha mani
p4431
sg4
Vcarnatic vocalist
p4432
sg6
VCharulatha Mani is a leading Carnatic music vocalist and has a huge fan following in India and abroad.\u000a
p4433
sg8
S'is a'
p4434
sa(dp4435
g2
Vcharulatha mani
p4436
sg4
Vindia
p4437
sg6
VCharulatha Mani has performed in all major sabhas in Chennai and all over India.\u000a
p4438
sg8
Vperform over
p4439
sa(dp4440
g2
Vcharulatha mani
p4441
sg4
Vmajor sabha
p4442
sg6
VCharulatha Mani has performed in all major sabhas in Chennai and all over India.\u000a
p4443
sg8
Vperform in
p4444
sa(dp4445
g2
Vavaneeswaram s r vinu
p4446
sg4
Vsahithi_devi
p4447
sg6
VAvaneeswaram S R Vinu was born to Avaneeswaram.N Ramachandran and Sahithi Devi in Trivandrum, Kerala.\u000a
p4448
sg8
Vbear to
p4449
sa(dp4450
g2
Vavaneeswaram s r vinu
p4451
sg4
Vramachandran avaneeswaram
p4452
sg6
VAvaneeswaram S R Vinu was born to Avaneeswaram.N Ramachandran and Sahithi Devi in Trivandrum, Kerala.\u000a
p4453
sg8
Vbear to
p4454
sa(dp4455
g2
Vavaneeswaram s r vinu
p4456
sg4
Vtrivandrum
p4457
sg6
VAvaneeswaram S R Vinu was born to Avaneeswaram.N Ramachandran and Sahithi Devi in Trivandrum, Kerala.\u000a
p4458
sg8
Vbear in
p4459
sa(dp4460
g2
Vavaneeswaram s r vinu
p4461
sg4
Vkerala
p4462
sg6
VAvaneeswaram S R Vinu was born to Avaneeswaram.N Ramachandran and Sahithi Devi in Trivandrum, Kerala.\u000a
p4463
sg8
Vbear in
p4464
sa(dp4465
g2
Vtyagaraja
p4466
sg4
Vsong
p4467
sg6
VLater Tyagaraja followed this in songs like Adigi sukhamu in Madhyamavathi raga.\u000a
p4468
sg8
Vfollow in
p4469
sa(dp4470
g2
Vkokilapriya
p4471
sg4
Vragam
p4472
sg6
VKokilapriya is a ragam in Carnatic music.\u000a
p4473
sg8
S'is a'
p4474
sa(dp4475
g2
Vkokilapriya
p4476
sg4
Vmusic
p4477
sg6
VKokilapriya is a ragam in Carnatic music.\u000a
p4478
sg8
Vragam in
p4479
sa(dp4480
g2
Vvenkatamakhin
p4481
sg4
Voriginal list
p4482
sg6
VKokilaravam is the 11th Melakarta in the original list compiled by Venkatamakhin.\u000a
p4483
sg8
Vcompile
p4484
sa(dp4485
g2
Vkokilapriya
p4486
sg4
Vminor ragam
p4487
sg6
VKokilapriya has a few minor janya ragams associated with it.\u000a
p4488
sg8
Vhave
p4489
sa(dp4490
g2
Vmuthuswami dikshitar
p4491
sg4
Vcomposition kodandarama
p4492
sg6
VMuthuswami Dikshitar s composition Kodandarama is set to Kokilaravam ragam.\u000a
p4493
sg8
g843
sa(dp4494
g2
Vtyagaraja aradhana
p4495
sg4
Vannual carnatic
p4496
sg6
VTyagaraja Aradhana is an annual Carnatic music festival held in January and February.\u000a
p4497
sg8
Vfestival 's
p4498
sa(dp4499
g2
Vtyagaraja aradhana
p4500
sg4
Vjanuary
p4501
sg6
VTyagaraja Aradhana is an annual Carnatic music festival held in January and February.\u000a
p4502
sg8
Vhold in
p4503
sa(dp4504
g2
Vtyagaraja aradhana
p4505
sg4
Vfebruary
p4506
sg6
VTyagaraja Aradhana is an annual Carnatic music festival held in January and February.\u000a
p4507
sg8
Vhold in
p4508
sa(dp4509
g2
Vtyagaraja aradhana
p4510
sg4
Vfestival
p4511
sg6
VTyagaraja Aradhana is an annual Carnatic music festival held in January and February.\u000a
p4512
sg8
S'is a'
p4513
sa(dp4514
g2
Vtyagaraja aradhana
p4515
sg4
Vmusic festival
p4516
sg6
VTyagaraja Aradhana is an annual Carnatic music festival held in January and February.\u000a
p4517
sg8
S'is a'
p4518
sa(dp4519
g2
Vcleveland thyagaraja aradhana
p4520
sg4
Vus
p4521
sg6
VIn the US, there is a Cleveland Thyagaraja Aradhana held in Cleveland, Ohio around Easter.\u000a
p4522
sg8
Vbe in
p4523
sa(dp4524
g2
Vcleveland thyagaraja aradhana
p4525
sg4
Vcleveland
p4526
sg6
VIn the US, there is a Cleveland Thyagaraja Aradhana held in Cleveland, Ohio around Easter.\u000a
p4527
sg8
Vhold in
p4528
sa(dp4529
g2
Vcleveland thyagaraja aradhana
p4530
sg4
Vohio
p4531
sg6
VIn the US, there is a Cleveland Thyagaraja Aradhana held in Cleveland, Ohio around Easter.\u000a
p4532
sg8
Vhold in
p4533
sa(dp4534
g2
Vneetimati
p4535
sg4
Vragam
p4536
sg6
VNeetimati is a ragam in Carnatic music.\u000a
p4537
sg8
S'is a'
p4538
sa(dp4539
g2
Vneetimati
p4540
sg4
Vmusic
p4541
sg6
VNeetimati is a ragam in Carnatic music.\u000a
p4542
sg8
Vragam in
p4543
sa(dp4544
g2
Vneetimati
p4545
sg4
Vjanya ragam
p4546
sg6
VNeetimati has a few janya ragams associated with it of which Hamsanadam is quite popular.\u000a
p4547
sg8
Vhave
p4548
sa(dp4549
g2
Vnaganandini
p4550
sg4
Vmusic
p4551
sg6
VNaganandini is a ragam in Carnatic music.\u000a
p4552
sg8
Vragam in
p4553
sa(dp4554
g2
Vnaganandini
p4555
sg4
Vragam
p4556
sg6
VNaganandini is a ragam in Carnatic music.\u000a
p4557
sg8
S'is a'
p4558
sa(dp4559
g2
Vchitrambari
p4560
sg4
Vth melakarta
p4561
sg6
VIt is the shuddha madhyamam equivalent of Chitrambari, the 66th melakarta.\u000a
p4562
sg8
S'is a'
p4563
sa(dp4564
g2
Vchitrambari
p4565
sg4
Vmelakarta
p4566
sg6
VIt is the shuddha madhyamam equivalent of Chitrambari, the 66th melakarta.\u000a
p4567
sg8
S'is a'
p4568
sa(dp4569
g2
Vnaganandini
p4570
sg4
Vminor ragam
p4571
sg6
VNaganandini has a few minor janya ragams associated with it.\u000a
p4572
sg8
Vhave
p4573
sa(dp4574
g2
Vchowdiah
p4575
sg4
Vbank
p4576
sg6
VChowdiah, was born in Tirumakudal Narsipur village on the banks of the river Kaveri near Mysore.\u000a
p4577
sg8
Vbear on
p4578
sa(dp4579
g2
Vchowdiah
p4580
sg4
Vmysore
p4581
sg6
VChowdiah, was born in Tirumakudal Narsipur village on the banks of the river Kaveri near Mysore.\u000a
p4582
sg8
Vbear near
p4583
sa(dp4584
g2
Vchowdiah
p4585
sg4
Vvillage
p4586
sg6
VChowdiah, was born in Tirumakudal Narsipur village on the banks of the river Kaveri near Mysore.\u000a
p4587
sg8
Vbear in
p4588
sa(dp4589
g2
Vchowdiah
p4590
sg4
Vshortcoming
p4591
sg6
VChowdiah realized this shortcoming and launched upon increasing the sound of the violin.\u000a
p4592
sg8
Vrealize
p4593
sa(dp4594
g2
Vchowdiah
p4595
sg4
Vsound
p4596
sg6
VChowdiah realized this shortcoming and launched upon increasing the sound of the violin.\u000a
p4597
sg8
Vincrease
p4598
sa(dp4599
g2
Vchowdiah
p4600
sg4
Vrevolution
p4601
sg6
VThus Chowdiah brought about a revolution, in the field of music.\u000a
p4602
sg8
Vbring about
p4603
sa(dp4604
g2
Vchowdiah
p4605
sg4
Vgreat violinist
p4606
sg6
VChowdiah became a very great violinist.\u000a
p4607
sg8
Vbecome
p4608
sa(dp4609
g2
Vchowdiah
p4610
sg4
Vmany disciple
p4611
sg6
VChowdiah, had many disciples.\u000a
p4612
sg8
Vhave
p4613
sa(dp4614
g2
Vchowdiah
p4615
sg4
Vseven-stringed violin
p4616
sg6
VChowdiah designed the seven-stringed violin to ensure that the accompanist could match the vocalist.\u000a
p4617
sg8
Vdesign
p4618
sa(dp4619
g2
Vchowdiah
p4620
sg4
Vmany varna
p4621
sg6
VChowdiah composed many varnas, kirthana 's and thillanas.\u000a
p4622
sg8
Vcompose
p4623
sa(dp4624
g2
Vchowdiah
p4625
sg4
Vmovie
p4626
sg6
VMotivated by this, Chowdiah produced a movie called  Vani , for which he was also the music director.\u000a
p4627
sg8
Vproduce
p4628
sa(dp4629
g2
Vnavagraha kritis
p4630
sg4
Vset
p4631
sg6
VThe Navagraha Kritis are a set of 9 songs composed by Muttuswami Dikshitar, a great composer of Carnatic Music.\u000a
p4632
sg8
S'is a'
p4633
sa(dp4634
g2
Vnavagraha kritis
p4635
sg4
V9
p4636
sg6
VThe Navagraha Kritis are a set of 9 songs composed by Muttuswami Dikshitar, a great composer of Carnatic Music.\u000a
p4637
sg8
Vset of
p4638
sa(dp4639
g2
Vtanarupi
p4640
sg4
Vragam
p4641
sg6
VTanarupi is a ragam in Carnatic music.\u000a
p4642
sg8
S'is a'
p4643
sa(dp4644
g2
Vtanarupi
p4645
sg4
Vmusic
p4646
sg6
VTanarupi is a ragam in Carnatic music.\u000a
p4647
sg8
Vragam in
p4648
sa(dp4649
g2
Vvenkatamakhin
p4650
sg4
Voriginal list
p4651
sg6
VTanukeerti is the 6th Melakarta in the original list compiled by Venkatamakhin.\u000a
p4652
sg8
Vcompile
p4653
sa(dp4654
g2
Vjanya
p4655
sg4
Vit
p4656
sg6
VTanarupi has no janya ragams associated with it.\u000a
p4657
sg8
Vassociate with
p4658
sa(dp4659
g2
Vtanarupi
p4660
sg4
g4655
sg6
VTanarupi has no janya ragams associated with it.\u000a
p4661
sg8
Vhave
p4662
sa(dp4663
g2
Vnavaragamalika
p4664
sg4
Vcomposition
p4665
sg6
VNavaragamalika is a composition in Carnatic Music that is composed using a collection of nine ragas.\u000a
p4666
sg8
S'is a'
p4667
sa(dp4668
g2
Vnavaragamalika
p4669
sg4
Vcarnatic music
p4670
sg6
VNavaragamalika is a composition in Carnatic Music that is composed using a collection of nine ragas.\u000a
p4671
sg8
Vcomposition in
p4672
sa(dp4673
g2
Vnavaragamalika
p4674
sg4
Vcollection
p4675
sg6
VNavaragamalika is a composition in Carnatic Music that is composed using a collection of nine ragas.\u000a
p4676
sg8
Vuse
p4677
sa(dp4678
g2
Vnavaragamalika
p4679
sg4
Vsandhus
p4680
sg6
VNavaragamalika is the sandhi of two words nava and ragamalika.\u000a
p4681
sg8
S'is a'
p4682
sa(dp4683
g2
Vnavaragamalika
p4684
sg4
Vtwo
p4685
sg6
VNavaragamalika is the sandhi of two words nava and ragamalika.\u000a
p4686
sg8
Vsandhus of
p4687
sa(dp4688
g2
Vsahityam
p4689
sg4
Vsong
p4690
sg6
VThis composition makes use of the raga mudras in the Sahityam of the song.\u000a
p4691
sg8
Vsahityam of
p4692
sa(dp4693
g2
Vtyagaraja
p4694
sg4
Vnaradeeyam
p4695
sg6
VAfter Kalahastayyas death Tyagaraja found Naradeeyam, a book related to music.\u000a
p4696
sg8
Vfind
p4697
sa(dp4698
g2
Vtyagaraja
p4699
sg4
Vthird son
p4700
sg6
VTyagaraja was the third son of his parents, and Panchanada brahmam and Panchapakesha brahmam are his older brothers.\u000a
p4701
sg8
S'is a'
p4702
sa(dp4703
g2
Vtyagaraja
p4704
sg4
Vson
p4705
sg6
VTyagaraja was the third son of his parents, and Panchanada brahmam and Panchapakesha brahmam are his older brothers.\u000a
p4706
sg8
S'is a'
p4707
sa(dp4708
g2
Vtyagaraja
p4709
sg4
Vhis parent
p4710
sg6
VTyagaraja was the third son of his parents, and Panchanada brahmam and Panchapakesha brahmam are his older brothers.\u000a
p4711
sg8
Vson of
p4712
sa(dp4713
g2
Vtyagaraja
p4714
sg4
Vmusical training
p4715
sg6
VTyagaraja began his musical training under Sonti Venkata Ramanayya, a music scholar, at an early age.\u000a
p4716
sg8
Vbegin
p4717
sa(dp4718
g2
Vtyagaraja
p4719
sg4
Vhis house
p4720
sg6
VAfter some years, Ramanayya invited Tyagaraja to perform at his house in Thanjavur.\u000a
p4721
sg8
Vperform at
p4722
sa(dp4723
g2
Vtyagaraja
p4724
sg4
Vendaro_mahaanubhavulu
p4725
sg6
VOn that occasion, Tyagaraja sang Endaro Mahaanubhavulu, the fifth of the Pancharatna Kritis.\u000a
p4726
sg8
Vsing
p4727
sa(dp4728
g2
Vtyagaraja
p4729
sg4
Vroyal court
p4730
sg6
VThe king sent an invitation, along with many rich gifts, inviting Tyagaraja to attend the royal court.\u000a
p4731
sg8
Vattend
p4732
sa(dp4733
g2
Vvyasatirtha
p4734
sg4
Vempire
p4735
sg6
VVyasatirtha was intimately associated with the empire and was considered the family guru by King Krishnadevaraya.\u000a
p4736
sg8
Vassociate with
p4737
sa(dp4738
g2
Vannamacharya
p4739
sg4
Vphalguna bahula dvadashi
p4740
sg6
VAnnamacharya lived for 95 years until Phalguna Bahula Dvadashi in the year Dhundhubhi.\u000a
p4741
sg8
Vlive until
p4742
sa(dp4743
g2
Vannamacharya
p4744
sg4
V95
p4745
sg6
VAnnamacharya lived for 95 years until Phalguna Bahula Dvadashi in the year Dhundhubhi.\u000a
p4746
sg8
Vlive for
p4747
sa(dp4748
g2
Vannamacharya
p4749
sg4
Vyear dhundhubhi
p4750
sg6
VAnnamacharya lived for 95 years until Phalguna Bahula Dvadashi in the year Dhundhubhi.\u000a
p4751
sg8
Vlive in
p4752
sa(dp4753
g2
Vannamacharya
p4754
sg4
Vhis composition
p4755
sg6
VAnnamacharya considered his compositions as floral offerings to Bhagwaan Govinda.\u000a
p4756
sg8
Vconsider
p4757
sa(dp4758
g2
Vshanmukhapriya
p4759
sg4
Vragam
p4760
sg6
VShanmukhapriya is a ragam in Carnatic music.\u000a
p4761
sg8
S'is a'
p4762
sa(dp4763
g2
Vshanmukhapriya
p4764
sg4
Vmusic
p4765
sg6
VShanmukhapriya is a ragam in Carnatic music.\u000a
p4766
sg8
Vragam in
p4767
sa(dp4768
g2
Vshanmukhapriya
p4769
sg4
Vminor ragam
p4770
sg6
VShanmukhapriya has a few minor janya ragams associated with it.\u000a
p4771
sg8
Vhave
p4772
sa(dp4773
g2
Vtiger varadachariar
p4774
sg4
Vfamous carnatic
p4775
sg6
VTiger Varadachariar was a famous Carnatic music vocalist who hailed from the Indian state of Tamil Nadu.\u000a
p4776
sg8
Vvocalist 's
p4777
sa(dp4778
g2
Vtiger varadachariar
p4779
sg4
Vmusic vocalist
p4780
sg6
VTiger Varadachariar was a famous Carnatic music vocalist who hailed from the Indian state of Tamil Nadu.\u000a
p4781
sg8
S'is a'
p4782
sa(dp4783
g2
Vtiger varadachariar
p4784
sg4
Vvocalist
p4785
sg6
VTiger Varadachariar was a famous Carnatic music vocalist who hailed from the Indian state of Tamil Nadu.\u000a
p4786
sg8
S'is a'
p4787
sa(dp4788
g2
Vtiger varadachariar
p4789
sg4
Vindian state
p4790
sg6
VTiger Varadachariar was a famous Carnatic music vocalist who hailed from the Indian state of Tamil Nadu.\u000a
p4791
sg8
Vhail from
p4792
sa(dp4793
g2
Vtiger varadachariar
p4794
sg4
Vmusical family
p4795
sg6
VTiger Varadachariar hailed from a musical family of unique distinction.\u000a
p4796
sg8
Vhail from
p4797
sa(dp4798
g2
Vmuthuswami dikshitar
p4799
sg4
Vplain note
p4800
sg6
VIt is believed that Muthuswami Dikshitar composed these lyrics to aid his brother master the plain notes on the violin.\u000a
p4801
sg8
Vcompose
p4802
sa(dp4803
g2
Vmuthuswami dikshitar
p4804
sg4
Vhis master
p4805
sg6
VIt is believed that Muthuswami Dikshitar composed these lyrics to aid his brother master the plain notes on the violin.\u000a
p4806
sg8
Vaid
p4807
sa(dp4808
g2
Vgopalakrishna bharathi
p4809
sg4
Vseveral kritis
p4810
sg6
VGopalakrishna Bharathi composed several kritis on the principles of advaita.\u000a
p4811
sg8
Vcompose
p4812
sa(dp4813
g2
Vtyagaraja
p4814
sg4
Vsong
p4815
sg6
VSeshayyar learnt many of the songs composed by Tyagaraja from his father.\u000a
p4816
sg8
Vcompose
p4817
sa(dp4818
g2
Vnasikabhushani
p4819
sg4
Vragam
p4820
sg6
VNasikabhushani is a ragam in Carnatic music.\u000a
p4821
sg8
S'is a'
p4822
sa(dp4823
g2
Vnasikabhushani
p4824
sg4
Vmusic
p4825
sg6
VNasikabhushani is a ragam in Carnatic music.\u000a
p4826
sg8
Vragam in
p4827
sa(dp4828
g2
Vnasikabhushani
p4829
sg4
Vmelakarta ragam
p4830
sg6
VNasikabhushani is a melakarta ragam and hence by definition it is a sampoorna ragam.\u000a
p4831
sg8
S'is a'
p4832
sa(dp4833
g2
Vnasikabhushani
p4834
sg4
Vragam
p4835
sg6
VNasikabhushani is a melakarta ragam and hence by definition it is a sampoorna ragam.\u000a
p4836
sg8
S'is a'
p4837
sa(dp4838
g2
Vnasikabhushani
p4839
sg4
Vcouple
p4840
sg6
VNasikabhushani has a couple of minor janya ragams associated with it.\u000a
p4841
sg8
Vhave
p4842
sa(dp4843
g2
Vveene sheshanna
p4844
sg4
Vmysore
p4845
sg6
VVeene Sheshanna was born in Mysore in 1852 in a family of musicians.\u000a
p4846
sg8
Vbear in
p4847
sa(dp4848
g2
Vveene sheshanna
p4849
sg4
Vfamily
p4850
sg6
VVeene Sheshanna was born in Mysore in 1852 in a family of musicians.\u000a
p4851
sg8
Vbear in
p4852
sa(dp4853
g2
Vveene sheshanna
p4854
sg4
V1852
p4855
sg6
VVeene Sheshanna was born in Mysore in 1852 in a family of musicians.\u000a
p4856
sg8
Vbear in
p4857
sa(dp4858
g2
Vmuthuswami dikshitar
p4859
sg4
Vsouth composer
p4860
sg6
VMuthuswami Dikshitar was a South Indian poet and composer and is one of the Musical Trinity of Carnatic music.\u000a
p4861
sg8
S'is a'
p4862
sa(dp4863
g2
Vmuthuswami dikshitar
p4864
sg4
Vindian composer
p4865
sg6
VMuthuswami Dikshitar was a South Indian poet and composer and is one of the Musical Trinity of Carnatic music.\u000a
p4866
sg8
S'is a'
p4867
sa(dp4868
g2
Vmuthuswami dikshitar
p4869
sg4
Vindian poet
p4870
sg6
VMuthuswami Dikshitar was a South Indian poet and composer and is one of the Musical Trinity of Carnatic music.\u000a
p4871
sg8
S'is a'
p4872
sa(dp4873
g2
Vmuthuswami dikshitar
p4874
sg4
Vcomposer
p4875
sg6
VMuthuswami Dikshitar was a South Indian poet and composer and is one of the Musical Trinity of Carnatic music.\u000a
p4876
sg8
S'is a'
p4877
sa(dp4878
g2
Vmuthuswami dikshitar
p4879
sg4
Vpoet
p4880
sg6
VMuthuswami Dikshitar was a South Indian poet and composer and is one of the Musical Trinity of Carnatic music.\u000a
p4881
sg8
S'is a'
p4882
sa(dp4883
g2
Vmuthuswami dikshitar
p4884
sg4
Vsouth poet
p4885
sg6
VMuthuswami Dikshitar was a South Indian poet and composer and is one of the Musical Trinity of Carnatic music.\u000a
p4886
sg8
S'is a'
p4887
sa(dp4888
g2
Vmuthuswami dikshitar
p4889
sg4
Vmusical_trinity_of_carnatic music
p4890
sg6
VMuthuswami Dikshitar was a South Indian poet and composer and is one of the Musical Trinity of Carnatic music.\u000a
p4891
sg8
Vof
p4892
sa(dp4893
g2
Vmuthuswami dikshitar
p4894
sg4
Vmany kritis
p4895
sg6
VMuthuswami Dikshitar composed many kritis in groups.\u000a
p4896
sg8
Vcompose
p4897
sa(dp4898
g2
Vmuthuswami dikshitar
p4899
sg4
V13
p4900
sg6
VMuthuswami Dikshitar composed 13 compositions in 8 vibhaktis in praise of Sri Thyagarajeswara at Tiruvayur.\u000a
p4901
sg8
Vcompose
p4902
sa(dp4903
g2
Vrevathy krishna
p4904
sg4
Vdaughter
p4905
sg6
VRevathy Krishna, born as Revathy Chelvakumar, was the daughter of Chelvakumar and Lakshmi.\u000a
p4906
sg8
S'is a'
p4907
sa(dp4908
g2
Vrevathy krishna
p4909
sg4
Vrevathy_chelvakumar
p4910
sg6
VRevathy Krishna, born as Revathy Chelvakumar, was the daughter of Chelvakumar and Lakshmi.\u000a
p4911
sg8
Vbear as
p4912
sa(dp4913
g2
Vrevathy krishna
p4914
sg4
Vchelvakumar
p4915
sg6
VRevathy Krishna, born as Revathy Chelvakumar, was the daughter of Chelvakumar and Lakshmi.\u000a
p4916
sg8
Vdaughter of
p4917
sa(dp4918
g2
Vrevathy krishna
p4919
sg4
Vlakshmi
p4920
sg6
VRevathy Krishna, born as Revathy Chelvakumar, was the daughter of Chelvakumar and Lakshmi.\u000a
p4921
sg8
Vdaughter of
p4922
sa(dp4923
g2
Vvyjayanthimala
p4924
sg4
Vbiggest star
p4925
sg6
VVyjayanthimala was one of the biggest Bollywood stars in a career lasting almost two decades.\u000a
p4926
sg8
Vof
p4927
sa(dp4928
g2
Vvyjayanthimala
p4929
sg4
Vaccomplished dancer
p4930
sg6
VVyjayanthimala is an accomplished dancer and was one of those who introduced semi-classical dance to Bollywood.\u000a
p4931
sg8
S'is a'
p4932
sa(dp4933
g2
Vvyjayanthimala
p4934
sg4
Vdancer
p4935
sg6
VVyjayanthimala is an accomplished dancer and was one of those who introduced semi-classical dance to Bollywood.\u000a
p4936
sg8
S'is a'
p4937
sa(dp4938
g2
Vvyjayanthimala
p4939
sg4
Vseries
p4940
sg6
VFollowing that, Vyjayanthimala appeared in series of blockbuster films such as New Delhi, Naya Daur and Aasha.\u000a
p4941
sg8
Vappear in
p4942
sa(dp4943
g2
Vvyjayanthimala
p4944
sg4
Voldest golfer
p4945
sg6
VMoreover, Vyjayanthimala is also an avid golfer and is one of the oldest golfers in Chennai.\u000a
p4946
sg8
Vof
p4947
sa(dp4948
g2
Vvyjayanthimala
p4949
sg4
Vgolfer
p4950
sg6
VMoreover, Vyjayanthimala is also an avid golfer and is one of the oldest golfers in Chennai.\u000a
p4951
sg8
S'is a'
p4952
sa(dp4953
g2
Vvyjayanthimala
p4954
sg4
Vavid golfer
p4955
sg6
VMoreover, Vyjayanthimala is also an avid golfer and is one of the oldest golfers in Chennai.\u000a
p4956
sg8
S'is a'
p4957
sa(dp4958
g2
Vvyjayanthimala
p4959
sg4
Vguest appearance
p4960
sg6
VVyjayanthimala also did a guest appearance in the 1950 film Vijayakumari which had actress T. R. Rajakumari in dual role.\u000a
p4961
sg8
Vdo
p4962
sa(dp4963
g2
Vvyjayanthimala
p4964
sg4
Vpradeep_kumar
p4965
sg6
VIn 1954, Vyjayanthimala acted in magnum opus film Nagin with Pradeep Kumar.\u000a
p4966
sg8
Vact with
p4967
sa(dp4968
g2
Vvyjayanthimala
p4969
sg4
Vopus nagin
p4970
sg6
VIn 1954, Vyjayanthimala acted in magnum opus film Nagin with Pradeep Kumar.\u000a
p4971
sg8
Vact in
p4972
sa(dp4973
g2
Vvyjayanthimala
p4974
sg4
V1954
p4975
sg6
VIn 1954, Vyjayanthimala acted in magnum opus film Nagin with Pradeep Kumar.\u000a
p4976
sg8
Vact in
p4977
sa(dp4978
g2
Vvyjayanthimala
p4979
sg4
Vfilm
p4980
sg6
VVyjayanthimala also debuted in Kannada cinema through a film called Asha Nirasha which was produced by G. D. Venkatram.\u000a
p4981
sg8
Vdebut through
p4982
sa(dp4983
g2
Vvyjayanthimala
p4984
sg4
Vcinema
p4985
sg6
VVyjayanthimala also debuted in Kannada cinema through a film called Asha Nirasha which was produced by G. D. Venkatram.\u000a
p4986
sg8
Vdebut in
p4987
sa(dp4988
g2
Vvyjayanthimala
p4989
sg4
V1955
p4990
sg6
VIn 1955, Vyjayanthimala acted in around 4 films in Bollywood.\u000a
p4991
sg8
Vact in
p4992
sa(dp4993
g2
Vvyjayanthimala
p4994
sg4
Vfilm
p4995
sg6
VIn 1955, Vyjayanthimala acted in around 4 films in Bollywood.\u000a
p4996
sg8
Vact in
p4997
sa(dp4998
g2
Vvyjayanthimala
p4999
sg4
Vchandramukhi
p5000
sg6
VOn her performance, Rediff wrote, Vyjayanthimala imbues Chandramukhi with true sympathy.\u000a
p5001
sg8
Vimbue
p5002
sa(dp5003
g2
Vvyjayanthimala
p5004
sg4
Vgirl
p5005
sg6
VEven Vyjayanthimala played a Punjabi girl and most successfully too.\u000a
p5006
sg8
Vplay
p5007
sa(dp5008
g2
Vvyjayanthimala
p5009
sg4
Vkus gorus
p5010
sg6
VA review from Rediff says that, Vyjayanthimala too is not your average petulant gaon ki gori.\u000a
p5011
sg8
S'is a'
p5012
sa(dp5013
g2
Vvyjayanthimala
p5014
sg4
Vaverage gorus
p5015
sg6
VA review from Rediff says that, Vyjayanthimala too is not your average petulant gaon ki gori.\u000a
p5016
sg8
S'is a'
p5017
sa(dp5018
g2
Vvyjayanthimala
p5019
sg4
Vgaon gorus
p5020
sg6
VA review from Rediff says that, Vyjayanthimala too is not your average petulant gaon ki gori.\u000a
p5021
sg8
S'is a'
p5022
sa(dp5023
g2
Vvyjayanthimala
p5024
sg4
Vyour gorus
p5025
sg6
VA review from Rediff says that, Vyjayanthimala too is not your average petulant gaon ki gori.\u000a
p5026
sg8
S'is a'
p5027
sa(dp5028
g2
Vvyjayanthimala
p5029
sg4
Vpetulant gorus
p5030
sg6
VA review from Rediff says that, Vyjayanthimala too is not your average petulant gaon ki gori.\u000a
p5031
sg8
S'is a'
p5032
sa(dp5033
g2
Vvyjayanthimala
p5034
sg4
Vlover
p5035
sg6
VVyjayanthimala, as Nirmala, plays the lover of Kishore.\u000a
p5036
sg8
Vplay
p5037
sa(dp5038
g2
Vvyjayanthimala
p5039
sg4
Vdevendra
p5040
sg6
VDevendra had been in love with Madhumati, played by Vyjayanthimala.\u000a
p5041
sg8
Vplay
p5042
sa(dp5043
g2
Vvyjayanthimala
p5044
sg4
Vteam
p5045
sg6
VUnfortunately, the film failed to turn Vyjayanthimala and Dev Anand team into a hit pair.\u000a
p5046
sg8
S'is a'
p5047
sa(dp5048
g2
Vvyjayanthimala
p5049
sg4
Vdev_anand
p5050
sg6
VUnfortunately, the film failed to turn Vyjayanthimala and Dev Anand team into a hit pair.\u000a
p5051
sg8
Vteam 's
p5052
sa(dp5053
g2
Vvyjayanthimala
p5054
sg4
Vdilip_kumar
p5055
sg6
VIn 1959, Vyjayanthimala reunited with Dilip Kumar for the fourth time in bilingual Paigham.\u000a
p5056
sg8
Vreunite with
p5057
sa(dp5058
g2
Vvyjayanthimala
p5059
sg4
Vfourth time
p5060
sg6
VIn 1959, Vyjayanthimala reunited with Dilip Kumar for the fourth time in bilingual Paigham.\u000a
p5061
sg8
Vreunite for
p5062
sa(dp5063
g2
Vvyjayanthimala
p5064
sg4
V1959
p5065
sg6
VIn 1959, Vyjayanthimala reunited with Dilip Kumar for the fourth time in bilingual Paigham.\u000a
p5066
sg8
Vreunite in
p5067
sa(dp5068
g2
Vvyjayanthimala
p5069
sg4
Vdilip_kumar
p5070
sg6
VFollowing successful re-entry in Tamil cinema, Vyjayanthimala then signed Dilip Kumar s home production film Gunga Jumna.\u000a
p5071
sg8
Vsign
p5072
sa(dp5073
g2
Vvyjayanthimala
p5074
sg4
Vsuccessful re-entry
p5075
sg6
VFollowing successful re-entry in Tamil cinema, Vyjayanthimala then signed Dilip Kumar s home production film Gunga Jumna.\u000a
p5076
sg8
g5072
sa(dp5077
g2
Vvyjayanthimala
p5078
sg4
Vscene
p5079
sg6
VShe was assisted by Kumar who also chose the shade of saree that Vyjayanthimala would wear in every scene.\u000a
p5080
sg8
Vwear in
p5081
sa(dp5082
g2
Vvyjayanthimala
p5083
sg4
Vfilmfare award
p5084
sg6
VFor her performance Vyjayanthimala was awarded with the Filmfare Award for Best Actress trophy at the 9th Filmfare Awards.\u000a
p5085
sg8
Vaward with
p5086
sa(dp5087
g2
Vvyjayanthimala
p5088
sg4
Vher performance
p5089
sg6
VFor her performance Vyjayanthimala was awarded with the Filmfare Award for Best Actress trophy at the 9th Filmfare Awards.\u000a
p5090
sg8
Vaward for
p5091
sa(dp5092
g2
Vvyjayanthimala
p5093
sg4
Vrole
p5094
sg6
VHowever Vyjayanthimala could not accept the role due to her busy schedule.\u000a
p5095
sg8
Vnot accept
p5096
sa(dp5097
g2
Vvyjayanthimala
p5098
sg4
Vher success
p5099
sg6
VFollowing two years sabbatical, Vyjayanthimala re-attained her success in Bollywood through Raj Kapoor s first technicolor film Sangam.\u000a
p5100
sg8
Vre-attain
p5101
sa(dp5102
g2
Vvyjayanthimala
p5103
sg4
V1966
p5104
sg6
VIn 1966, Vyjayanthimala starred in Do Dilon Ki Dastaan which also becomes failure at box office.\u000a
p5105
sg8
Vstar in
p5106
sa(dp5107
g2
Vvyjayanthimala
p5108
sg4
Vdo ki dilon dastaan
p5109
sg6
VIn 1966, Vyjayanthimala starred in Do Dilon Ki Dastaan which also becomes failure at box office.\u000a
p5110
sg8
Vstar in
p5111
sa(dp5112
g2
Vvyjayanthimala
p5113
sg4
Vbox flop
p5114
sg6
VAfter some box office flops, Vyjayanthimala soon signed alongside Rajendra Kumar in the swashbuckler ruritanian romance Suraj.\u000a
p5115
sg8
Vsign after
p5116
sa(dp5117
g2
Vvyjayanthimala
p5118
sg4
Vswashbuckler ruritanian romance suraj
p5119
sg6
VAfter some box office flops, Vyjayanthimala soon signed alongside Rajendra Kumar in the swashbuckler ruritanian romance Suraj.\u000a
p5120
sg8
Vrajendra_kumar in
p5121
sa(dp5122
g2
Vvyjayanthimala
p5123
sg4
Vsuraj
p5124
sg6
VFollowing Suraj, Vyjayanthimala starred in the historical film Amrapali.\u000a
p5125
sg8
Vstar follow
p5126
sa(dp5127
g2
Vvyjayanthimala
p5128
sg4
Vhistorical film amrapali
p5129
sg6
VFollowing Suraj, Vyjayanthimala starred in the historical film Amrapali.\u000a
p5130
sg8
Vstar in
p5131
sa(dp5132
g2
Vvyjayanthimala
p5133
sg4
Vfamous role
p5134
sg6
VPerhaps the most famous role that Vyjayanthimala ever turned down was the 1975 crime-drama film Deewar.\u000a
p5135
sg8
Vturn
p5136
sa(dp5137
g2
Vvyjayanthimala
p5138
sg4
Vsubject
p5139
sg6
VIn her hey-days, Vyjayanthimala was the subject of many controversies.\u000a
p5140
sg8
S'is a'
p5141
sa(dp5142
g2
Vvyjayanthimala
p5143
sg4
Vmany controversy
p5144
sg6
VIn her hey-days, Vyjayanthimala was the subject of many controversies.\u000a
p5145
sg8
Vsubject of
p5146
sa(dp5147
g2
Vvyjayanthimala
p5148
sg4
Vkapoor
p5149
sg6
VDuring this time Vyjayanthimala is said to have been romantically involved with Kapoor and almost married him.\u000a
p5150
sg8
Vinvolve with
p5151
sa(dp5152
g2
Vvyjayanthimala
p5153
sg4
Vhe
p5154
sg6
VDuring this time Vyjayanthimala is said to have been romantically involved with Kapoor and almost married him.\u000a
p5155
sg8
Vmarry
p5156
sa(dp5157
g2
Vvyjayanthimala
p5158
sg4
Vchamanlal_bali
p5159
sg6
VVyjayanthimala married Chamanlal Bali in 1968.\u000a
p5160
sg8
Vmarry
p5161
sa(dp5162
g2
Vchitrambari
p5163
sg4
Vragam
p5164
sg6
VChitrambari is a ragam in Carnatic music.\u000a
p5165
sg8
S'is a'
p5166
sa(dp5167
g2
Vchitrambari
p5168
sg4
Vmusic
p5169
sg6
VChitrambari is a ragam in Carnatic music.\u000a
p5170
sg8
Vragam in
p5171
sa(dp5172
g2
Vchitrambari
p5173
sg4
Vjanya ragam
p5174
sg6
VChitrambari has a few janya ragams associated with it, of which Amritavarshini is very popular.\u000a
p5175
sg8
Vhave
p5176
sa(dp5177
g2
Vchitrambari
p5178
sg4
Vother melakarta
p5179
sg6
VList of janya ragams contains the full list of ragams associated with Chitrambari and other melakartas.\u000a
p5180
sg8
S'is a'
p5181
sa(dp5182
g2
Vchitrambari
p5183
sg4
Vmelakarta
p5184
sg6
VList of janya ragams contains the full list of ragams associated with Chitrambari and other melakartas.\u000a
p5185
sg8
S'is a'
p5186
sa(dp5187
g2
Vchitta swara
p5188
sg4
Vsolfa passage
p5189
sg6
VIn Indian classical music, chitta swaras are a set of solfa passages.\u000a
p5190
sg8
Vset of
p5191
sa(dp5192
g2
Vkedaragaula
p5193
sg4
Vasymmetric ragam
p5194
sg6
VKedaragaula is an asymmetric ragam that does not contain gandharam and dhaivatam in the ascending scale.\u000a
p5195
sg8
S'is a'
p5196
sa(dp5197
g2
Vkedaragaula
p5198
sg4
Vragam
p5199
sg6
VKedaragaula is an asymmetric ragam that does not contain gandharam and dhaivatam in the ascending scale.\u000a
p5200
sg8
S'is a'
p5201
sa(dp5202
g2
Vkedaragaula
p5203
sg4
Vdhaivatam
p5204
sg6
VKedaragaula is an asymmetric ragam that does not contain gandharam and dhaivatam in the ascending scale.\u000a
p5205
sg8
Vnot contain
p5206
sa(dp5207
g2
Vkedaragaula
p5208
sg4
Vgandharam
p5209
sg6
VKedaragaula is an asymmetric ragam that does not contain gandharam and dhaivatam in the ascending scale.\u000a
p5210
sg8
g5206
sa(dp5211
g2
Vsaveri
p5212
sg4
Vshuddha combination
p5213
sg6
VIt is a combination of the pentatonic scale Shuddha Saveri and the sampurna raga scale Harikambhoji.\u000a
p5214
sg8
S'is a'
p5215
sa(dp5216
g2
Vyadukulakamboji
p5217
sg4
Vasymmetric ragam
p5218
sg6
VYadukulakamboji is an asymmetric ragam that does not contain gandharam and nishadam in the ascending scale.\u000a
p5219
sg8
S'is a'
p5220
sa(dp5221
g2
Vyadukulakamboji
p5222
sg4
Vragam
p5223
sg6
VYadukulakamboji is an asymmetric ragam that does not contain gandharam and nishadam in the ascending scale.\u000a
p5224
sg8
S'is a'
p5225
sa(dp5226
g2
Vyadukulakamboji
p5227
sg4
Vnishadam
p5228
sg6
VYadukulakamboji is an asymmetric ragam that does not contain gandharam and nishadam in the ascending scale.\u000a
p5229
sg8
Vnot contain
p5230
sa(dp5231
g2
Vyadukulakamboji
p5232
sg4
Vgandharam
p5233
sg6
VYadukulakamboji is an asymmetric ragam that does not contain gandharam and nishadam in the ascending scale.\u000a
p5234
sg8
g5230
sa(dp5235
g2
Vkalakshetra
p5236
sg4
Vinstitution
p5237
sg6
VHe taught and lived at Kalakshetra, a noted arts institution in Chennai.\u000a
p5238
sg8
S'is a'
p5239
sa(dp5240
g2
Vkalakshetra
p5241
sg4
Vart institution
p5242
sg6
VHe taught and lived at Kalakshetra, a noted arts institution in Chennai.\u000a
p5243
sg8
S'is a'
p5244
sa(dp5245
g2
Vkalakshetra
p5246
sg4
Vnoted institution
p5247
sg6
VHe taught and lived at Kalakshetra, a noted arts institution in Chennai.\u000a
p5248
sg8
S'is a'
p5249
sa(dp5250
g2
Vkalakshetra
p5251
sg4
Vchennai
p5252
sg6
VHe taught and lived at Kalakshetra, a noted arts institution in Chennai.\u000a
p5253
sg8
Vinstitution in
p5254
sa(dp5255
g2
Vchembai
p5256
sg4
Vit
p5257
sg6
VChembai thereafter made it a practice to sing at the Vaikom festival every year.\u000a
p5258
sg8
Vmake
p5259
sa(dp5260
g2
Vchembai
p5261
sg4
Vpractice
p5262
sg6
VChembai thereafter made it a practice to sing at the Vaikom festival every year.\u000a
p5263
sg8
g5259
sa(dp5264
g2
Vchembai
p5265
sg4
Vfestival
p5266
sg6
VChembai thereafter made it a practice to sing at the Vaikom festival every year.\u000a
p5267
sg8
Vsing at
p5268
sa(dp5269
g2
Vchembai
p5270
sg4
Vmusic festival
p5271
sg6
VChembai wanted to attend this music festival and he and his brother proceeded to Karur.\u000a
p5272
sg8
Vattend
p5273
sa(dp5274
g2
Vchembai
p5275
sg4
Vhe
p5276
sg6
VChembai wanted to attend this music festival and he and his brother proceeded to Karur.\u000a
p5277
sg8
g5273
sa(dp5278
g2
Vchembai
p5279
sg4
Vartist
p5280
sg6
VChembai persuaded the artist to avail of his own services and she agreed.\u000a
p5281
sg8
Vpersuade
p5282
sa(dp5283
g2
Vchembai
p5284
sg4
Vwider area
p5285
sg6
VThe performance in Pondicherry made Chembai known over a wider area leading later to more concert opportunities.\u000a
p5286
sg8
Vknow over
p5287
sa(dp5288
g2
Vchembai
p5289
sg4
Vsimilar opportunity
p5290
sg6
VChembai secured a similar opportunity of significance again in 1915.\u000a
p5291
sg8
Vsecure
p5292
sa(dp5293
g2
Vchembai
p5294
sg4
Vlyer
p5295
sg6
VChembai went to Ernakulam and requested Duraiswami lyer a chance for him also to sing.\u000a
p5296
sg8
Vrequest
p5297
sa(dp5298
g2
Vchembai
p5299
sg4
Vernakulam
p5300
sg6
VChembai went to Ernakulam and requested Duraiswami lyer a chance for him also to sing.\u000a
p5301
sg8
Vgo to
p5302
sa(dp5303
g2
Vchembai
p5304
sg4
Vsreelasree_ambalavana_desikar
p5305
sg6
VChembai had heard about Sreelasree Ambalavana Desikar and his discriminating knowledge of music.\u000a
p5306
sg8
Vhear about
p5307
sa(dp5308
g2
Vchembai
p5309
sg4
Vverse kanduka
p5310
sg6
VAt Desikars suggestion, Chembai rendered in viruttam form the verse Kanduka madakkariyai vasamai nadattalam.\u000a
p5311
sg8
Vrender
p5312
sa(dp5313
g2
Vchembai
p5314
sg4
Vraga
p5315
sg6
VDesikar went on prompting Chembai about the ragas he should sing and the youngster responded enthusiastically.\u000a
p5316
sg8
Vprompt about
p5317
sa(dp5318
g2
Vchembai
p5319
sg4
Vgood friend
p5320
sg6
VChembai met him in 1924 at the house of a common friend, and became good friends.\u000a
p5321
sg8
Vbecome
p5322
sa(dp5323
g2
Vchembai
p5324
sg4
Vhe
p5325
sg6
VChembai met him in 1924 at the house of a common friend, and became good friends.\u000a
p5326
sg8
Vmeet
p5327
sa(dp5328
g2
Vchembai
p5329
sg4
Vchowdiah
p5330
sg6
VChembai performed with Chowdiah in the Jagannatha Bhakta Sabha.\u000a
p5331
sg8
Vperform with
p5332
sa(dp5333
g2
Vchembai
p5334
sg4
Vjagannatha_bhakta_sabha
p5335
sg6
VChembai performed with Chowdiah in the Jagannatha Bhakta Sabha.\u000a
p5336
sg8
Vperform in
p5337
sa(dp5338
g2
Vchembai
p5339
sg4
Vyoung palghat_mani_iyer
p5340
sg6
VIt was in this concert that Chembai had introduced young Palghat Mani Iyer to a discerning audience.\u000a
p5341
sg8
Vintroduce
p5342
sa(dp5343
g2
Vnilavizhi
p5344
sg4
Vgirl
p5345
sg6
VNilavizhi is a Tamil name for girls which means the girl with eyes like the moon.\u000a
p5346
sg8
Vname for
p5347
sa(dp5348
g2
Vnilavizhi
p5349
sg4
Vname
p5350
sg6
VNilavizhi is a Tamil name for girls which means the girl with eyes like the moon.\u000a
p5351
sg8
S'is a'
p5352
sa(dp5353
g2
Vgarudadhvani
p5354
sg4
Vnishadham
p5355
sg6
VGarudadhvani is an asymmetric ragam that does not contain madhyamam or nishadham in the descending scale.\u000a
p5356
sg8
Vnot contain
p5357
sa(dp5358
g2
Vgarudadhvani
p5359
sg4
Vmadhyamam
p5360
sg6
VGarudadhvani is an asymmetric ragam that does not contain madhyamam or nishadham in the descending scale.\u000a
p5361
sg8
g5357
sa(dp5362
g2
Vgarudadhvani
p5363
sg4
Vasymmetric ragam
p5364
sg6
VGarudadhvani is an asymmetric ragam that does not contain madhyamam or nishadham in the descending scale.\u000a
p5365
sg8
S'is a'
p5366
sa(dp5367
g2
Vgarudadhvani
p5368
sg4
Vragam
p5369
sg6
VGarudadhvani is an asymmetric ragam that does not contain madhyamam or nishadham in the descending scale.\u000a
p5370
sg8
S'is a'
p5371
sa(dp5372
g2
Vneelakanta sivan
p5373
sg4
Vcomposer
p5374
sg6
VNeelakanta Sivan was a composer of Carnatic music.\u000a
p5375
sg8
S'is a'
p5376
sa(dp5377
g2
Vneelakanta sivan
p5378
sg4
Vmusic
p5379
sg6
VNeelakanta Sivan was a composer of Carnatic music.\u000a
p5380
sg8
Vcomposer of
p5381
sa(dp5382
g2
Vsubbarama dikshitar
p5383
sg4
Vcarnatic composer
p5384
sg6
VSubbarama Dikshitar was a Carnatic music composer.\u000a
p5385
sg8
S'is a'
p5386
sa(dp5387
g2
Vsubbarama dikshitar
p5388
sg4
Vmusic composer
p5389
sg6
VSubbarama Dikshitar was a Carnatic music composer.\u000a
p5390
sg8
S'is a'
p5391
sa(dp5392
g2
Vsubbarama dikshitar
p5393
sg4
Vcomposer
p5394
sg6
VSubbarama Dikshitar was a Carnatic music composer.\u000a
p5395
sg8
S'is a'
p5396
sa(dp5397
g2
Vsubbarama dikshitar
p5398
sg4
Vyoung age
p5399
sg6
VSubbarama Dikshitar died at a relatively young age of 67.\u000a
p5400
sg8
Vdie at
p5401
sa(dp5402
g2
Vseetha doraiswamy
p5403
sg4
Vmulti-instrumentalist
p5404
sg6
VSeetha Doraiswamy, commonly known as Madisaar Maami, is a renowned Carnatic Multi-instrumentalist.\u000a
p5405
sg8
S'is a'
p5406
sa(dp5407
g2
Vseetha doraiswamy
p5408
sg4
Vrenowned carnatic
p5409
sg6
VSeetha Doraiswamy, commonly known as Madisaar Maami, is a renowned Carnatic Multi-instrumentalist.\u000a
p5410
sg8
Vmulti-instrumentalist 's
p5411
sa(dp5412
g2
Vseetha doraiswamy
p5413
sg4
Vmadisaar_maami
p5414
sg6
VSeetha Doraiswamy, commonly known as Madisaar Maami, is a renowned Carnatic Multi-instrumentalist.\u000a
p5415
sg8
Vknow as
p5416
sa(dp5417
g2
Vchakkani rajamargamu
p5418
sg4
Vkritus
p5419
sg6
VChakkani Rajamargamu is a Telugu kriti in the Carnatic music tradition.\u000a
p5420
sg8
S'is a'
p5421
sa(dp5422
g2
Vchakkani rajamargamu
p5423
sg4
Vtelugu
p5424
sg6
VChakkani Rajamargamu is a Telugu kriti in the Carnatic music tradition.\u000a
p5425
sg8
Vkritus 's
p5426
sa(dp5427
g2
Vchakkani rajamargamu
p5428
sg4
Vmusic tradition
p5429
sg6
VChakkani Rajamargamu is a Telugu kriti in the Carnatic music tradition.\u000a
p5430
sg8
Vkritus in
p5431
sa(dp5432
g2
Vtyagaraja
p5433
sg4
Vit
p5434
sg6
VIt was composed by Tyagaraja.\u000a
p5435
sg8
Vcompose
p5436
sa(dp5437
g2
Vnadaswaram
p5438
sg4
Vthree
p5439
sg6
VThe nadaswaram contains three parts namely, kuzhal, thimiru, and anasu.\u000a
p5440
sg8
Vcontain
p5441
sa(dp5442
g2
Vharikambhoji
p5443
sg4
Vmusic
p5444
sg6
VHarikambhoji is a ragam in Carnatic music.\u000a
p5445
sg8
Vragam in
p5446
sa(dp5447
g2
Vharikambhoji
p5448
sg4
Vragam
p5449
sg6
VHarikambhoji is a ragam in Carnatic music.\u000a
p5450
sg8
S'is a'
p5451
sa(dp5452
g2
Vjanya
p5453
sg4
Vragam
p5454
sg6
VThe globally famous pentatonic scale Mohanam is also considered a janya of this ragam.\u000a
p5455
sg8
Vjanya of
p5456
sa(dp5457
g2
Vcharanam
p5458
sg4
Vsection
p5459
sg6
VCharanam in Carnatic music is usually the end section of a composition which is sung after the anupallavi.\u000a
p5460
sg8
S'is a'
p5461
sa(dp5462
g2
Vcharanam
p5463
sg4
Vend section
p5464
sg6
VCharanam in Carnatic music is usually the end section of a composition which is sung after the anupallavi.\u000a
p5465
sg8
S'is a'
p5466
sa(dp5467
g2
Vcharanam
p5468
sg4
Vcomposition
p5469
sg6
VCharanam in Carnatic music is usually the end section of a composition which is sung after the anupallavi.\u000a
p5470
sg8
Vsection of
p5471
sa(dp5472
g2
Vcharanam
p5473
sg4
Vmusic
p5474
sg6
VCharanam in Carnatic music is usually the end section of a composition which is sung after the anupallavi.\u000a
p5475
sg8
Vin
p5476
sa(dp5477
g2
Vcharanam
p5478
sg4
Vanupallavus
p5479
sg6
VCharanam in Carnatic music is usually the end section of a composition which is sung after the anupallavi.\u000a
p5480
sg8
Vsing after
p5481
sa(dp5482
g2
Varabhi
p5483
sg4
V7
p5484
sg6
VArabhi is a raga that dates back to 7 AD.\u000a
p5485
sg8
Vback to
p5486
sa(dp5487
g2
Varabhi
p5488
sg4
Vraga
p5489
sg6
VArabhi is a raga that dates back to 7 AD.\u000a
p5490
sg8
S'is a'
p5491
sa(dp5492
g2
Vsanjukta panigrahi
p5493
sg4
Vindia
p5494
sg6
VSanjukta Panigrahi was a dancer of India, who was the foremost exponent of Indian classical dance Odissi.\u000a
p5495
sg8
Vdancer of
p5496
sa(dp5497
g2
Vsanjukta panigrahi
p5498
sg4
Vdancer
p5499
sg6
VSanjukta Panigrahi was a dancer of India, who was the foremost exponent of Indian classical dance Odissi.\u000a
p5500
sg8
S'is a'
p5501
sa(dp5502
g2
Vkeeravani
p5503
sg4
Vmusic
p5504
sg6
VKeeravani is a ragam in Carnatic music.\u000a
p5505
sg8
Vragam in
p5506
sa(dp5507
g2
Vkeeravani
p5508
sg4
Vragam
p5509
sg6
VKeeravani is a ragam in Carnatic music.\u000a
p5510
sg8
S'is a'
p5511
sa(dp5512
g2
Vkeeravani
p5513
sg4
Vjanya ragam
p5514
sg6
VKeeravani has many janya ragams associated with it.\u000a
p5515
sg8
Vhave
p5516
sa(dp5517
g2
Vchenda
p5518
sg4
Vdrummer neck
p5519
sg6
VThe Chenda is suspended from the drummers neck so that it hangs vertically.\u000a
p5520
sg8
Vsuspend from
p5521
sa(dp5522
g2
Vchenda
p5523
sg4
Vtwo
p5524
sg6
VA Chenda has two sides, the left side called Edamthala and the right side Valamthala.\u000a
p5525
sg8
Vhave
p5526
sa(dp5527
g2
Vchenda
p5528
sg4
Vleft side
p5529
sg6
VA Chenda has two sides, the left side called Edamthala and the right side Valamthala.\u000a
p5530
sg8
g5526
sa(dp5531
g2
Vchenda
p5532
sg4
Vaccompaniment
p5533
sg6
VThe Chenda is mainly played in Hindu temple festivals and as an accompaniment in the religious art forms of Kerala.\u000a
p5534
sg8
Vplay as
p5535
sa(dp5536
g2
Vchenda
p5537
sg4
Vtemple festival
p5538
sg6
VThe Chenda is mainly played in Hindu temple festivals and as an accompaniment in the religious art forms of Kerala.\u000a
p5539
sg8
Vplay in
p5540
sa(dp5541
g2
Vchenda
p5542
sg4
Vform
p5543
sg6
VChenda is an unavoidable musical instrument in all form of cultural activities in Kerala.\u000a
p5544
sg8
Vinstrument in
p5545
sa(dp5546
g2
Vchenda
p5547
sg4
Vinstrument
p5548
sg6
VChenda is an unavoidable musical instrument in all form of cultural activities in Kerala.\u000a
p5549
sg8
S'is a'
p5550
sa(dp5551
g2
Vchenda
p5552
sg4
Vmusical instrument
p5553
sg6
VChenda is an unavoidable musical instrument in all form of cultural activities in Kerala.\u000a
p5554
sg8
S'is a'
p5555
sa(dp5556
g2
Vchenda
p5557
sg4
Vunavoidable instrument
p5558
sg6
VChenda is an unavoidable musical instrument in all form of cultural activities in Kerala.\u000a
p5559
sg8
S'is a'
p5560
sa(dp5561
g2
Vchenda
p5562
sg4
Vdifferent purpose
p5563
sg6
VThese Chendas are used for different purposes especially for different art forms.\u000a
p5564
sg8
Vuse for
p5565
sa(dp5566
g2
Vuruttu chenda
p5567
sg4
Vvariation
p5568
sg6
VUruttu Chenda is used to play variations in music.\u000a
p5569
sg8
Vplay
p5570
sa(dp5571
g2
Vchenda
p5572
sg4
Vpercussion instrument
p5573
sg6
VThe Chenda is used as a percussion instrument for almost all Kerala art forms like Kathakali, Kodiyattam, Theyyam etc.\u000a
p5574
sg8
Vuse as
p5575
sa(dp5576
g2
Vhamsanandi
p5577
sg4
Vragam
p5578
sg6
VHamsanandi is a ragam in Carnatic music.\u000a
p5579
sg8
S'is a'
p5580
sa(dp5581
g2
Vhamsanandi
p5582
sg4
Vmusic
p5583
sg6
VHamsanandi is a ragam in Carnatic music.\u000a
p5584
sg8
Vragam in
p5585
sa(dp5586
g2
Vhamsanandi
p5587
sg4
Vjanya ragam
p5588
sg6
VHamsanandi is a janya ragam of Gamanashrama, the 53rd Melakarta ragam.\u000a
p5589
sg8
S'is a'
p5590
sa(dp5591
g2
Vhamsanandi
p5592
sg4
Vragam
p5593
sg6
VHamsanandi is a janya ragam of Gamanashrama, the 53rd Melakarta ragam.\u000a
p5594
sg8
S'is a'
p5595
sa(dp5596
g2
Vgamanashrama
p5597
sg4
Vragam
p5598
sg6
VHamsanandi is a janya ragam of Gamanashrama, the 53rd Melakarta ragam.\u000a
p5599
sg8
S'is a'
p5600
sa(dp5601
g2
Vhamsanandi
p5602
sg4
Vgamanashrama
p5603
sg6
VHamsanandi is a janya ragam of Gamanashrama, the 53rd Melakarta ragam.\u000a
p5604
sg8
Vragam of
p5605
sa(dp5606
g2
Vhamsanandi
p5607
sg4
Vrd melakarta
p5608
sg6
VHamsanandi is a janya ragam of Gamanashrama, the 53rd Melakarta ragam.\u000a
p5609
sg8
Vragam 's
p5610
sa(dp5611
g2
Vgamanashrama
p5612
sg4
Vgamanashrama
p5613
sg6
VHamsanandi is a janya ragam of Gamanashrama, the 53rd Melakarta ragam.\u000a
p5614
sg8
Vragam of
p5615
sa(dp5616
g2
Vgamanashrama
p5617
sg4
Vrd melakarta
p5618
sg6
VHamsanandi is a janya ragam of Gamanashrama, the 53rd Melakarta ragam.\u000a
p5619
sg8
Vragam 's
p5620
sa(dp5621
g2
Vhamsanandi
p5622
sg4
Vsymmetric scale
p5623
sg6
VHamsanandi is a symmetric scale that does not contain panchamam.\u000a
p5624
sg8
S'is a'
p5625
sa(dp5626
g2
Vhamsanandi
p5627
sg4
Vscale
p5628
sg6
VHamsanandi is a symmetric scale that does not contain panchamam.\u000a
p5629
sg8
S'is a'
p5630
sa(dp5631
g2
Vhamsanandi
p5632
sg4
Vpanchamam
p5633
sg6
VHamsanandi is a symmetric scale that does not contain panchamam.\u000a
p5634
sg8
Vnot contain
p5635
sa(dp5636
g2
Vhamsanandi
p5637
sg4
Vevening ragam
p5638
sg6
VHamsanandi is an evening ragam.\u000a
p5639
sg8
S'is a'
p5640
sa(dp5641
g2
Vhamsanandi
p5642
sg4
Vragam
p5643
sg6
VHamsanandi is an evening ragam.\u000a
p5644
sg8
S'is a'
p5645
sa(dp5646
g2
Vcharukesi
p5647
sg4
Vraga
p5648
sg6
VCharukesi is a raga in Carnatic music.\u000a
p5649
sg8
S'is a'
p5650
sa(dp5651
g2
Vcharukesi
p5652
sg4
Vmusic
p5653
sg6
VCharukesi is a raga in Carnatic music.\u000a
p5654
sg8
Vraga in
p5655
sa(dp5656
g2
Vcharukesi
p5657
sg4
Vfeeling
p5658
sg6
VCharukesi is known to incite feelings of pathos and devotion in the listener.\u000a
p5659
sg8
Vincite
p5660
sa(dp5661
g2
Vvarnam
p5662
sg4
Vmaharajapuram_santhanam
p5663
sg6
VThis varnam was a favorite of Maharajapuram Santhanam, who began a large chunk of his concerts with this song.\u000a
p5664
sg8
Vfavorite of
p5665
sa(dp5666
g2
Vcharukesi
p5667
sg4
Vfilm song
p5668
sg6
VMany compositions exist amongst modern adaptations of Charukesi, especially in Indian movies, in the so-called film songs.\u000a
p5669
sg8
Vin
p5670
sa(dp5671
g2
Vcharukesi
p5672
sg4
Vindian movie
p5673
sg6
VMany compositions exist amongst modern adaptations of Charukesi, especially in Indian movies, in the so-called film songs.\u000a
p5674
sg8
g5670
sa(dp5675
g2
Vsikkil gurucharan
p5676
sg4
Vvidya_mandir_senior_secondary_school
p5677
sg6
VSikkil Gurucharan was a student of Vidya Mandir Senior Secondary School, Mylapore, Chennai.\u000a
p5678
sg8
Vstudent of
p5679
sa(dp5680
g2
Vsikkil gurucharan
p5681
sg4
Vstudent
p5682
sg6
VSikkil Gurucharan was a student of Vidya Mandir Senior Secondary School, Mylapore, Chennai.\u000a
p5683
sg8
S'is a'
p5684
sa(dp5685
g2
Vsikkil gurucharan
p5686
sg4
Vyoung musician
p5687
sg6
VSikkil Gurucharan is among young musicians who stand as youth ambassadors for the future of Carnatic Music.\u000a
p5688
sg8
Vbe among
p5689
sa(dp5690
g2
Vprapancham sitaram
p5691
sg4
Vusual occurrence
p5692
sg6
VPrapancham Sitaram was not a usual occurrence.\u000a
p5693
sg8
S'is a'
p5694
sa(dp5695
g2
Vtanam
p5696
sg4
Vveena
p5697
sg6
VThey are so called because they are suited to playing tanam on the veena.\u000a
p5698
sg8
Vplay on
p5699
sa(dp5700
g2
Vtyagaraja
p5701
sg4
Vmusical challenge
p5702
sg6
VA particularly difficult musical challenge has been taken up successfully by Tyagaraja in three of these compositions.\u000a
p5703
sg8
Vtake
p5704
sa(dp5705
g2
Vtyagaraja
p5706
sg4
Vcharacter
p5707
sg6
VTyagaraja avoids this too, except in one instance, without losing the character of the ragam.\u000a
p5708
sg8
Vlose
p5709
sa(dp5710
g2
Vtyagaraja
p5711
sg4
Vone
p5712
sg6
VTyagaraja avoids this too, except in one instance, without losing the character of the ragam.\u000a
p5713
sg8
Vavoid in
p5714
sa(dp5715
g2
Vtyagaraja
p5716
sg4
Vramachandra
p5717
sg6
VIn this song, Tyagaraja praises Ramachandra, one of the incarnations of Lord Vishnu.\u000a
p5718
sg8
Vpraise
p5719
sa(dp5720
g2
Vtyagaraja
p5721
sg4
Vone
p5722
sg6
VIn this song, Tyagaraja praises Ramachandra, one of the incarnations of Lord Vishnu.\u000a
p5723
sg8
g5719
sa(dp5724
g2
Vpancharatna kriti
p5725
sg4
Vtelugu
p5726
sg6
VThis Pancharatna Kriti was composed in Telugu and has been set to Arabhi raga.\u000a
p5727
sg8
Vcompose in
p5728
sa(dp5729
g2
Vpancharatna kriti
p5730
sg4
Vraga
p5731
sg6
VThis Pancharatna Kriti was composed in Telugu and has been set to Arabhi raga.\u000a
p5732
sg8
Vset to
p5733
sa(dp5734
g2
Vtyagaraja
p5735
sg4
Vgreatness
p5736
sg6
VIn this kriti, Tyagaraja sings the greatness of the lord Krishna in a lucid manner.\u000a
p5737
sg8
Vsing
p5738
sa(dp5739
g2
Vendaro mahanubhavulu
p5740
sg4
Vone
p5741
sg6
VEndaro mahanubhavulu is believed to be one of the early kritis of Tyagaraja composed in Telugu.\u000a
p5742
sg8
Vbe
p5743
sa(dp5744
g2
Vtyagaraja
p5745
sg4
Vgreatness
p5746
sg6
VIn this poem, Tyagaraja describes the greatness of devotees of the Lord.\u000a
p5747
sg8
Vdescribe
p5748
sa(dp5749
g2
Vmangalam muthuswamy
p5750
sg4
Vnotable vainika
p5751
sg6
VMangalam Muthuswamy was one of the notable vainikas in recent times.\u000a
p5752
sg8
Vof
p5753
sa(dp5754
g2
Vlatangi
p5755
sg4
Vragam
p5756
sg6
VLatangi is a ragam in Carnatic music.\u000a
p5757
sg8
S'is a'
p5758
sa(dp5759
g2
Vlatangi
p5760
sg4
Vmusic
p5761
sg6
VLatangi is a ragam in Carnatic music.\u000a
p5762
sg8
Vragam in
p5763
sa(dp5764
g2
Vlatangi
p5765
sg4
Vminor ragam
p5766
sg6
VLatangi has a few minor janya ragams associated with it.\u000a
p5767
sg8
Vhave
p5768
sa(dp5769
g2
Vtyagaraja
p5770
sg4
Vhis son
p5771
sg6
VLater Syama Shastri asked Tyagaraja to teach his son and sent Subbaraya to him.\u000a
p5772
sg8
Vteach
p5773
sa(dp5774
g2
Vkoteeswara iyer
p5775
sg4
Vmusic
p5776
sg6
VKoteeswara Iyer, was a composer of Carnatic music.\u000a
p5777
sg8
Vcomposer of
p5778
sa(dp5779
g2
Vkoteeswara iyer
p5780
sg4
Vcomposer
p5781
sg6
VKoteeswara Iyer, was a composer of Carnatic music.\u000a
p5782
sg8
S'is a'
p5783
sa(dp5784
g2
Vkoteeswara iyer
p5785
sg4
Vmusic
p5786
sg6
VKoteeswara Iyer studied music under Poochi Srinivasa Iyengar and Patnam Subramania Iyer.\u000a
p5787
sg8
Vstudy
p5788
sa(dp5789
g2
Vmohanakalyani
p5790
sg4
Vragam
p5791
sg6
VMohanakalyani is a ragam in Carnatic music.\u000a
p5792
sg8
S'is a'
p5793
sa(dp5794
g2
Vmohanakalyani
p5795
sg4
Vmusic
p5796
sg6
VMohanakalyani is a ragam in Carnatic music.\u000a
p5797
sg8
Vragam in
p5798
sa(dp5799
g2
Vmohanakalyani
p5800
sg4
Vnishadham
p5801
sg6
VMohanakalyani is an asymmetric ragam that does not contain madhyamam or nishadham in the ascending scale.\u000a
p5802
sg8
Vnot contain
p5803
sa(dp5804
g2
Vmohanakalyani
p5805
sg4
Vmadhyamam
p5806
sg6
VMohanakalyani is an asymmetric ragam that does not contain madhyamam or nishadham in the ascending scale.\u000a
p5807
sg8
g5803
sa(dp5808
g2
Vmohanakalyani
p5809
sg4
Vasymmetric ragam
p5810
sg6
VMohanakalyani is an asymmetric ragam that does not contain madhyamam or nishadham in the ascending scale.\u000a
p5811
sg8
S'is a'
p5812
sa(dp5813
g2
Vmohanakalyani
p5814
sg4
Vragam
p5815
sg6
VMohanakalyani is an asymmetric ragam that does not contain madhyamam or nishadham in the ascending scale.\u000a
p5816
sg8
S'is a'
p5817
sa(dp5818
g2
Vgopala dasa
p5819
sg4
Vmurariraya
p5820
sg6
VGopala Dasa was born as Bhaganna to Murariraya and Venkamma in Mosarakallu in Raichur district of Karnataka.\u000a
p5821
sg8
Vbear to
p5822
sa(dp5823
g2
Vgopala dasa
p5824
sg4
Vvenkamma
p5825
sg6
VGopala Dasa was born as Bhaganna to Murariraya and Venkamma in Mosarakallu in Raichur district of Karnataka.\u000a
p5826
sg8
Vbear to
p5827
sa(dp5828
g2
Vgopala dasa
p5829
sg4
Vbhaganna
p5830
sg6
VGopala Dasa was born as Bhaganna to Murariraya and Venkamma in Mosarakallu in Raichur district of Karnataka.\u000a
p5831
sg8
Vbear as
p5832
sa(dp5833
g2
Vgopala dasa
p5834
sg4
Vdistrict
p5835
sg6
VGopala Dasa was born as Bhaganna to Murariraya and Venkamma in Mosarakallu in Raichur district of Karnataka.\u000a
p5836
sg8
Vbear in
p5837
sa(dp5838
g2
Vgopala dasa
p5839
sg4
Vmosarakallu
p5840
sg6
VGopala Dasa was born as Bhaganna to Murariraya and Venkamma in Mosarakallu in Raichur district of Karnataka.\u000a
p5841
sg8
Vbear in
p5842
sa(dp5843
g2
Vgopala dasa
p5844
sg4
Vnumerous song
p5845
sg6
VGopala Dasa has composed numerous songs in Kannada in praise of the Hindu god Purandhara Vittala.\u000a
p5846
sg8
Vcompose
p5847
sa.