(lp0
(lp1
Vyagapriya
p2
aS'is a'
p3
aVragam
p4
aa(lp5
Vyagapriya
p6
aVragam in
p7
aVmusic
p8
aa(lp9
Vmelakarta
p10
aS'a type of'
p11
aVragam
p12
aa(lp13
g10
aS'a type of'
p14
aVsystem
p15
aa(lp16
Vyagapriya
p17
aS'is a'
p18
aVmelakarta
p19
aa(lp20
Vmelakarta
p21
aS'a type of'
p22
aVscale
p23
aa(lp24
Vjanya
p25
aS'a type of'
p26
aVragam
p27
aa(lp28
Vyagapriya
p29
aVhave
p30
aVminor ragam
p31
aa(lp32
Vmelakarta
p33
aS'a type of'
p34
aVragam
p35
aa(lp36
Vkriti
p37
aVformat of
p38
aVmusical composition
p39
aa(lp40
Vkriti
p41
aS'is a'
p42
aVformat
p43
aa(lp44
Vjanya
p45
aS'is a'
p46
aVterm
p47
aa(lp48
Vmelakarta
p49
aS'a type of'
p50
aVraga
p51
aa(lp52
Vjanya
p53
aS'a type of'
p54
aVraga
p55
aa(lp56
Vavarohana
p57
aS'a type of'
p58
aVscale
p59
aa(lp60
Vjanya
p61
aS'a type of'
p62
aVraga
p63
aa(lp64
Vjanya
p65
aS'a type of'
p66
aVraga
p67
aa(lp68
Vramnad krishnan
p69
aVvocalist in
p70
aVtradition
p71
aa(lp72
Vramnad krishnan
p73
aS'is a'
p74
aVvocalist
p75
aa(lp76
Vmelakarta
p77
aS'a type of'
p78
aVsystem
p79
aa(lp80
Vmelakarta
p81
aS'a type of'
p82
aVragam
p83
aa(lp84
Vjanya
p85
aS'a type of'
p86
aVragam
p87
aa(lp88
Vbhavapriya
p89
aVhave
p90
aVminor ragam
p91
aa(lp92
Vswathi sangeethotsavam
p93
aS'is a'
p94
aVfestival
p95
aa(lp96
Vswathi sangeethotsavam
p97
aS'is a'
p98
aVweek-long festival
p99
aa(lp100
Vswathi sangeethotsavam
p101
aVfestival of
p102
aVmusic
p103
aa(lp104
Vjanya
p105
aS'a type of'
p106
aVragam
p107
aa(lp108
Vmelakarta
p109
aS'a type of'
p110
aVscale
p111
aa(lp112
Vchalanata
p113
aS'a type of'
p114
aVragam
p115
aa(lp116
Vjanya
p117
aS'a type of'
p118
aVscale
p119
aa(lp120
Vgambhiranata
p121
aS'a type of'
p122
aVscale
p123
aa(lp124
Vchalanata
p125
aS'a type of'
p126
aVcombination
p127
aa(lp128
Vjanya
p129
aS'a type of'
p130
aVragam
p131
aa(lp132
Vhamsadhvani
p133
aVspell as
p134
aVhansadhwani
p135
aa(lp136
Vhamsadhvani
p137
aVraga in
p138
aVmusic
p139
aa(lp140
Vhamsadhvani
p141
aS'is a'
p142
aVraga
p143
aa(lp144
Vjanya
p145
aS'a type of'
p146
aVraga
p147
aa(lp148
Vhamsadhvani
p149
aVuse in
p150
aVmusic
p151
aa(lp152
Vhamsadhvani
p153
aVnot contain
p154
aVdhaivatam
p155
aa(lp156
Vhamsadhvani
p157
ag154
aVmadhyamam
p158
aa(lp159
Vhamsadhvani
p160
aS'is a'
p161
aVjanya
p162
aa(lp163
Vhamsadhvani
p164
aVjanya of
p165
aVmelakarta
p166
aa(lp167
Vkambhoji
p168
aS'is a'
p169
aVsort
p170
aa(lp171
Vkambhoji
p172
aVsort of
p173
aVparent scale
p174
aa(lp175
Vkambhoji
p176
aVsort like
p177
aVbilawal
p178
aa(lp179
Vkambhoji
p180
aVsort like
p181
aVkalyan
p182
aa(lp183
Vkambhoji
p184
aVplay at
p185
aVearly part
p186
aa(lp187
Vviruttam
p188
aVnot possess
p189
aVset talum
p190
aa(lp191
g188
aVuse
p192
aVmore ragam
p193
aa(lp194
Vmanodharma
p195
aVmanodharma in
p196
aVmusic
p197
aa(lp198
Vviruttam
p199
aVprecede
p200
aVrendition
p201
aa(lp202
Vviruttam
p203
aVsing as
p204
aVsong
p205
aa(lp206
g203
aVsing in
p207
aVsame ragam
p208
aa(lp209
g203
aVsing in
p210
aVmost case
p211
aa(lp212
Vraghupriya
p213
aVragam in
p214
aVmusic
p215
aa(lp216
Vraghupriya
p217
aS'is a'
p218
aVragam
p219
aa(lp220
Vmelakarta
p221
aS'a type of'
p222
aVragam
p223
aa(lp224
g221
aS'a type of'
p225
aVsystem
p226
aa(lp227
Vmelakarta
p228
aS'a type of'
p229
aVragam
p230
aa(lp231
Vmelakarta
p232
aS'a type of'
p233
aVscale
p234
aa(lp235
Vjanya
p236
aS'a type of'
p237
aVragam
p238
aa(lp239
Vraghupriya
p240
aVhave
p241
aVminor ragam
p242
aa(lp243
Vraghupriya
p244
aS'a type of'
p245
aVscale
p246
aa(lp247
Vrishabhapriya
p248
aVragam in
p249
aVmusic
p250
aa(lp251
Vrishabhapriya
p252
aS'is a'
p253
aVragam
p254
aa(lp255
Vmelakarta
p256
aS'a type of'
p257
aVragam
p258
aa(lp259
g256
aS'a type of'
p260
aVsystem
p261
aa(lp262
Vrishabhapriya
p263
aVequivalent of
p264
aVcharukesi
p265
aa(lp266
Vrishabhapriya
p267
aS'is a'
p268
aVequivalent
p269
aa(lp270
Vrishabhapriya
p271
aS'is a'
p272
aVpratus equivalent
p273
aa(lp274
Vrishabhapriya
p275
aS'is a'
p276
aVmadhyamam equivalent
p277
aa(lp278
Vmelakarta
p279
aS'a type of'
p280
aVragam
p281
aa(lp282
Vrishabhapriya
p283
aS'is a'
p284
aVsampoorna ragam
p285
aa(lp286
Vrishabhapriya
p287
aS'is a'
p288
aVragam
p289
aa(lp290
Vrishabhapriya
p291
aS'is a'
p292
aVmelakarta ragam
p293
aa(lp294
Vrishabhapriya
p295
aS'is a'
p296
aVragam
p297
aa(lp298
Vjanya
p299
aS'a type of'
p300
aVragam
p301
aa(lp302
Vmelakarta
p303
aS'a type of'
p304
aVragam
p305
aa(lp306
Vmelakarta
p307
aS'a type of'
p308
aVragam
p309
aa(lp310
Vkosalam
p311
aVragam in
p312
aVmusic
p313
aa(lp314
Vkosalam
p315
aS'is a'
p316
aVragam
p317
aa(lp318
Vmelakarta
p319
aS'a type of'
p320
aVragam
p321
aa(lp322
Vkosalam
p323
aS'is a'
p324
aVmelakarta ragam
p325
aa(lp326
Vkosalam
p327
aS'is a'
p328
aVragam
p329
aa(lp330
Vkosalam
p331
aS'is a'
p332
aVsampoorna ragam
p333
aa(lp334
Vkosalam
p335
aS'is a'
p336
aVragam
p337
aa(lp338
Vjanya
p339
aS'a type of'
p340
aVragam
p341
aa(lp342
Vkosalam
p343
aVhave
p344
aVjanya ragam
p345
aa(lp346
Vrajhesh vaidhya
p347
aVhail from
p348
aVtamil_nadu
p349
aa(lp350
Vrajhesh vaidhya
p351
aS'is a'
p352
aVplayer
p353
aa(lp354
Vrajhesh vaidhya
p355
aS'is a'
p356
aVveena player
p357
aa(lp358
Vrajhesh vaidhya
p359
aS'is a'
p360
aVindian player
p361
aa(lp362
Vghatam
p363
aVmanufacture in
p364
aVmanamadurai
p365
aa(lp366
Vghatam
p367
aVmove to
p368
aVother position
p369
aa(lp370
Vghatam
p371
aVghatam 's
p372
aVsouth various indian
p373
aa(lp374
Vsukumar prasad
p375
aVreceive
p376
aVdegree
p377
aa(lp378
Vmridangam
p379
aS'a type of'
p380
aVtraining
p381
aa(lp382
Vchande
p383
aVuse in
p384
aVclassical music
p385
aa(lp386
g383
aVuse in
p387
aVkarnataka_sangeta
p388
aa(lp389
Vchande
p390
aVuse in
p391
aVkerala
p392
aa(lp393
Vchenda
p394
aVuse in
p395
aVkerala
p396
aa(lp397
g390
aVdifferent from
p398
ag394
aa(lp399
Vchande
p400
aVtune to
p401
aVoctave
p402
aa(lp403
Vchande
p404
aVrest
p405
aVit
p406
aa(lp407
g404
aVuse
p408
aVtwo
p409
aa(lp410
Vchande
p411
aS'a type of'
p412
aVkolu
p413
aa(lp414
Vchande
p415
aVgrove
p416
aVform
p417
aa(lp418
Vsalaga bhairavi
p419
aS'is a'
p420
aVragam
p421
aa(lp422
Vsalaga bhairavi
p423
aVragam in
p424
aVmusic
p425
aa(lp426
Vjanya
p427
aS'a type of'
p428
aVragam
p429
aa(lp430
Vmelakarta
p431
aS'a type of'
p432
aVscale
p433
aa(lp434
Vkharaharapriya
p435
aS'a type of'
p436
aVragam
p437
aa(lp438
Vjanya
p439
aS'a type of'
p440
aVscale
p441
aa(lp442
Vsalaga bhairavi
p443
aS'is a'
p444
aVasymmetric ragam
p445
aa(lp446
Vsalaga bhairavi
p447
aS'is a'
p448
aVragam
p449
aa(lp450
Vsalaga bhairavi
p451
aVnot contain
p452
aVgandharam
p453
aa(lp454
Vsalaga bhairavi
p455
ag452
aVnishadham
p456
aa(lp457
Vvijay siva
p458
aVgo to
p459
aVpadma_seshadri_bala_bhavan_senior_secondary_school
p460
aa(lp461
Vvijay siva
p462
aVgo to
p463
aVchennai
p464
aa(lp465
Virayimman thampi
p466
aVcompose
p467
aVcheyvan karuna enthu
p468
aa(lp469
Vganamurti
p470
aVragam in
p471
aVmusic
p472
aa(lp473
Vganamurti
p474
aS'is a'
p475
aVragam
p476
aa(lp477
Vmelakarta
p478
aS'a type of'
p479
aVsystem
p480
aa(lp481
Vganamurti
p482
aS'is a'
p483
aVragam
p484
aa(lp485
Vganamurti
p486
aVragam 's
p487
aVrd melakarta
p488
aa(lp489
Vganamurti
p490
aVragam in
p491
aVmelakarta system
p492
aa(lp493
Vganamurti
p494
aVcall in
p495
aVschool
p496
aa(lp497
Vganamurti
p498
aS'is a'
p499
aVsampoorna ragam
p500
aa(lp501
Vganamurti
p502
aS'is a'
p503
aVragam
p504
aa(lp505
Vganamurti
p506
aS'is a'
p507
aVmelakarta ragam
p508
aa(lp509
Vganamurti
p510
aS'is a'
p511
aVragam
p512
aa(lp513
Vmelakarta
p514
aS'a type of'
p515
aVragam
p516
aa(lp517
Vganamurti
p518
aVequivalent of
p519
aVjhalavarali
p520
aa(lp521
Vganamurti
p522
aS'is a'
p523
aVequivalent
p524
aa(lp525
Vganamurti
p526
aS'is a'
p527
aVmadhyamam equivalent
p528
aa(lp529
Vganamurti
p530
aS'is a'
p531
aVshuddha equivalent
p532
aa(lp533
Vvenkatamakhin
p534
aVcompile
p535
aVoriginal list
p536
aa(lp537
Vjanya
p538
aS'a type of'
p539
aVragam
p540
aa(lp541
Vganamurti
p542
aVhave
p543
aVminor ragam
p544
aa(lp545
Vkanjira
p546
aVadd during
p547
aS'#unknown'
p548
aa(lp549
g546
aVadd to
p550
aVclassical concert
p551
aa(lp552
Vkanjira
p553
aS'a type of'
p554
aVartist
p555
aa(lp556
Vgamanashrama
p557
aVragam in
p558
aVmusic
p559
aa(lp560
Vgamanashrama
p561
aS'is a'
p562
aVragam
p563
aa(lp564
Vmelakarta
p565
aS'a type of'
p566
aVsystem
p567
aa(lp568
Vmelakarta
p569
aS'a type of'
p570
aVragam
p571
aa(lp572
Vgamanashrama
p573
aVhave
p574
aVjanya ragam
p575
aa(lp576
Vhamsanandi
p577
aS'is a'
p578
aVkalyanus
p579
aa(lp580
Vjanya
p581
aS'a type of'
p582
aVragam
p583
aa(lp584
Vhamsanandi
p585
aVkalyanus 's
p586
aVpurvi
p587
aa(lp588
Vjanya
p589
aS'a type of'
p590
aVragam
p591
aa(lp592
Vsaveri
p593
aS'a type of'
p594
aVscale
p595
aa(lp596
Vnadaswaram
p597
aS'a type of'
p598
aVvidwan
p599
aa(lp600
Vchalanata
p601
aS'is a'
p602
aVragam
p603
aa(lp604
Vchalanata
p605
aVragam in
p606
aVmusic
p607
aa(lp608
Vchalanata
p609
aS'is a'
p610
aVragam
p611
aa(lp612
Vmelakarta
p613
aS'a type of'
p614
aVsystem
p615
aa(lp616
Vchalanata
p617
aVragam 's
p618
aVth melakarta
p619
aa(lp620
Vchalanata
p621
aVragam in
p622
aVmelakarta system
p623
aa(lp624
Vchalanata
p625
aVof
p626
aVfew ragam
p627
aa(lp628
Vmelakarta
p629
aS'a type of'
p630
aVragam
p631
aa(lp632
Vchalanata
p633
aS'is a'
p634
aVmelakarta ragam
p635
aa(lp636
Vchalanata
p637
aS'is a'
p638
aVragam
p639
aa(lp640
Vchalanata
p641
aS'is a'
p642
aVragam
p643
aa(lp644
Vchalanata
p645
aS'is a'
p646
aVsampurna ragam
p647
aa(lp648
Vchalanata
p649
aS'is a'
p650
aVequivalent
p651
aa(lp652
Vchalanata
p653
aS'is a'
p654
aVmadhyamam equivalent
p655
aa(lp656
Vchalanata
p657
aS'is a'
p658
aVshuddha equivalent
p659
aa(lp660
Vchalanata
p661
aVequivalent of
p662
aVrasikapriya
p663
aa(lp664
Vjanya
p665
aS'a type of'
p666
aVragam
p667
aa(lp668
Vchalanata
p669
aVhave
p670
aVtwo
p671
aa(lp672
Vchalanata
p673
aVovershadow
p674
aVchalanata
p675
aa(lp676
Vjanya
p677
aS'a type of'
p678
aVragam
p679
aa(lp680
Vanandabhairavi
p681
aVhave
p682
aVswara pattern
p683
aa(lp684
Vanandabhairavi
p685
aVof
p686
aVfavourite ragam
p687
aa(lp688
Vchenda
p689
aVsuspend from
p690
aVdrummer neck
p691
aa(lp692
Vcarnatic music
p693
aVfolktune 's
p694
aVtraditional kannada
p695
aa(lp696
Vkalakshetra
p697
aVmove to
p698
aVnew campus
p699
aa(lp700
Vkalakshetra
p701
aVmove in
p702
aV1962
p703
aa(lp704
Vkalakshetra
p705
aVmove in
p706
aVbesant_nagar
p707
aa(lp708
Vkalakshetra
p709
aVoccupy of
p710
aVland
p711
aa(lp712
Vkalakshetra
p713
aVknow as
p714
aVkalakshetra_foundation
p715
aa(lp716
Vvalaji
p717
aS'is a'
p718
aVpentatonic scale
p719
aa(lp720
Vvalaji
p721
aS'is a'
p722
aVscale
p723
aa(lp724
Vvalaji
p725
aS'is a'
p726
aVjanya ragam
p727
aa(lp728
Vvalaji
p729
aS'is a'
p730
aVragam
p731
aa(lp732
Vjanya
p733
aS'a type of'
p734
aVragam
p735
aa(lp736
Vvalaji
p737
aVnot have
p738
aVswara
p739
aa(lp740
Vvalaji
p741
aS'is a'
p742
aVragam
p743
aa(lp744
Vvalaji
p745
aS'is a'
p746
aVsymmetric ragam
p747
aa(lp748
Vvalaji
p749
aVnot contain
p750
aVmadhyamam
p751
aa(lp752
Vvalaji
p753
ag750
aVrishabham
p754
aa(lp755
Vvalaji
p756
aS'is a'
p757
aVpentatonic scale
p758
aa(lp759
Vvalaji
p760
aS'is a'
p761
aVscale
p762
aa(lp763
Vmelakarta
p764
aS'a type of'
p765
aVscale
p766
aa(lp767
Vvalaji
p768
aVassociate with
p769
aVchakravakam
p770
aa(lp771
Vvalaji
p772
aS'is a'
p773
aVscale
p774
aa(lp775
Vvalaji
p776
aS'is a'
p777
aVplease scale
p778
aa(lp779
Vvalaji
p780
aVhave
p781
aVfew composition
p782
aa(lp783
Vvalaji
p784
aVuse to
p785
aVfilm music
p786
aa(lp787
Vmalahari
p788
aS'is a'
p789
aVraga
p790
aa(lp791
Vmalahari
p792
aS'is a'
p793
aVancient raga
p794
aa(lp795
Vmalahari
p796
aVgroup under
p797
aVmelum
p798
aa(lp799
Vmalahari
p800
aS'is a'
p801
aVother
p802
aa(lp803
Vmalahari
p804
aS'is a'
p805
aVseveral other
p806
aa(lp807
Vugabhoga
p808
aS'a type of'
p809
aVform
p810
aa(lp811
Vjhalavarali
p812
aS'is a'
p813
aVragam
p814
aa(lp815
Vjhalavarali
p816
aVragam in
p817
aVmusic
p818
aa(lp819
Vmelakarta
p820
aS'a type of'
p821
aVsystem
p822
aa(lp823
Vmelakarta
p824
aS'a type of'
p825
aVragam
p826
aa(lp827
Vjanya
p828
aS'a type of'
p829
aVragam
p830
aa(lp831
Vjhalavarali
p832
aVhave
p833
aVjanya ragam
p834
aa(lp835
Vniroshta
p836
aS'is a'
p837
aVragam
p838
aa(lp839
Vniroshta
p840
aVragam in
p841
aVmusic
p842
aa(lp843
Vniroshta
p844
aS'is a'
p845
aVpentatonic scale
p846
aa(lp847
Vniroshta
p848
aS'is a'
p849
aVscale
p850
aa(lp851
Vniroshta
p852
aVmean without
p853
aVlip
p854
aa(lp855
Vniroshta
p856
aS'is a'
p857
aVragam
p858
aa(lp859
Vniroshta
p860
aS'is a'
p861
aVpleasing ragam
p862
aa(lp863
Vniroshta
p864
aS'is a'
p865
aVsymmetric scale
p866
aa(lp867
Vniroshta
p868
aS'is a'
p869
aVpentatonic scale
p870
aa(lp871
Vniroshta
p872
aS'is a'
p873
aVscale
p874
aa(lp875
Vniroshta
p876
aVnot contain
p877
aVmadhyamam
p878
aa(lp879
Vniroshta
p880
ag877
aVpanchamam
p881
aa(lp882
Vvarnam
p883
aS'a type of'
p884
aVkanin_maniye
p885
aa(lp886
Vmalahari
p887
aS'is a'
p888
aVraga
p889
aa(lp890
Vmalahari
p891
aS'is a'
p892
aVcarnatic raga
p893
aa(lp894
Vkunnakudi subbalakshmi
p895
aVbear on
p896
aV21_april_1931
p897
aa(lp898
Vkunnakudi subbalakshmi
p899
aVbear under
p900
aVmadras presidency
p901
aa(lp902
Vkunnakudi subbalakshmi
p903
aVbear in
p904
aVtown
p905
aa(lp906
Vtyagaraja aradhana
p907
aVconduct at
p908
aVthanjavur
p909
aa(lp910
Vtyagaraja aradhana
p911
aVconduct for
p912
aV25
p913
aa(lp914
Vtyagaraja
p915
aVwrite
p916
aVkeerthana
p917
aa(lp918
Vkamaladevi chattopadhyay
p919
aS'is a'
p920
aVindian fighter
p921
aa(lp922
Vkamaladevi chattopadhyay
p923
aS'is a'
p924
aVfighter
p925
aa(lp926
Vkamaladevi chattopadhyay
p927
aS'is a'
p928
aVreformer
p929
aa(lp930
Vkamaladevi chattopadhyay
p931
aS'is a'
p932
aVindian reformer
p933
aa(lp934
Vkamaladevi chattopadhyay
p935
aS'is a'
p936
aVsocial reformer
p937
aa(lp938
Vkamaladevi chattopadhyay
p939
aS'is a'
p940
aVsocial fighter
p941
aa(lp942
Vkamaladevi chattopadhyay
p943
aS'is a'
p944
aVfreedom fighter
p945
aa(lp946
Vrasika
p947
aVterm for
p948
aVaesthete
p949
aa(lp950
Vyazh
p951
aVancestor of
p952
aVlute
p953
aa(lp954
Vyazh
p955
aVancestor of
p956
aVday modern veena
p957
aa(lp958
Vyazh
p959
aS'is a'
p960
aVdirect ancestor
p961
aa(lp962
Vyazh
p963
aS'is a'
p964
aVancestor
p965
aa(lp966
Vkancherla gopanna
p967
aS'is a'
p968
aVson-in-law
p969
aa(lp970
Vkancherla gopanna
p971
aVson-in-law of
p972
aVfamily
p973
aa(lp974
Vjanya
p975
aS'a type of'
p976
aVjatus
p977
aa(lp978
Vbilahari
p979
aVragam in
p980
aVmusic
p981
aa(lp982
Vbilahari
p983
aS'is a'
p984
aVragam
p985
aa(lp986
Vmelakarta
p987
aS'a type of'
p988
aVscale
p989
aa(lp990
Vbilahari
p991
aVragam from
p992
aVmelakarta scale
p993
aa(lp994
Vbilahari
p995
aS'is a'
p996
aVjanya ragam
p997
aa(lp998
Vbilahari
p999
aS'is a'
p1000
aVragam
p1001
aa(lp1002
Vjanya
p1003
aS'a type of'
p1004
aVragam
p1005
aa(lp1006
Vjanya
p1007
aS'a type of'
p1008
aVscale
p1009
aa(lp1010
Vbilahari
p1011
aS'is a'
p1012
aVscale
p1013
aa(lp1014
Vbilahari
p1015
aS'is a'
p1016
aVjanya scale
p1017
aa(lp1018
Vbilahari
p1019
aVnot have
p1020
aVswara
p1021
aa(lp1022
Vmohanam
p1023
aS'a type of'
p1024
aVcombination
p1025
aa(lp1026
Vbilahari
p1027
aVcombination of
p1028
aVpentatonic scale
p1029
aa(lp1030
Vbilahari
p1031
aS'is a'
p1032
aVsampurna scale
p1033
aa(lp1034
Vbilahari
p1035
aS'is a'
p1036
aVshankarabharanam scale
p1037
aa(lp1038
Vbilahari
p1039
aS'is a'
p1040
aVcombination
p1041
aa(lp1042
Vbilahari
p1043
aS'is a'
p1044
aVmohanam combination
p1045
aa(lp1046
Vbilahari
p1047
aS'is a'
p1048
aVscale
p1049
aa(lp1050
Vbilahari
p1051
aS'is a'
p1052
aVraga scale
p1053
aa(lp1054
Vbilahari
p1055
aS'is a'
p1056
aVragam
p1057
aa(lp1058
Vbilahari
p1059
aS'is a'
p1060
aVmorning ragam
p1061
aa(lp1062
Vbilahari
p1063
aVnot contain
p1064
aVnishadham
p1065
aa(lp1066
Vbilahari
p1067
ag1064
aVmadhyamam
p1068
aa(lp1069
Vbilahari
p1070
aS'is a'
p1071
aVasymmetric ragam
p1072
aa(lp1073
Vbilahari
p1074
aS'is a'
p1075
aVragam
p1076
aa(lp1077
Vbilahari
p1078
aS'is a'
p1079
aVaudava-sampurna ragam
p1080
aa(lp1081
Vbilahari
p1082
aS'is a'
p1083
aVragam
p1084
aa(lp1085
Vcarnatic music
p1086
aVsing
p1087
aVduo
p1088
aa(lp1089
Vdwaram lakshmi
p1090
aVsinger of
p1091
aVhindustani music
p1092
aa(lp1093
Vdwaram lakshmi
p1094
aS'is a'
p1095
aVsinger
p1096
aa(lp1097
Vdwaram lakshmi
p1098
aS'is a'
p1099
aVindian singer
p1100
aa(lp1101
Vdwaram lakshmi
p1102
aVperform
p1103
aVbhajana
p1104
aa(lp1105
Vdwaram lakshmi
p1106
aVpopularise
p1107
aVcarnatic music
p1108
aa(lp1109
Vdwaram lakshmi
p1110
aVconduct
p1111
aVworkshop
p1112
aa(lp1113
Vnavaneetam
p1114
aS'is a'
p1115
aVragam
p1116
aa(lp1117
Vnavaneetam
p1118
aVragam in
p1119
aVmusic
p1120
aa(lp1121
Vmelakarta
p1122
aS'a type of'
p1123
aVsystem
p1124
aa(lp1125
Vmelakarta
p1126
aS'a type of'
p1127
aVragam
p1128
aa(lp1129
Vmelakarta
p1130
aS'a type of'
p1131
aVragam
p1132
aa(lp1133
Vjanya
p1134
aS'a type of'
p1135
aVragam
p1136
aa(lp1137
Vshulini
p1138
aS'is a'
p1139
aVragam
p1140
aa(lp1141
Vshulini
p1142
aVragam in
p1143
aVmusic
p1144
aa(lp1145
Vmelakarta
p1146
aS'a type of'
p1147
aVragam
p1148
aa(lp1149
g1146
aS'a type of'
p1150
aVsystem
p1151
aa(lp1152
Vmelakarta
p1153
aS'a type of'
p1154
aVragam
p1155
aa(lp1156
Vmelakarta
p1157
aS'a type of'
p1158
aVscale
p1159
aa(lp1160
Vjanya
p1161
aS'a type of'
p1162
aVragam
p1163
aa(lp1164
Vshulini
p1165
aVhave
p1166
aVcouple
p1167
aa(lp1168
Vvakulabharanam
p1169
aS'is a'
p1170
aVragam
p1171
aa(lp1172
Vvakulabharanam
p1173
aVragam in
p1174
aVmusic
p1175
aa(lp1176
Vmelakarta
p1177
aS'a type of'
p1178
aVragam
p1179
aa(lp1180
g1177
aS'a type of'
p1181
aVsystem
p1182
aa(lp1183
Vvakulabharanam
p1184
aVcall in
p1185
aVschool
p1186
aa(lp1187
Vmelakarta
p1188
aS'a type of'
p1189
aVragam
p1190
aa(lp1191
Vvakulabharanam
p1192
aS'is a'
p1193
aVsampoorna ragam
p1194
aa(lp1195
Vvakulabharanam
p1196
aS'is a'
p1197
aVragam
p1198
aa(lp1199
Vmelakarta
p1200
aS'a type of'
p1201
aVscale
p1202
aa(lp1203
Vvakulabharanam
p1204
aVequivalent of
p1205
aVnamanarayani
p1206
aa(lp1207
Vvakulabharanam
p1208
aS'is a'
p1209
aVequivalent
p1210
aa(lp1211
Vvakulabharanam
p1212
aS'is a'
p1213
aVmadhyamam equivalent
p1214
aa(lp1215
Vvakulabharanam
p1216
aS'is a'
p1217
aVshuddha equivalent
p1218
aa(lp1219
Vvenkatamakhin
p1220
aVcompile
p1221
aVoriginal list
p1222
aa(lp1223
Vmuthuswami dikshitar
p1224
aVs
p1225
aVcomposition prasanna_venkateshwaram
p1226
aa(lp1227
Vvenkatamakhin
p1228
aVmake
p1229
aVfoundational contribution
p1230
aa(lp1231
Vsvaramelakalanidhi
p1232
aVintroduce
p1233
aVconcept
p1234
aa(lp1235
Vsvaramelakalanidhi
p1236
aVrationalize
p1237
aVinterval
p1238
aa(lp1239
Vsvaramelakalanidhi
p1240
ag1237
aVscale
p1241
aa(lp1242
Vsvaramelakalanidhi
p1243
aVbring
p1244
aVtheory
p1245
aa(lp1246
Vnedumangad sivanandan
p1247
aVbear to
p1248
aVdakshayani_amma
p1249
aa(lp1250
Vnedumangad sivanandan
p1251
aVbear to
p1252
aVharmonist-vocalist neyyanttingara_vasudevan_pillai
p1253
aa(lp1254
Vnedumangad sivanandan
p1255
aVbear in
p1256
aVneyyatinkara
p1257
aa(lp1258
Vnedumangad sivanandan
p1259
aVbear in
p1260
aVdistrict
p1261
aa(lp1262
Vnedumangad sivanandan
p1263
aVmarry to
p1264
aVvilasini_s._nair
p1265
aa(lp1266
Vswarajati
p1267
aVform in
p1268
aVmusic
p1269
aa(lp1270
Vswarajati
p1271
aS'is a'
p1272
aVform
p1273
aa(lp1274
Vswarajati
p1275
aVhave
p1276
aVpallavus
p1277
aa(lp1278
Vswarajati
p1279
aVcompose in
p1280
aVnumerous raaga
p1281
aa(lp1282
Vmanodharma
p1283
aS'a type of'
p1284
aVsangeetham
p1285
aa(lp1286
Vvarnam
p1287
aVpiece of
p1288
aVshort duration
p1289
aa(lp1290
Vvarnam
p1291
aS'is a'
p1292
aVpiece
p1293
aa(lp1294
Vvarnam
p1295
aVset to
p1296
aVaadi
p1297
aa(lp1298
Vvarnam
p1299
aVperform at
p1300
aVstart
p1301
aa(lp1302
Vcharanam
p1303
aVcompose on
p1304
aVraga theme
p1305
aa(lp1306
Vniraval
p1307
aVperform in
p1308
aVextempore manner
p1309
aa(lp1310
Vmadhyamavati
p1311
aS'a type of'
p1312
aVraga
p1313
aa(lp1314
Vvagadheeswari
p1315
aVragam in
p1316
aVmusic
p1317
aa(lp1318
Vvagadheeswari
p1319
aS'is a'
p1320
aVragam
p1321
aa(lp1322
Vmelakarta
p1323
aS'a type of'
p1324
aVragam
p1325
aa(lp1326
g1323
aS'a type of'
p1327
aVsystem
p1328
aa(lp1329
Vmelakarta
p1330
aS'a type of'
p1331
aVragam
p1332
aa(lp1333
Vmelakarta
p1334
aS'a type of'
p1335
aVscale
p1336
aa(lp1337
Vjanya
p1338
aS'a type of'
p1339
aVragam
p1340
aa(lp1341
Vpunya srinivas
p1342
aS'is a'
p1343
aVvainika
p1344
aa(lp1345
Vpunya srinivas
p1346
aS'is a'
p1347
aVprofessional vocalist
p1348
aa(lp1349
Vpunya srinivas
p1350
aS'is a'
p1351
aVvocalist
p1352
aa(lp1353
Vpunya srinivas
p1354
aS'is a'
p1355
aVprofessional vainika
p1356
aa(lp1357
Vpallavi
p1358
aVpresent as
p1359
aVpiece-de-resistance
p1360
aa(lp1361
Vsaketharaman
p1362
aS'is a'
p1363
aVmusician
p1364
aa(lp1365
Vsaketharaman
p1366
aS'is a'
p1367
aVperform musician
p1368
aa(lp1369
Vsaketharaman
p1370
aVmusician of
p1371
aVmusic
p1372
aa(lp1373
Vsaketharaman
p1374
aVimbibe
p1375
aVlalgudi famous bani
p1376
aa(lp1377
Virayimman thampi
p1378
aVwrite
p1379
aVomanathinkal lullaby famous kidavo
p1380
aa(lp1381
Virayimman thampi
p1382
aVdie in
p1383
aV1856
p1384
aa(lp1385
Vjyoti swarupini
p1386
aS'is a'
p1387
aVragam
p1388
aa(lp1389
Vjyoti swarupini
p1390
aVragam in
p1391
aVmusic
p1392
aa(lp1393
Vmelakarta
p1394
aS'a type of'
p1395
aVsystem
p1396
aa(lp1397
Vmelakarta
p1398
aS'a type of'
p1399
aVragam
p1400
aa(lp1401
Vjanya
p1402
aS'a type of'
p1403
aVragam
p1404
aa(lp1405
Vmelakarta
p1406
aS'a type of'
p1407
aVragam
p1408
aa(lp1409
Vshivaranjani
p1410
aS'a type of'
p1411
aVscale
p1412
aa(lp1413
Vcarnatic music
p1414
aVmusic 's
p1415
aVhindustani
p1416
aa(lp1417
g1414
aVmusic 's
p1418
aVhindustani
p1419
aa(lp1420
Vjanya
p1421
aS'a type of'
p1422
aVragam
p1423
aa(lp1424
Vshivaranjani
p1425
aS'a type of'
p1426
aVstart
p1427
aa(lp1428
Vshivaranjani
p1429
aVvakra
p1430
aVscale
p1431
aa(lp1432
Vshivaranjani
p1433
ag1430
aVprayoga
p1434
aa(lp1435
Vshivaranjani
p1436
ag1430
aVscale
p1437
aa(lp1438
Vvarnam
p1439
aVform of
p1440
aVsong
p1441
aa(lp1442
Vvarnam
p1443
aS'is a'
p1444
aVform
p1445
aa(lp1446
Vvarnam
p1447
aS'is a'
p1448
aVpiece
p1449
aa(lp1450
Vvarnam
p1451
aS'is a'
p1452
aVlong piece
p1453
aa(lp1454
Vvarnam
p1455
aVrange from
p1456
aV30
p1457
aa(lp1458
Vvarnam
p1459
aVset to
p1460
aVaadi
p1461
aa(lp1462
Vvarnam
p1463
aS'is a'
p1464
aVpiece
p1465
aa(lp1466
Vvarnam
p1467
aS'is a'
p1468
aVcenter piece
p1469
aa(lp1470
Vvarnam
p1471
aVpiece in
p1472
aVrecital
p1473
aa(lp1474
Vvarnam
p1475
aVvarnam 's
p1476
aVtaana
p1477
aa(lp1478
Vvarnam
p1479
aVvarnam 's
p1480
aVtaana
p1481
aa(lp1482
Vcharanam
p1483
aS'a type of'
p1484
aVsection
p1485
aa(lp1486
Vpallavi
p1487
aVrepeat in
p1488
aVdouble speed
p1489
aa(lp1490
Vmuthu thandavar
p1491
aS'is a'
p1492
aVcomposer
p1493
aa(lp1494
Vmuthu thandavar
p1495
aVcomposer of
p1496
aVmusic
p1497
aa(lp1498
Vmuthu thandavar
p1499
aVlive in
p1500
aVtamil_nadu
p1501
aa(lp1502
Vmuthu thandavar
p1503
aVlive in
p1504
aVtown
p1505
aa(lp1506
Vmuthu thandavar
p1507
aVknow as
p1508
aVtamil_trinity_of_carnatic music
p1509
aa(lp1510
Vmuthu thandavar
p1511
aVknow with
p1512
aVmarimutthu_pillai
p1513
aa(lp1514
Vmuthu thandavar
p1515
aVknow with
p1516
aVarunachala_kavi
p1517
aa(lp1518
Vmuthu thandavar
p1519
aVcompose
p1520
aVseveral padam
p1521
aa(lp1522
Vmuthu thandavar
p1523
ag1520
aVshort song
p1524
aa(lp1525
Vjanya
p1526
aS'a type of'
p1527
aVragam
p1528
aa(lp1529
Vmelakarta
p1530
aS'a type of'
p1531
aVscale
p1532
aa(lp1533
Vmayamalavagowla
p1534
aS'a type of'
p1535
aVragam
p1536
aa(lp1537
Vmridangam
p1538
aVmridangam on
p1539
aVoccasion
p1540
aa(lp1541
g1538
aVmridangam 's
p1542
aVveteran
p1543
aa(lp1544
Vsunadavinodini
p1545
aVragam in
p1546
aVmusic
p1547
aa(lp1548
Vsunadavinodini
p1549
aS'is a'
p1550
aVragam
p1551
aa(lp1552
Vsunadavinodini
p1553
aS'is a'
p1554
aVaudava ragam
p1555
aa(lp1556
Vsunadavinodini
p1557
aS'is a'
p1558
aVragam
p1559
aa(lp1560
Vjanya
p1561
aS'a type of'
p1562
aVragam
p1563
aa(lp1564
Vsunadavinodini
p1565
aS'is a'
p1566
aVjanya ragam
p1567
aa(lp1568
Vsunadavinodini
p1569
aS'is a'
p1570
aVragam
p1571
aa(lp1572
Vsunadavinodini
p1573
aVnot have
p1574
aVswara
p1575
aa(lp1576
Vsunadavinodini
p1577
aVnot contain
p1578
aVpanchamam
p1579
aa(lp1580
Vsunadavinodini
p1581
ag1578
aVrishabham
p1582
aa(lp1583
Vsunadavinodini
p1584
aS'is a'
p1585
aVragam
p1586
aa(lp1587
Vsunadavinodini
p1588
aS'is a'
p1589
aVsymmetric ragam
p1590
aa(lp1591
Vsunadavinodini
p1592
aS'is a'
p1593
aVpentatonic scale
p1594
aa(lp1595
Vsunadavinodini
p1596
aS'is a'
p1597
aVscale
p1598
aa(lp1599
Vkamavardani
p1600
aVragam in
p1601
aVmusic
p1602
aa(lp1603
Vkamavardani
p1604
aS'is a'
p1605
aVragam
p1606
aa(lp1607
Vmelakarta
p1608
aS'a type of'
p1609
aVsystem
p1610
aa(lp1611
Vkamavardani
p1612
aVequivalent of
p1613
aVmayamalavagowla
p1614
aa(lp1615
Vkamavardani
p1616
aS'is a'
p1617
aVequivalent
p1618
aa(lp1619
Vkamavardani
p1620
aS'is a'
p1621
aVpratus equivalent
p1622
aa(lp1623
Vkamavardani
p1624
aS'is a'
p1625
aVmadhyamam equivalent
p1626
aa(lp1627
Vjanya
p1628
aS'a type of'
p1629
aVragam
p1630
aa(lp1631
Vmanikkavacakar
p1632
aVpoet 's
p1633
aVtamil
p1634
aa(lp1635
Vmanikkavacakar
p1636
aS'is a'
p1637
aVpoet
p1638
aa(lp1639
Vgayakapriya
p1640
aVragam in
p1641
aVmusic
p1642
aa(lp1643
Vgayakapriya
p1644
aS'is a'
p1645
aVragam
p1646
aa(lp1647
Vmelakarta
p1648
aS'a type of'
p1649
aVsystem
p1650
aa(lp1651
Vgayakapriya
p1652
aS'is a'
p1653
aVragam
p1654
aa(lp1655
Vgayakapriya
p1656
aVragam 's
p1657
aVth melakarta
p1658
aa(lp1659
Vgayakapriya
p1660
aVragam in
p1661
aVmelakarta system
p1662
aa(lp1663
Vgayakapriya
p1664
aVcall in
p1665
aVschool
p1666
aa(lp1667
Vmelakarta
p1668
aS'a type of'
p1669
aVragam
p1670
aa(lp1671
Vgayakapriya
p1672
aS'is a'
p1673
aVmelakarta ragam
p1674
aa(lp1675
Vgayakapriya
p1676
aS'is a'
p1677
aVragam
p1678
aa(lp1679
Vgayakapriya
p1680
aS'is a'
p1681
aVsampoorna ragam
p1682
aa(lp1683
Vgayakapriya
p1684
aS'is a'
p1685
aVragam
p1686
aa(lp1687
Vgayakapriya
p1688
aVequivalent of
p1689
aVdhavalambari
p1690
aa(lp1691
Vgayakapriya
p1692
aS'is a'
p1693
aVequivalent
p1694
aa(lp1695
Vgayakapriya
p1696
aS'is a'
p1697
aVmadhyamam equivalent
p1698
aa(lp1699
Vgayakapriya
p1700
aS'is a'
p1701
aVshuddha equivalent
p1702
aa(lp1703
Vvenkatamakhin
p1704
aVcompile
p1705
aVoriginal list
p1706
aa(lp1707
Vmuthuswami dikshitar
p1708
ag1225
aVbhakthum
p1709
aa(lp1710
Vtyagaraja
p1711
aVinfluence
p1712
aVghanam_krishna_iyar
p1713
aa(lp1714
Varuna sairam
p1715
aVvocalist 's
p1716
aVeminent carnatic
p1717
aa(lp1718
Varuna sairam
p1719
aS'is a'
p1720
aVmusic vocalist
p1721
aa(lp1722
Varuna sairam
p1723
aS'is a'
p1724
aVvocalist
p1725
aa(lp1726
Varuna sairam
p1727
aS'is a'
p1728
aVrecipient
p1729
aa(lp1730
Varuna sairam
p1731
aVrecipient of
p1732
aVaward
p1733
aa(lp1734
Varuna sairam
p1735
aVreceive
p1736
aVtraining
p1737
aa(lp1738
Varuna sairam
p1739
aVsing from
p1740
aVt._r._subramaniam
p1741
aa(lp1742
Varuna sairam
p1743
aVlearn
p1744
aVart
p1745
aa(lp1746
Vveena kuppayyar
p1747
aS'is a'
p1748
aVexponent
p1749
aa(lp1750
Vveena kuppayyar
p1751
aVexponent of
p1752
aVveena_kuppayyar
p1753
aa(lp1754
Vveena kuppayyar
p1755
aVhave
p1756
aVsambamoorti_sastri training
p1757
aa(lp1758
Vkunnakudi vaidyanathan
p1759
aVlearn
p1760
aVsouth_indian_classical_music
p1761
aa(lp1762
Vkunnakudi vaidyanathan
p1763
aVhave
p1764
aVdeep faith
p1765
aa(lp1766
Vkunnakudi vaidyanathan
p1767
aVhave
p1768
aVguest appearance
p1769
aa(lp1770
Vkunnakudi vaidyanathan
p1771
aVreceive
p1772
aVaward
p1773
aa(lp1774
Vragavardhini
p1775
aVhave
p1776
aVtwo
p1777
aa(lp1778
Vmelakarta
p1779
aS'a type of'
p1780
aVragam
p1781
aa(lp1782
g1779
aS'a type of'
p1783
aVsystem
p1784
aa(lp1785
Vmelakarta
p1786
aS'a type of'
p1787
aVscale
p1788
aa(lp1789
Vjanya
p1790
aS'a type of'
p1791
aVraga
p1792
aa(lp1793
Vthavil
p1794
aS'a type of'
p1795
aVartist
p1796
aa(lp1797
Vhatakambari
p1798
aVragam in
p1799
aVmusic
p1800
aa(lp1801
Vhatakambari
p1802
aS'is a'
p1803
aVragam
p1804
aa(lp1805
Vmelakarta
p1806
aS'a type of'
p1807
aVsystem
p1808
aa(lp1809
Vhatakambari
p1810
aS'is a'
p1811
aVragam
p1812
aa(lp1813
Vhatakambari
p1814
aVragam 's
p1815
aVth melakarta
p1816
aa(lp1817
Vhatakambari
p1818
aVragam in
p1819
aVmelakarta system
p1820
aa(lp1821
Vhatakambari
p1822
aVcall in
p1823
aVschool
p1824
aa(lp1825
Vmelakarta
p1826
aS'a type of'
p1827
aVragam
p1828
aa(lp1829
Vhatakambari
p1830
aS'is a'
p1831
aVmelakarta ragam
p1832
aa(lp1833
Vhatakambari
p1834
aS'is a'
p1835
aVragam
p1836
aa(lp1837
Vhatakambari
p1838
aS'is a'
p1839
aVsampoorna ragam
p1840
aa(lp1841
Vhatakambari
p1842
aS'is a'
p1843
aVragam
p1844
aa(lp1845
Vhatakambari
p1846
aVequivalent of
p1847
aVvishwambari
p1848
aa(lp1849
Vhatakambari
p1850
aS'is a'
p1851
aVequivalent
p1852
aa(lp1853
Vhatakambari
p1854
aS'is a'
p1855
aVmadhyamam equivalent
p1856
aa(lp1857
Vhatakambari
p1858
aS'is a'
p1859
aVshuddha equivalent
p1860
aa(lp1861
Vvenkatamakhin
p1862
aVcompile
p1863
aVoriginal list
p1864
aa(lp1865
Vjanya
p1866
aS'a type of'
p1867
aVragam
p1868
aa(lp1869
Vhatakambari
p1870
aVhave
p1871
aVminor ragam
p1872
aa(lp1873
Vnadaswaram
p1874
aS'a type of'
p1875
aVartist
p1876
aa(lp1877
Vcherukuri srisailam
p1878
aVperform
p1879
aVprogram
p1880
aa(lp1881
Vkanakangi
p1882
aVragam in
p1883
aVmusic
p1884
aa(lp1885
Vkanakangi
p1886
aS'is a'
p1887
aVragam
p1888
aa(lp1889
Vmelakarta
p1890
aS'a type of'
p1891
aVsystem
p1892
aa(lp1893
Vkanakangi
p1894
aS'is a'
p1895
aVragam
p1896
aa(lp1897
Vkanakangi
p1898
aVragam 's
p1899
aVst melakarta
p1900
aa(lp1901
Vkanakangi
p1902
aVragam in
p1903
aVmelakarta system
p1904
aa(lp1905
Vvenkatamakhin
p1906
aVcompile
p1907
aVoriginal list
p1908
aa(lp1909
Vmelakarta
p1910
aS'a type of'
p1911
aVraga
p1912
aa(lp1913
Vniraval
p1914
aS'a type of'
p1915
aVsinging
p1916
aa(lp1917
Vgayathri girish
p1918
aVbe amongst
p1919
aVvocalist
p1920
aa(lp1921
Vhanumatodi
p1922
aVragam in
p1923
aVmusic
p1924
aa(lp1925
Vhanumatodi
p1926
aVknow as
p1927
aVtodi
p1928
aa(lp1929
Vhanumatodi
p1930
aS'is a'
p1931
aVragam
p1932
aa(lp1933
Vmelakarta
p1934
aS'a type of'
p1935
aVsystem
p1936
aa(lp1937
g1934
aS'a type of'
p1938
aVragam
p1939
aa(lp1940
Vshubhapantuvarali
p1941
aS'is a'
p1942
aVequivalent
p1943
aa(lp1944
Vshubhapantuvarali
p1945
aVequivalent of
p1946
aVmusic raga todi
p1947
aa(lp1948
Vmelakarta
p1949
aS'a type of'
p1950
aVscale
p1951
aa(lp1952
Vmysore vasudevachar
p1953
aVbecome
p1954
aVchief musician
p1955
aa(lp1956
Vmysore vasudevachar
p1957
aVteach in
p1958
aVrukmini_devi
p1959
aa(lp1960
Vdharmavati
p1961
aS'is a'
p1962
aVragam
p1963
aa(lp1964
Vdharmavati
p1965
aVragam in
p1966
aVmusic
p1967
aa(lp1968
Vdharmavati
p1969
aS'is a'
p1970
aVragam
p1971
aa(lp1972
Vmelakarta
p1973
aS'a type of'
p1974
aVsystem
p1975
aa(lp1976
Vdharmavati
p1977
aVragam 's
p1978
aVth melakarta
p1979
aa(lp1980
Vdharmavati
p1981
aVragam in
p1982
aVmelakarta system
p1983
aa(lp1984
Vmadhuvanti
p1985
aS'is a'
p1986
aVnearest scale
p1987
aa(lp1988
Vmadhuvanti
p1989
aS'is a'
p1990
aVscale
p1991
aa(lp1992
Vmadhuvanti
p1993
aS'is a'
p1994
aVmusic scale
p1995
aa(lp1996
Vmadhuvanti
p1997
aS'is a'
p1998
aVhindustani scale
p1999
aa(lp2000
Vmadhuvanti
p2001
aVscale to
p2002
aVdharmavati
p2003
aa(lp2004
Vmelakarta
p2005
aS'a type of'
p2006
aVragam
p2007
aa(lp2008
Vdharmavati
p2009
aS'is a'
p2010
aVmelakarta ragam
p2011
aa(lp2012
Vdharmavati
p2013
aS'is a'
p2014
aVragam
p2015
aa(lp2016
Vdharmavati
p2017
aS'is a'
p2018
aVsampoorna ragam
p2019
aa(lp2020
Vdharmavati
p2021
aS'is a'
p2022
aVragam
p2023
aa(lp2024
Vdharmavati
p2025
aVequivalent of
p2026
aVgourimanohari
p2027
aa(lp2028
Vdharmavati
p2029
aS'is a'
p2030
aVpratus equivalent
p2031
aa(lp2032
Vdharmavati
p2033
aS'is a'
p2034
aVequivalent
p2035
aa(lp2036
Vdharmavati
p2037
aS'is a'
p2038
aVmadhyamam equivalent
p2039
aa(lp2040
Vkshetrayya
p2041
aS'a type of'
p2042
aVlife
p2043
aa(lp2044
Vjanya
p2045
aS'a type of'
p2046
aVragam
p2047
aa(lp2048
Vkharaharapriya
p2049
aVragam of
p2050
aVkharaharapriya
p2051
aa(lp2052
Vkharaharapriya
p2053
aVragam 's
p2054
aVnd melakarta
p2055
aa(lp2056
Vkharaharapriya
p2057
aS'is a'
p2058
aVragam
p2059
aa(lp2060
Vjanya
p2061
aS'a type of'
p2062
aVraga
p2063
aa(lp2064
Vdhavalambari
p2065
aS'is a'
p2066
aVragam
p2067
aa(lp2068
Vdhavalambari
p2069
aVragam in
p2070
aVmusic
p2071
aa(lp2072
Vmelakarta
p2073
aS'a type of'
p2074
aVsystem
p2075
aa(lp2076
Vmelakarta
p2077
aS'a type of'
p2078
aVragam
p2079
aa(lp2080
Vjanya
p2081
aS'a type of'
p2082
aVragam
p2083
aa(lp2084
Vdhavalambari
p2085
aVhave
p2086
aVminor ragam
p2087
aa(lp2088
Vcarnatic music
p2089
aVsing
p2090
aVduo
p2091
aa(lp2092
Vpakad
p2093
aVpakad for
p2094
aVyaman
p2095
aa(lp2096
g2093
aVbe for
p2097
aVexample
p2098
aa(lp2099
Vpalghat parameswara bhagavathar
p2100
aS'is a'
p2101
aVmusic composer
p2102
aa(lp2103
Vpalghat parameswara bhagavathar
p2104
aS'is a'
p2105
aVmusician
p2106
aa(lp2107
Vpalghat parameswara bhagavathar
p2108
aS'is a'
p2109
aVcarnatic musician
p2110
aa(lp2111
Vpalghat parameswara bhagavathar
p2112
aS'is a'
p2113
aVcarnatic composer
p2114
aa(lp2115
Vpalghat parameswara bhagavathar
p2116
aS'is a'
p2117
aVcomposer
p2118
aa(lp2119
Vpalghat parameswara bhagavathar
p2120
aS'is a'
p2121
aVmusic musician
p2122
aa(lp2123
Vneralattu rama poduval
p2124
aVmarry
p2125
aVlakshmikutty_amma
p2126
aa(lp2127
Vneralattu rama poduval
p2128
aVdie on
p2129
aVaugust_13_,_1996
p2130
aa(lp2131
Vneralattu rama poduval
p2132
aVage
p2133
aV75
p2134
aa(lp2135
Vmelakarta
p2136
aS'a type of'
p2137
aVsystem
p2138
aa(lp2139
Vmelakarta
p2140
aS'a type of'
p2141
aVragam
p2142
aa(lp2143
Vjanya
p2144
aS'a type of'
p2145
aVragam
p2146
aa(lp2147
Vtanam
p2148
aS'a type of'
p2149
aVpallavi
p2150
aa(lp2151
Vtanam
p2152
aS'a type of'
p2153
aVpallavus
p2154
aa(lp2155
Vtanam
p2156
aVof
p2157
aVimportant form
p2158
aa(lp2159
Vtanam
p2160
aVintegral to
p2161
aVragam
p2162
aa(lp2163
Vtanam
p2164
aS'is a'
p2165
aVsecond component
p2166
aa(lp2167
Vtanam
p2168
aS'is a'
p2169
aVcomponent
p2170
aa(lp2171
Vtanam
p2172
aVcomponent of
p2173
aVcomposite form
p2174
aa(lp2175
Vtanam
p2176
aS'is a'
p2177
aVversion
p2178
aa(lp2179
Vtanam
p2180
aS'is a'
p2181
aVrhythmic version
p2182
aa(lp2183
Vtanam
p2184
aVversion of
p2185
aVraga alapana
p2186
aa(lp2187
Vpallavi
p2188
aS'is a'
p2189
aVequivalent
p2190
aa(lp2191
Vpallavi
p2192
aVequivalent of
p2193
aVrefrain
p2194
aa(lp2195
Vpallavi
p2196
aS'is a'
p2197
aVcomposition
p2198
aa(lp2199
Vpallavi
p2200
aS'is a'
p2201
aVone-line composition
p2202
aa(lp2203
Vpallavi
p2204
aVset to
p2205
aVsingle cycle
p2206
aa(lp2207
Vpallavi
p2208
aVhave
p2209
aV2
p2210
aa(lp2211
Vpallavi
p2212
aVset to
p2213
aVmost case
p2214
aa(lp2215
Vpallavi
p2216
aVsing in
p2217
ag2210
aa(lp2218
Vpallavi
p2219
aVsing in
p2220
aVone
p2221
aa(lp2222
Vpallavi
p2223
aVchallenge
p2224
aVmusician ability
p2225
aa(lp2226
Vmelakarta
p2227
aS'a type of'
p2228
aVragam
p2229
aa(lp2230
g2227
aS'a type of'
p2231
aVsystem
p2232
aa(lp2233
Vmelakarta
p2234
aS'a type of'
p2235
aVscale
p2236
aa(lp2237
Vjanya
p2238
aS'a type of'
p2239
aVragam
p2240
aa(lp2241
Vrangapura vihara
p2242
aVsong 's
p2243
aVfamous carnatic
p2244
aa(lp2245
Vrangapura vihara
p2246
aS'is a'
p2247
aVsong
p2248
aa(lp2249
Vmelakarta
p2250
aS'a type of'
p2251
aVragam
p2252
aa(lp2253
g2250
aS'a type of'
p2254
aVsystem
p2255
aa(lp2256
Vmelakarta
p2257
aS'a type of'
p2258
aVscale
p2259
aa(lp2260
Vjanya
p2261
aS'a type of'
p2262
aVragam
p2263
aa(lp2264
Vvarunapriya
p2265
aS'is a'
p2266
aVragam
p2267
aa(lp2268
Vvarunapriya
p2269
aVragam in
p2270
aVmusic
p2271
aa(lp2272
Vmelakarta
p2273
aS'a type of'
p2274
aVragam
p2275
aa(lp2276
g2273
aS'a type of'
p2277
aVsystem
p2278
aa(lp2279
Vmelakarta
p2280
aS'a type of'
p2281
aVscale
p2282
aa(lp2283
Vvarunapriya
p2284
aVnot janya
p2285
aVragam
p2286
aa(lp2287
Vshree ranjani
p2288
aS'is a'
p2289
aVragam
p2290
aa(lp2291
Vshree ranjani
p2292
aVragam in
p2293
aVmusic
p2294
aa(lp2295
Vshree ranjani
p2296
aVnot contain
p2297
aVpanchamam
p2298
aa(lp2299
Vshree ranjani
p2300
aS'is a'
p2301
aVsymmetric scale
p2302
aa(lp2303
Vshree ranjani
p2304
aS'is a'
p2305
aVscale
p2306
aa(lp2307
Vjanya
p2308
aS'a type of'
p2309
aVragam
p2310
aa(lp2311
Vshree ranjani
p2312
aVragam of
p2313
aVkharaharapriya
p2314
aa(lp2315
Vshree ranjani
p2316
aVragam 's
p2317
aVnd melakarta
p2318
aa(lp2319
Vkharaharapriya
p2320
aVragam of
p2321
aVkharaharapriya
p2322
aa(lp2323
Vkharaharapriya
p2324
aVragam 's
p2325
aVnd melakarta
p2326
aa(lp2327
Vkharaharapriya
p2328
aS'is a'
p2329
aVragam
p2330
aa(lp2331
Vshree ranjani
p2332
aS'is a'
p2333
aVjanya ragam
p2334
aa(lp2335
Vshree ranjani
p2336
aS'is a'
p2337
aVragam
p2338
aa(lp2339
Vshree ranjani
p2340
aS'is a'
p2341
aVpopular ragam
p2342
aa(lp2343
Vshree ranjani
p2344
aS'is a'
p2345
aVpleasing ragam
p2346
aa(lp2347
Vshree ranjani
p2348
aS'is a'
p2349
aVragam
p2350
aa(lp2351
Vmridangam
p2352
aS'a type of'
p2353
aVartist
p2354
aa(lp2355
Vtanam
p2356
aVperform as
p2357
aVpart
p2358
aa(lp2359
g2356
aVperform in
p2360
aVsolo concert
p2361
aa(lp2362
Vmelakarta
p2363
aS'a type of'
p2364
aVsystem
p2365
aa(lp2366
Vmelakarta
p2367
aS'a type of'
p2368
aVragam
p2369
aa(lp2370
Vvenkatamakhin
p2371
aVcompile
p2372
aVoriginal list
p2373
aa(lp2374
Vjanya
p2375
aS'a type of'
p2376
aVragam
p2377
aa(lp2378
Vjhankaradhvani
p2379
aVhave
p2380
aVminor ragam
p2381
aa(lp2382
Vdharmapuri subbarayar
p2383
aS'is a'
p2384
aVcomposer
p2385
aa(lp2386
Vdharmapuri subbarayar
p2387
aVcomposer of
p2388
aVmusic
p2389
aa(lp2390
Vdharmapuri subbarayar
p2391
aVcompose
p2392
aVjaavali
p2393
aa(lp2394
Vtyagaraja
p2395
aVcompose in
p2396
aVmanipravalam
p2397
aa(lp2398
Vmuthuswami dikshitar
p2399
aVdie on
p2400
aV21_october_1835
p2401
aa(lp2402
Vcharanam
p2403
aS'a type of'
p2404
aVkrithi
p2405
aa(lp2406
Vmuthuswami dikshitar
p2407
aVcompose
p2408
aVmany kritis
p2409
aa(lp2410
Vshubhapantuvarali
p2411
aS'is a'
p2412
aVragam
p2413
aa(lp2414
Vshubhapantuvarali
p2415
aVragam in
p2416
aVmusic
p2417
aa(lp2418
Vmelakarta
p2419
aS'a type of'
p2420
aVragam
p2421
aa(lp2422
g2419
aS'a type of'
p2423
aVsystem
p2424
aa(lp2425
Vshubhapantuvarali
p2426
aVcall in
p2427
aVschool
p2428
aa(lp2429
Vmelakarta
p2430
aS'a type of'
p2431
aVragam
p2432
aa(lp2433
Vmelakarta
p2434
aS'a type of'
p2435
aVscale
p2436
aa(lp2437
Vjanya
p2438
aS'a type of'
p2439
aVragam
p2440
aa(lp2441
Vshubhapantuvarali
p2442
aVhave
p2443
aVminor ragam
p2444
aa(lp2445
Vtevaram
p2446
aVfor
p2447
aVshaivism
p2448
aa(lp2449
Vtevaram
p2450
aVof
p2451
aVsole reason
p2452
aa(lp2453
Vdhatuvardani
p2454
aS'is a'
p2455
aVragam
p2456
aa(lp2457
Vdhatuvardani
p2458
aVragam in
p2459
aVmusic
p2460
aa(lp2461
Vdhatuvardani
p2462
aS'is a'
p2463
aVragam
p2464
aa(lp2465
Vmelakarta
p2466
aS'a type of'
p2467
aVsystem
p2468
aa(lp2469
Vdhatuvardani
p2470
aVragam 's
p2471
aVth melakarta
p2472
aa(lp2473
Vdhatuvardani
p2474
aVragam in
p2475
aVmelakarta system
p2476
aa(lp2477
Vdhatuvardani
p2478
aS'is a'
p2479
aVmelakarta ragam
p2480
aa(lp2481
Vdhatuvardani
p2482
aS'is a'
p2483
aVragam
p2484
aa(lp2485
Vmelakarta
p2486
aS'a type of'
p2487
aVragam
p2488
aa(lp2489
Vjanya
p2490
aS'a type of'
p2491
aVragam
p2492
aa(lp2493
Vghatam
p2494
aS'a type of'
p2495
aVplayer
p2496
aa(lp2497
Vmelakarta
p2498
aS'a type of'
p2499
aVsystem
p2500
aa(lp2501
Vvenkatamakhin
p2502
aVcompile
p2503
aVoriginal list
p2504
aa(lp2505
Vjanya
p2506
aS'a type of'
p2507
aVragam
p2508
aa(lp2509
Vchakra tanam
p2510
aVof
p2511
aVstyle
p2512
aa(lp2513
Vchakra tanam
p2514
aVowe
p2515
aVname
p2516
aa(lp2517
Vmelakarta
p2518
aS'a type of'
p2519
aVraga
p2520
aa(lp2521
Vjanya
p2522
aS'a type of'
p2523
aVraga
p2524
aa(lp2525
Vkalpanaswaram
p2526
aVknow as
p2527
aVswarakalpana
p2528
aa(lp2529
Vkalpanaswaram
p2530
aVteach before
p2531
aVother form
p2532
aa(lp2533
Vkalpanaswaram
p2534
aS'is a'
p2535
aVelementary type
p2536
aa(lp2537
Vkalpanaswaram
p2538
aS'is a'
p2539
aVtype
p2540
aa(lp2541
Vkalpanaswaram
p2542
aVtype of
p2543
aVimprovisation
p2544
aa(lp2545
Vtanam
p2546
aVof
p2547
aVimportant form
p2548
aa(lp2549
Vtanam
p2550
aVragam
p2551
aVtanam pallavi
p2552
aa(lp2553
Vkalpanaswaram
p2554
aVfollow
p2555
aVniraval
p2556
aa(lp2557
Vviruttam
p2558
aS'a type of'
p2559
aVpadyamu
p2560
aa(lp2561
g2558
aS'a type of'
p2562
aVform
p2563
aa(lp2564
Vmridangam
p2565
aS'a type of'
p2566
aVplayer
p2567
aa(lp2568
Vkalpanaswaram
p2569
aVkalpanaswaram of
p2570
aVraga
p2571
aa(lp2572
Vniraval
p2573
aS'a type of'
p2574
aVkalpanaswaram
p2575
aa(lp2576
Vandolika
p2577
aS'is a'
p2578
aVraga
p2579
aa(lp2580
Vandolika
p2581
aS'is a'
p2582
aVcarnatic raga
p2583
aa(lp2584
Vghatam
p2585
aS'a type of'
p2586
aVartist
p2587
aa(lp2588
Vrose muralikrishnan
p2589
aVbear in
p2590
aVindia
p2591
aa(lp2592
Vrose muralikrishnan
p2593
aVbear in
p2594
aVchennai
p2595
aa(lp2596
Vrose muralikrishnan
p2597
aVperform
p2598
aVnumerous concert
p2599
aa(lp2600
Vrose muralikrishnan
p2601
aS'is a'
p2602
aVprofessor
p2603
aa(lp2604
Vrose muralikrishnan
p2605
aS'is a'
p2606
aVadjunct professor
p2607
aa(lp2608
Vrose muralikrishnan
p2609
aVin
p2610
aV1991
p2611
aa(lp2612
Vrose muralikrishnan
p2613
aVprofessor of
p2614
aVsouth indian music
p2615
aa(lp2616
Vrose muralikrishnan
p2617
aVprofessor at
p2618
aVsan_diego_state_university
p2619
aa(lp2620
Vneyveli santhanagopalan
p2621
aS'is a'
p2622
aVvocalist
p2623
aa(lp2624
Vneyveli santhanagopalan
p2625
aVvocalist 's
p2626
aVindian carnatic
p2627
aa(lp2628
Vvishwambari
p2629
aS'is a'
p2630
aVragam
p2631
aa(lp2632
Vvishwambari
p2633
aVragam in
p2634
aVmusic
p2635
aa(lp2636
Vmelakarta
p2637
aS'a type of'
p2638
aVragam
p2639
aa(lp2640
g2637
aS'a type of'
p2641
aVsystem
p2642
aa(lp2643
Vvishwambari
p2644
aS'is a'
p2645
aVmelakarta
p2646
aa(lp2647
Vmelakarta
p2648
aS'a type of'
p2649
aVscale
p2650
aa(lp2651
Vjanya
p2652
aS'a type of'
p2653
aVragam
p2654
aa(lp2655
Vvishwambari
p2656
aVhave
p2657
aVminor ragam
p2658
aa(lp2659
Vbhavadhaarini
p2660
aS'a type of'
p2661
aVvoice
p2662
aa(lp2663
Vmaddale
p2664
aVinstrument from
p2665
aVindia
p2666
aa(lp2667
Vmaddale
p2668
aVinstrument from
p2669
aVkarnataka
p2670
aa(lp2671
Vmaddale
p2672
aS'is a'
p2673
aVinstrument
p2674
aa(lp2675
Vmaddale
p2676
aS'is a'
p2677
aVpercussion instrument
p2678
aa(lp2679
Vmaddale
p2680
aVaccompaniment with
p2681
aVchande
p2682
aa(lp2683
Vmaddale
p2684
aVaccompaniment in
p2685
aVensemble
p2686
aa(lp2687
Vmaddale
p2688
aS'is a'
p2689
aVprimary accompaniment
p2690
aa(lp2691
Vmaddale
p2692
aS'is a'
p2693
aVaccompaniment
p2694
aa(lp2695
Vmaddale
p2696
aS'is a'
p2697
aVrhythmic accompaniment
p2698
aa(lp2699
Vmaddale
p2700
aVplay on
p2701
aVrim
p2702
aa(lp2703
Vmaddale
p2704
aVplay on
p2705
aVink
p2706
aa(lp2707
Vmaddale
p2708
aVproduce unlike
p2709
aVtabla
p2710
aa(lp2711
Vmaddale
p2712
aVproduce unlike
p2713
aVmrudangam
p2714
aa(lp2715
Vmaddale
p2716
aVmridangam
p2717
aVfamily
p2718
aa(lp2719
Vmridangam
p2720
aVmixture of
p2721
aVpakhawaj
p2722
aa(lp2723
Vmaddale
p2724
aVplay on
p2725
aVrim
p2726
aa(lp2727
Vmaddale
p2728
aVplay on
p2729
aVink
p2730
aa(lp2731
Vmaddale
p2732
aVunlike
p2733
aVtabla
p2734
aa(lp2735
Vmaddale
p2736
ag2733
aVmrudangam
p2737
aa(lp2738
Vmaddale
p2739
aVtune to
p2740
aVtonic
p2741
aa(lp2742
Vkalakshetra
p2743
aVmake
p2744
aVoffer
p2745
aa(lp2746
Vkantamani
p2747
aS'is a'
p2748
aVragam
p2749
aa(lp2750
Vkantamani
p2751
aVragam in
p2752
aVmusic
p2753
aa(lp2754
Vmelakarta
p2755
aS'a type of'
p2756
aVsystem
p2757
aa(lp2758
Vmelakarta
p2759
aS'a type of'
p2760
aVragam
p2761
aa(lp2762
Vjanya
p2763
aS'a type of'
p2764
aVragam
p2765
aa(lp2766
Vkantamani
p2767
aVhave
p2768
aVcouple
p2769
aa(lp2770
Vvani sateesh
p2771
aVperformer for
p2772
aVdoordarshan
p2773
aa(lp2774
Vvani sateesh
p2775
aVperformer for
p2776
aVall_india_radio
p2777
aa(lp2778
Vvani sateesh
p2779
aS'is a'
p2780
aVperformer
p2781
aa(lp2782
Vvani sateesh
p2783
aS'is a'
p2784
aVregular performer
p2785
aa(lp2786
Vmargazhi raagam
p2787
aVbring
p2788
aVtwo
p2789
aa(lp2790
Vmohanam
p2791
aS'is a'
p2792
aVraga
p2793
aa(lp2794
Vmohanam
p2795
aVraga in
p2796
aVmusic
p2797
aa(lp2798
Vmohanam
p2799
aVnot contain
p2800
aVnishadham
p2801
aa(lp2802
Vmohanam
p2803
ag2800
aVmadhyamam
p2804
aa(lp2805
Vmohanam
p2806
aS'is a'
p2807
aVsymmetric raga
p2808
aa(lp2809
Vmohanam
p2810
aS'is a'
p2811
aVraga
p2812
aa(lp2813
Vharidasa
p2814
aVpreacher of
p2815
aVbhaktus
p2816
aa(lp2817
Vharidasa
p2818
aVmake
p2819
aVindelible impression
p2820
aa(lp2821
Vmelakarta
p2822
aVcollection of
p2823
aVfundamental raga
p2824
aa(lp2825
Vmelakarta
p2826
aS'is a'
p2827
aVcollection
p2828
aa(lp2829
Vmelakarta
p2830
aS'a type of'
p2831
aVraga
p2832
aa(lp2833
Vmelakarta
p2834
aS'a type of'
p2835
aVscheme
p2836
aa(lp2837
Vmelakarta
p2838
aS'a type of'
p2839
aVraga
p2840
aa(lp2841
Vmelakarta
p2842
aS'a type of'
p2843
aVraga
p2844
aa(lp2845
Vmelakarta
p2846
aS'a type of'
p2847
aVraga
p2848
aa(lp2849
Vmelakarta
p2850
aS'a type of'
p2851
aVraga
p2852
aa(lp2853
Vhindolam
p2854
aVhave
p2855
aVrishabha
p2856
aa(lp2857
Vhindolam
p2858
ag2855
aVpanchama
p2859
aa(lp2860
Vmelakarta
p2861
aS'a type of'
p2862
aVsystem
p2863
aa(lp2864
Vmelakarta
p2865
aS'a type of'
p2866
aVragam
p2867
aa(lp2868
Vvenkatamakhin
p2869
aVcompile
p2870
aVoriginal list
p2871
aa(lp2872
Vjanya
p2873
aS'a type of'
p2874
aVragam
p2875
aa(lp2876
Vghatam
p2877
aVaccompany
p2878
aVmridangam
p2879
aa(lp2880
Vmridangam
p2881
aVrest
p2882
aVit
p2883
aa(lp2884
Vmridangam
p2885
aVuse in
p2886
aVmusic performance
p2887
aa(lp2888
Vpacchimiriam adiyappa
p2889
aS'is a'
p2890
aVfamous musician
p2891
aa(lp2892
Vpacchimiriam adiyappa
p2893
aS'is a'
p2894
aVmusician
p2895
aa(lp2896
Vpacchimiriam adiyappa
p2897
aS'is a'
p2898
aVcourt musician
p2899
aa(lp2900
Vpacchimiriam adiyappa
p2901
aVcomposer of
p2902
aVmusic
p2903
aa(lp2904
Vpacchimiriam adiyappa
p2905
aS'is a'
p2906
aVcomposer
p2907
aa(lp2908
Vmanavati
p2909
aVragam in
p2910
aVmusic
p2911
aa(lp2912
Vmanavati
p2913
aS'is a'
p2914
aVragam
p2915
aa(lp2916
Vmelakarta
p2917
aS'a type of'
p2918
aVsystem
p2919
aa(lp2920
Vmanavati
p2921
aS'is a'
p2922
aVragam
p2923
aa(lp2924
Vmanavati
p2925
aVragam 's
p2926
aVth melakarta
p2927
aa(lp2928
Vmanavati
p2929
aVragam in
p2930
aVmelakarta system
p2931
aa(lp2932
Vmanavati
p2933
aS'is a'
p2934
aVsampoorna ragam
p2935
aa(lp2936
Vmanavati
p2937
aS'is a'
p2938
aVragam
p2939
aa(lp2940
Vmelakarta
p2941
aS'a type of'
p2942
aVragam
p2943
aa(lp2944
Vmanavati
p2945
aS'is a'
p2946
aVmelakarta ragam
p2947
aa(lp2948
Vmanavati
p2949
aS'is a'
p2950
aVragam
p2951
aa(lp2952
Vmanavati
p2953
aS'is a'
p2954
aVequivalent
p2955
aa(lp2956
Vmanavati
p2957
aS'is a'
p2958
aVmadhyamam equivalent
p2959
aa(lp2960
Vmanavati
p2961
aS'is a'
p2962
aVshuddha equivalent
p2963
aa(lp2964
Vmanavati
p2965
aVequivalent of
p2966
aVpavani
p2967
aa(lp2968
Vvenkatamakhin
p2969
aVcompile
p2970
aVoriginal list
p2971
aa(lp2972
Vjanya
p2973
aS'a type of'
p2974
aVragam
p2975
aa(lp2976
Vmanavati
p2977
aVhave
p2978
aVminor ragam
p2979
aa(lp2980
Vsaveri
p2981
aS'is a'
p2982
aVcarnatic ragam
p2983
aa(lp2984
Vsaveri
p2985
aS'is a'
p2986
aVmusic ragam
p2987
aa(lp2988
Vsaveri
p2989
aS'is a'
p2990
aVragam
p2991
aa(lp2992
Vmayamalavagowla
p2993
aVbring
p2994
aVraga
p2995
aa(lp2996
Vmayamalavagowla
p2997
ag2994
aVmood
p2998
aa(lp2999
Vvidyabhushana
p3000
aS'a type of'
p3001
aValbum
p3002
aa(lp3003
Vsenavati
p3004
aS'is a'
p3005
aVragam
p3006
aa(lp3007
Vsenavati
p3008
aVragam in
p3009
aVmusic
p3010
aa(lp3011
Vmelakarta
p3012
aS'a type of'
p3013
aVragam
p3014
aa(lp3015
g3012
aS'a type of'
p3016
aVsystem
p3017
aa(lp3018
Vmelakarta
p3019
aS'a type of'
p3020
aVragam
p3021
aa(lp3022
Vmelakarta
p3023
aS'a type of'
p3024
aVscale
p3025
aa(lp3026
Vvenkatamakhin
p3027
aVcompile
p3028
aVoriginal list
p3029
aa(lp3030
Vjanya
p3031
aS'a type of'
p3032
aVragam
p3033
aa(lp3034
Vsenavati
p3035
aVhave
p3036
aVminor ragam
p3037
aa(lp3038
Vmararanjani
p3039
aVragam in
p3040
aVmusic
p3041
aa(lp3042
Vmararanjani
p3043
aS'is a'
p3044
aVragam
p3045
aa(lp3046
Vmelakarta
p3047
aS'a type of'
p3048
aVsystem
p3049
aa(lp3050
Vmelakarta
p3051
aS'a type of'
p3052
aVragam
p3053
aa(lp3054
Vhindolam
p3055
aVragam in
p3056
aVmusic
p3057
aa(lp3058
Vhindolam
p3059
aS'is a'
p3060
aVragam
p3061
aa(lp3062
Vhindolam
p3063
aS'is a'
p3064
aVaudava ragam
p3065
aa(lp3066
Vhindolam
p3067
aS'is a'
p3068
aVragam
p3069
aa(lp3070
Vjanya
p3071
aS'a type of'
p3072
aVragam
p3073
aa(lp3074
Vhindolam
p3075
aS'is a'
p3076
aVjanya ragam
p3077
aa(lp3078
Vhindolam
p3079
aS'is a'
p3080
aVragam
p3081
aa(lp3082
Vhindolam
p3083
aVnot have
p3084
aVswara
p3085
aa(lp3086
Vhindolam
p3087
aVnot contain
p3088
aVpanchamam
p3089
aa(lp3090
Vhindolam
p3091
ag3088
aVrishabham
p3092
aa(lp3093
Vhindolam
p3094
aS'is a'
p3095
aVragam
p3096
aa(lp3097
Vhindolam
p3098
aS'is a'
p3099
aVsymmetric ragam
p3100
aa(lp3101
Vhindolam
p3102
aS'is a'
p3103
aVpentatonic scale
p3104
aa(lp3105
Vhindolam
p3106
aS'is a'
p3107
aVscale
p3108
aa(lp3109
Vmelakarta
p3110
aS'a type of'
p3111
aVragam
p3112
aa(lp3113
Vhindolam
p3114
aS'is a'
p3115
aVmelakarta ragam
p3116
aa(lp3117
Vhindolam
p3118
aVnot contain
p3119
aVsvara
p3120
aa(lp3121
Vjanya
p3122
aS'a type of'
p3123
aVragam
p3124
aa(lp3125
Vmridangam
p3126
aS'a type of'
p3127
aVplayer
p3128
aa(lp3129
Vmridangam
p3130
aS'a type of'
p3131
aVartiste
p3132
aa(lp3133
Vshuddha saveri
p3134
aS'is a'
p3135
aVragam
p3136
aa(lp3137
Vshuddha saveri
p3138
aVragam in
p3139
aVmusic
p3140
aa(lp3141
Vjanya
p3142
aS'a type of'
p3143
aVragam
p3144
aa(lp3145
Vshuddha saveri
p3146
aS'is a'
p3147
aVragam
p3148
aa(lp3149
Vshuddha saveri
p3150
aS'is a'
p3151
aVsymmetric ragam
p3152
aa(lp3153
Vshuddha saveri
p3154
aVnot contain
p3155
aVnishadam
p3156
aa(lp3157
Vshuddha saveri
p3158
ag3155
aVgandharam
p3159
aa(lp3160
Vmuthuswami dikshitar
p3161
aVset
p3162
aVguha
p3163
aa(lp3164
Vmelakarta
p3165
aS'a type of'
p3166
aVsystem
p3167
aa(lp3168
Vmelakarta
p3169
aS'a type of'
p3170
aVragam
p3171
aa(lp3172
Vjanya
p3173
aS'a type of'
p3174
aVragam
p3175
aa(lp3176
Vmanodharma
p3177
aVhave
p3178
aVmusical value
p3179
aa(lp3180
Vmanodharma
p3181
aVplay
p3182
aVsuch role
p3183
aa(lp3184
Vranjani
p3185
aVbear to
p3186
aVmeenakshi
p3187
aa(lp3188
Vranjani
p3189
aVbear to
p3190
aVn._balasubramanian
p3191
aa(lp3192
Vranjani
p3193
aVbegin
p3194
aVmusic career
p3195
aa(lp3196
Vranjani
p3197
aVaccompany
p3198
aVvarious artist
p3199
aa(lp3200
Vranjani
p3201
aVreceive
p3202
aVmultiple award
p3203
aa(lp3204
Vranjani
p3205
ag3202
aVrecognition
p3206
aa(lp3207
Vranjani
p3208
aVhave
p3209
aVvarious album
p3210
aa(lp3211
Vmuttuthandavar
p3212
aVpoet 's
p3213
aVprominent saivite
p3214
aa(lp3215
Vmuttuthandavar
p3216
aS'is a'
p3217
aVpoet
p3218
aa(lp3219
Vmuttuthandavar
p3220
aVbase in
p3221
aVtemple town
p3222
aa(lp3223
Vmuttuthandavar
p3224
aVbear in
p3225
aVtown
p3226
aa(lp3227
Vmuttuthandavar
p3228
aVsing
p3229
aVsong
p3230
aa(lp3231
Vmuttuthandavar
p3232
aVstart from
p3233
aVfirst word
p3234
aa(lp3235
Vmuttuthandavar
p3236
aVdie on
p3237
aVparticular day
p3238
aa(lp3239
Vmridangam
p3240
aS'is a'
p3241
aVmusic
p3242
aa(lp3243
Vkalakshetra
p3244
aS'is a'
p3245
aVlove
p3246
aa(lp3247
Vdhananjayans
p3248
aVstart
p3249
aVschool own bharata their dance kalanjali
p3250
aa(lp3251
Vshanmukhapriya
p3252
aS'is a'
p3253
aVfather
p3254
aa(lp3255
Vshanmukhapriya
p3256
aVfather 's
p3257
aVharipriya
p3258
aa(lp3259
Vshanmukhapriya
p3260
aS'is a'
p3261
aVmusical talent
p3262
aa(lp3263
Vshanmukhapriya
p3264
aS'is a'
p3265
aVharipriya talent
p3266
aa(lp3267
Vshanmukhapriya
p3268
aS'is a'
p3269
aVtalent
p3270
aa(lp3271
Vshanmukhapriya
p3272
aVshift
p3273
aVbase
p3274
aa(lp3275
Vdwaram bhavanarayana rao
p3276
aS'is a'
p3277
aVviolinist
p3278
aa(lp3279
Vdwaram bhavanarayana rao
p3280
aS'is a'
p3281
aVfamous violinist
p3282
aa(lp3283
Vdwaram bhavanarayana rao
p3284
aS'is a'
p3285
aVson
p3286
aa(lp3287
Vdwaram bhavanarayana rao
p3288
aVson of
p3289
aVlegendary padmasri_dwaram_venkataswamy_naidu
p3290
aa(lp3291
Vdwaram bhavanarayana rao
p3292
aVbear to
p3293
aVdwaram_venkataswamy_naidu
p3294
aa(lp3295
Vdwaram bhavanarayana rao
p3296
aVbear to
p3297
aVvenkata_jaggayyamma
p3298
aa(lp3299
Vdwaram bhavanarayana rao
p3300
aVbear at
p3301
aVbapatla
p3302
aa(lp3303
Vdwaram bhavanarayana rao
p3304
aVbear on
p3305
aV15
p3306
aa(lp3307
Vdwaram bhavanarayana rao
p3308
aVeducate in
p3309
aVchennai
p3310
aa(lp3311
Vdwaram bhavanarayana rao
p3312
aVwork as
p3313
aVprincipal_of_government_music_college
p3314
aa(lp3315
Vdwaram bhavanarayana rao
p3316
aVwork at
p3317
aVvijayawada
p3318
aa(lp3319
Vdwaram bhavanarayana rao
p3320
aVdie on
p3321
aV24_july_2000
p3322
aa(lp3323
Vdwaram bhavanarayana rao
p3324
aVdie of
p3325
aVarrest
p3326
aa(lp3327
Vdwaram bhavanarayana rao
p3328
aVdie in
p3329
aVvisakhapatnam
p3330
aa(lp3331
Vdwaram bhavanarayana rao
p3332
aS'is a'
p3333
aVrecipient
p3334
aa(lp3335
Vdwaram bhavanarayana rao
p3336
aVrecipient of
p3337
aVaward
p3338
aa(lp3339
Vdwaram bhavanarayana rao
p3340
aVrecipient of
p3341
aVaward
p3342
aa(lp3343
Vdwaram bhavanarayana rao
p3344
aS'is a'
p3345
aVmember
p3346
aa(lp3347
Vdwaram bhavanarayana rao
p3348
aVmember of
p3349
aVadvisory board
p3350
aa(lp3351
Vmalayamarutam
p3352
aVragam in
p3353
aVmusic
p3354
aa(lp3355
Vmalayamarutam
p3356
aS'is a'
p3357
aVragam
p3358
aa(lp3359
Vmalayamarutam
p3360
aS'is a'
p3361
aVjanya ragam
p3362
aa(lp3363
Vmalayamarutam
p3364
aS'is a'
p3365
aVragam
p3366
aa(lp3367
Vmalayamarutam
p3368
aVnot have
p3369
aVswara
p3370
aa(lp3371
Vjanya
p3372
aS'a type of'
p3373
aVragam
p3374
aa(lp3375
Vmalayamarutam
p3376
aVnot contain
p3377
aVmadhyamam
p3378
aa(lp3379
Vmalayamarutam
p3380
aS'is a'
p3381
aVragam
p3382
aa(lp3383
Vmalayamarutam
p3384
aS'is a'
p3385
aVsymmetric ragam
p3386
aa(lp3387
Vmalayamarutam
p3388
aS'is a'
p3389
aVscale
p3390
aa(lp3391
Vmalayamarutam
p3392
aS'is a'
p3393
aVhexatonic scale
p3394
aa(lp3395
Vmalayamarutam
p3396
aS'is a'
p3397
aVscale
p3398
aa(lp3399
Vmalayamarutam
p3400
aS'is a'
p3401
aVplease scale
p3402
aa(lp3403
Vmalayamarutam
p3404
aVhave
p3405
aVfew composition
p3406
aa(lp3407
Vmalayamarutam
p3408
aVuse to
p3409
aVfilm music
p3410
aa(lp3411
Vsvaramelakalanidhi
p3412
aVintroduce
p3413
aVconcept
p3414
aa(lp3415
Vsvaramelakalanidhi
p3416
aVrationalize
p3417
aVinterval
p3418
aa(lp3419
Vsvaramelakalanidhi
p3420
ag3417
aVscale
p3421
aa(lp3422
Vsvaramelakalanidhi
p3423
aVbring
p3424
aVtheory
p3425
aa(lp3426
Vmelakarta
p3427
aS'a type of'
p3428
aVragam
p3429
aa(lp3430
g3427
aS'a type of'
p3431
aVsystem
p3432
aa(lp3433
Vsuryakantam
p3434
aS'is a'
p3435
aVragam
p3436
aa(lp3437
Vmelakarta
p3438
aS'a type of'
p3439
aVragam
p3440
aa(lp3441
Vsuryakantam
p3442
aS'is a'
p3443
aVmelakarta ragam
p3444
aa(lp3445
Vsuryakantam
p3446
aS'is a'
p3447
aVragam
p3448
aa(lp3449
Vmelakarta
p3450
aS'a type of'
p3451
aVscale
p3452
aa(lp3453
Vsuryakantam
p3454
aVequivalent of
p3455
aVgamanashrama
p3456
aa(lp3457
Vsuryakantam
p3458
aS'is a'
p3459
aVequivalent
p3460
aa(lp3461
Vsuryakantam
p3462
aS'is a'
p3463
aVmadhyamam equivalent
p3464
aa(lp3465
Vsuryakantam
p3466
aS'is a'
p3467
aVshuddha equivalent
p3468
aa(lp3469
Vvenkatamakhin
p3470
aVcompile
p3471
aVoriginal list
p3472
aa(lp3473
Vvijaya dasa
p3474
aVbear in
p3475
aVfamily
p3476
aa(lp3477
Vvijaya dasa
p3478
aVbear in
p3479
aVtaluk
p3480
aa(lp3481
Vvijaya dasa
p3482
aVbear in
p3483
aVcheekalaparvi
p3484
aa(lp3485
Vkalpanaswaram
p3486
aVknow as
p3487
aVswarakalpana
p3488
aa(lp3489
Vtanam
p3490
aVof
p3491
aVimportant form
p3492
aa(lp3493
Vtanam
p3494
aVintegral to
p3495
aVragam-tanam-pallavi
p3496
aa(lp3497
Vkalpanaswaram
p3498
aVfollow
p3499
aVniraval
p3500
aa(lp3501
Vmadhyamavati
p3502
aVraga in
p3503
aVmusic
p3504
aa(lp3505
Vmadhyamavati
p3506
aS'is a'
p3507
aVraga
p3508
aa(lp3509
Vjanya
p3510
aS'a type of'
p3511
aVraga
p3512
aa(lp3513
Vmadhyamavati
p3514
aVnot contain
p3515
aVdhaivatam
p3516
aa(lp3517
Vmadhyamavati
p3518
ag3515
aVgandharam
p3519
aa(lp3520
Vmadhyamavati
p3521
aS'is a'
p3522
aVragam
p3523
aa(lp3524
Vmadhyamavati
p3525
aS'is a'
p3526
aVsymmetric ragam
p3527
aa(lp3528
Vmadhuvanti
p3529
aS'is a'
p3530
aVname
p3531
aa(lp3532
Vmadhuvanti
p3533
aVname of
p3534
aVraga
p3535
aa(lp3536
Vmadhuvanti
p3537
aVthaat
p3538
aVtodi
p3539
aa(lp3540
Vmadhuvanti
p3541
aVexpress
p3542
aVloving sentiment
p3543
aa(lp3544
Vjanya
p3545
aS'a type of'
p3546
aVraga
p3547
aa(lp3548
Vmadhuvanti
p3549
aS'is a'
p3550
aVraga
p3551
aa(lp3552
Vmadhuvanti
p3553
aS'is a'
p3554
aVjanya raga
p3555
aa(lp3556
Vmadhuvanti
p3557
aVraga of
p3558
aVdharmavati
p3559
aa(lp3560
Vmadhuvanti
p3561
aVraga of
p3562
aVth melakarta_of_carnatic_music
p3563
aa(lp3564
Vmadhuvanti
p3565
aS'is a'
p3566
aVmelodious raga
p3567
aa(lp3568
Vmadhuvanti
p3569
aS'is a'
p3570
aVraga
p3571
aa(lp3572
Vchingleput ranganathan
p3573
aS'is a'
p3574
aVvocalist
p3575
aa(lp3576
Vchingleput ranganathan
p3577
aVvocalist 's
p3578
aVclassical carnatic
p3579
aa(lp3580
Vkudamaloor janardanan
p3581
aVflautist of
p3582
aVmusic tradition
p3583
aa(lp3584
Vkudamaloor janardanan
p3585
aS'is a'
p3586
aVflautist
p3587
aa(lp3588
Vkudamaloor janardanan
p3589
aS'is a'
p3590
aVindian flautist
p3591
aa(lp3592
Vkudamaloor janardanan
p3593
aVbear into
p3594
aVmusical family
p3595
aa(lp3596
Vkudamaloor janardanan
p3597
aVbear in
p3598
aVkerala
p3599
aa(lp3600
Vkudamaloor janardanan
p3601
aVbear in
p3602
aVindia
p3603
aa(lp3604
Vcharukesi
p3605
aS'is a'
p3606
aVkritus
p3607
aa(lp3608
Vcharukesi
p3609
aS'is a'
p3610
aVmain kritus
p3611
aa(lp3612
Vcharukesi
p3613
aVlast for
p3614
aV12
p3615
aa(lp3616
Vghatam
p3617
aS'is a'
p3618
aVflute
p3619
aa(lp3620
Vghatam
p3621
aS'is a'
p3622
aVsecond flute
p3623
aa(lp3624
Vgiriraja kavi
p3625
aVbear in
p3626
aVtaluk
p3627
aa(lp3628
Vgiriraja kavi
p3629
aVbear in
p3630
aVvillage
p3631
aa(lp3632
Vgiriraja kavi
p3633
aVinfluence
p3634
aVformative year
p3635
aa(lp3636
Vgiriraja kavi
p3637
aVplay
p3638
aVmajor role
p3639
aa(lp3640
Vmelakarta
p3641
aS'a type of'
p3642
aVsystem
p3643
aa(lp3644
Vdivyamani
p3645
aVragam in
p3646
aVragam system
p3647
aa(lp3648
Vdivyamani
p3649
aS'is a'
p3650
aVragam
p3651
aa(lp3652
Vdivyamani
p3653
aS'is a'
p3654
aVsampoorna ragam
p3655
aa(lp3656
Vdivyamani
p3657
aS'is a'
p3658
aVragam
p3659
aa(lp3660
Vdivyamani
p3661
aS'is a'
p3662
aVmelakarta ragam
p3663
aa(lp3664
Vdivyamani
p3665
aS'is a'
p3666
aVragam
p3667
aa(lp3668
Vmelakarta
p3669
aS'a type of'
p3670
aVragam
p3671
aa(lp3672
Vdivyamani
p3673
aVequivalent of
p3674
aVroopavati
p3675
aa(lp3676
Vdivyamani
p3677
aS'is a'
p3678
aVpratus equivalent
p3679
aa(lp3680
Vdivyamani
p3681
aS'is a'
p3682
aVequivalent
p3683
aa(lp3684
Vdivyamani
p3685
aS'is a'
p3686
aVmadhyamam equivalent
p3687
aa(lp3688
Vjanya
p3689
aS'a type of'
p3690
aVragam
p3691
aa(lp3692
Vdivyamani
p3693
aVhave
p3694
aVminor ragam
p3695
aa(lp3696
Vudayaravichandrika
p3697
aS'is a'
p3698
aVragam
p3699
aa(lp3700
Vudayaravichandrika
p3701
aVragam in
p3702
aVmusic
p3703
aa(lp3704
Vudayaravichandrika
p3705
aS'is a'
p3706
aVaudava ragam
p3707
aa(lp3708
Vudayaravichandrika
p3709
aS'is a'
p3710
aVragam
p3711
aa(lp3712
Vudayaravichandrika
p3713
aVknow as
p3714
aVshuddha dhanyasi
p3715
aa(lp3716
Vudayaravichandrika
p3717
aS'is a'
p3718
aVjanya ragam
p3719
aa(lp3720
Vudayaravichandrika
p3721
aS'is a'
p3722
aVragam
p3723
aa(lp3724
Vjanya
p3725
aS'a type of'
p3726
aVragam
p3727
aa(lp3728
Vudayaravichandrika
p3729
aVnot have
p3730
aVswara
p3731
aa(lp3732
Vudayaravichandrika
p3733
aS'is a'
p3734
aVragam
p3735
aa(lp3736
Vudayaravichandrika
p3737
aS'is a'
p3738
aVsymmetric ragam
p3739
aa(lp3740
Vudayaravichandrika
p3741
aVnot contain
p3742
aVdhaivatam
p3743
aa(lp3744
Vudayaravichandrika
p3745
ag3742
aVrishabham
p3746
aa(lp3747
Vudayaravichandrika
p3748
aS'is a'
p3749
aVpentatonic scale
p3750
aa(lp3751
Vudayaravichandrika
p3752
aS'is a'
p3753
aVscale
p3754
aa(lp3755
Vgayathri venkataraghavan
p3756
aS'is a'
p3757
aVvocalist
p3758
aa(lp3759
Vgayathri venkataraghavan
p3760
aVvocalist 's
p3761
aVindian carnatic
p3762
aa(lp3763
Vgayathri venkataraghavan
p3764
aS'is a'
p3765
aVgrade artist
p3766
aa(lp3767
Vgayathri venkataraghavan
p3768
aS'is a'
p3769
aVartist
p3770
aa(lp3771
Vgayathri venkataraghavan
p3772
aVartist of
p3773
aVall_india_radio
p3774
aa(lp3775
Vjanya
p3776
aS'a type of'
p3777
aVragam
p3778
aa(lp3779
Vmelakarta
p3780
aS'a type of'
p3781
aVscale
p3782
aa(lp3783
Vjhalavarali
p3784
aS'a type of'
p3785
aVragam
p3786
aa(lp3787
Vjanya
p3788
aS'a type of'
p3789
aVscale
p3790
aa(lp3791
Vvarali
p3792
aVdue to
p3793
aVvakra prayoga
p3794
aa(lp3795
Vvarali
p3796
aS'is a'
p3797
aVasymmetric ragam
p3798
aa(lp3799
Vvarali
p3800
aS'is a'
p3801
aVragam
p3802
aa(lp3803
Vvenu
p3804
aS'a type of'
p3805
aVplayer
p3806
aa(lp3807
Vveenai dhanammal
p3808
aVgrandmother 's
p3809
aVbrindas
p3810
aa(lp3811
Vveenai dhanammal
p3812
aS'is a'
p3813
aVgrandmother
p3814
aa(lp3815
Vnagai sriram
p3816
aVreceive
p3817
aVadvanced training
p3818
aa(lp3819
Vnagai sriram
p3820
aVreside in
p3821
aVtamil_nadu
p3822
aa(lp3823
Vnagai sriram
p3824
aVreside in
p3825
aVchennai
p3826
aa(lp3827
Vmuthuswami dikshitar
p3828
aVcompose while
p3829
aVtyagaraja
p3830
aa(lp3831
Vmuthuswami dikshitar
p3832
aVcompose in
p3833
aVtelugu
p3834
aa(lp3835
Vpallavi
p3836
aS'a type of'
p3837
aVperform
p3838
aa(lp3839
Vmridangam
p3840
aS'a type of'
p3841
aVplayer
p3842
aa(lp3843
Vgingger shankar
p3844
aS'is a'
p3845
aVsinger
p3846
aa(lp3847
Vgingger shankar
p3848
aS'is a'
p3849
aVindian singer
p3850
aa(lp3851
Vgingger shankar
p3852
aS'is a'
p3853
aVamerican singer
p3854
aa(lp3855
Vmelakarta
p3856
aS'a type of'
p3857
aVragam
p3858
aa(lp3859
g3856
aS'a type of'
p3860
aVsystem
p3861
aa(lp3862
Vsimhendramadhyamam
p3863
aVcall in
p3864
aVschool
p3865
aa(lp3866
Vsimhendramadhyamam
p3867
aVequivalent of
p3868
aVkeeravani
p3869
aa(lp3870
Vsimhendramadhyamam
p3871
aS'is a'
p3872
aVpratus equivalent
p3873
aa(lp3874
Vsimhendramadhyamam
p3875
aS'is a'
p3876
aVequivalent
p3877
aa(lp3878
Vsimhendramadhyamam
p3879
aS'is a'
p3880
aVmadhyamam equivalent
p3881
aa(lp3882
Vkonerirajapuram vaidyanatha ayyar
p3883
aS'is a'
p3884
aVcarnatic vocalist
p3885
aa(lp3886
Vkonerirajapuram vaidyanatha ayyar
p3887
aS'is a'
p3888
aVvocalist
p3889
aa(lp3890
Vkonerirajapuram vaidyanatha ayyar
p3891
aVvocalist from
p3892
aVindian state
p3893
aa(lp3894
Vkonerirajapuram vaidyanatha ayyar
p3895
aVplace for
p3896
aVtraining
p3897
aa(lp3898
Vkonerirajapuram vaidyanatha ayyar
p3899
aVplace under
p3900
aVnagaswara vidwan
p3901
aa(lp3902
Vkonerirajapuram vaidyanatha ayyar
p3903
aVhave
p3904
aVinnate passion
p3905
aa(lp3906
Vkonerirajapuram vaidyanatha ayyar
p3907
aVnot miss
p3908
aVperformance
p3909
aa(lp3910
Vkonerirajapuram vaidyanatha ayyar
p3911
aS'is a'
p3912
aVcolossus
p3913
aa(lp3914
Vchembai sangeetholsavam
p3915
aVconduct
p3916
aVfestival
p3917
aa(lp3918
Vsusheela raman
p3919
aS'is a'
p3920
aVbritish musician
p3921
aa(lp3922
Vsusheela raman
p3923
aS'is a'
p3924
aVmusician
p3925
aa(lp3926
Vsusheela raman
p3927
aS'is a'
p3928
aVacclaimed musician
p3929
aa(lp3930
Vsusheela raman
p3931
aS'is a'
p3932
aVindian musician
p3933
aa(lp3934
Vsusheela raman
p3935
aVnominate for
p3936
aVmusic world bbc awards
p3937
aa(lp3938
Vsusheela raman
p3939
aVrelease
p3940
aVfive
p3941
aa(lp3942
Vsusheela raman
p3943
aVwin
p3944
aVnewcomer award
p3945
aa(lp3946
Vsusheela raman
p3947
aVgarner
p3948
aVacclaim
p3949
aa(lp3950
Vveenai dhanammal
p3951
aVbear into
p3952
aVfamily
p3953
aa(lp3954
Vveenai dhanammal
p3955
aVbear in
p3956
aVgeorge_town
p3957
aa(lp3958
Vveenai dhanammal
p3959
aVbear in
p3960
aVmadras
p3961
aa(lp3962
Vtanam
p3963
aS'a type of'
p3964
aVsinging
p3965
aa(lp3966
Vmelakarta
p3967
aS'a type of'
p3968
aVragam
p3969
aa(lp3970
Vsarasangi
p3971
aS'is a'
p3972
aVmelakarta ragam
p3973
aa(lp3974
Vsarasangi
p3975
aS'is a'
p3976
aVragam
p3977
aa(lp3978
Vsarasangi
p3979
aVragam in
p3980
aVmusic
p3981
aa(lp3982
Vmelakarta
p3983
aS'a type of'
p3984
aVragam
p3985
aa(lp3986
g3983
aS'a type of'
p3987
aVsystem
p3988
aa(lp3989
Vsarasangi
p3990
aS'is a'
p3991
aVmelakarta ragam
p3992
aa(lp3993
Vsarasangi
p3994
aS'is a'
p3995
aVragam
p3996
aa(lp3997
Vmelakarta
p3998
aS'a type of'
p3999
aVragam
p4000
aa(lp4001
Vsarasangi
p4002
aVcall in
p4003
aVschool
p4004
aa(lp4005
Vsarasangi
p4006
aS'is a'
p4007
aVmelakarta ragam
p4008
aa(lp4009
Vsarasangi
p4010
aS'is a'
p4011
aVragam
p4012
aa(lp4013
Vmelakarta
p4014
aS'a type of'
p4015
aVragam
p4016
aa(lp4017
Vsarasangi
p4018
aS'is a'
p4019
aVmelakarta ragam
p4020
aa(lp4021
Vsarasangi
p4022
aS'is a'
p4023
aVragam
p4024
aa(lp4025
Vmelakarta
p4026
aS'a type of'
p4027
aVragam
p4028
aa(lp4029
Vmelakarta
p4030
aS'a type of'
p4031
aVscale
p4032
aa(lp4033
g4030
aS'a type of'
p4034
aVragam
p4035
aa(lp4036
Vsarasangi
p4037
aS'is a'
p4038
aVmelakarta ragam
p4039
aa(lp4040
Vsarasangi
p4041
aS'is a'
p4042
aVequivalent
p4043
aa(lp4044
Vsarasangi
p4045
aS'is a'
p4046
aVragam
p4047
aa(lp4048
Vsarasangi
p4049
aS'is a'
p4050
aVmadhyamam equivalent
p4051
aa(lp4052
Vsarasangi
p4053
aS'is a'
p4054
aVshuddha equivalent
p4055
aa(lp4056
Vsarasangi
p4057
aVequivalent of
p4058
aVlatangi
p4059
aa(lp4060
Vmelakarta
p4061
aS'a type of'
p4062
aVragam
p4063
aa(lp4064
Vsarasangi
p4065
aS'is a'
p4066
aVmelakarta ragam
p4067
aa(lp4068
Vsarasangi
p4069
aS'is a'
p4070
aVragam
p4071
aa(lp4072
Vsaramati
p4073
aVragam in
p4074
aVmusic
p4075
aa(lp4076
Vsaramati
p4077
aS'is a'
p4078
aVragam
p4079
aa(lp4080
Vjanya
p4081
aS'a type of'
p4082
aVragam
p4083
aa(lp4084
Vmelakarta
p4085
aS'a type of'
p4086
aVscale
p4087
aa(lp4088
Vnatabhairavi
p4089
aS'a type of'
p4090
aVragam
p4091
aa(lp4092
Vjanya
p4093
aS'a type of'
p4094
aVscale
p4095
aa(lp4096
Vsaramati
p4097
aVnot contain
p4098
aVrishabham
p4099
aa(lp4100
Vsaramati
p4101
ag4098
aVpanchamam
p4102
aa(lp4103
Vsaramati
p4104
aS'is a'
p4105
aVasymmetric ragam
p4106
aa(lp4107
Vsaramati
p4108
aS'is a'
p4109
aVragam
p4110
aa(lp4111
Vhindolam
p4112
aS'a type of'
p4113
aVscale
p4114
aa(lp4115
Vnatabhairavi
p4116
aS'a type of'
p4117
aVcombination
p4118
aa(lp4119
Vdhanyasi
p4120
aS'is a'
p4121
aVragam
p4122
aa(lp4123
Vdhanyasi
p4124
aVragam in
p4125
aVmusic
p4126
aa(lp4127
Vjanya
p4128
aS'a type of'
p4129
aVragam
p4130
aa(lp4131
Vmelakarta
p4132
aS'a type of'
p4133
aVscale
p4134
aa(lp4135
Vhanumatodi
p4136
aS'a type of'
p4137
aVragam
p4138
aa(lp4139
Vjanya
p4140
aS'a type of'
p4141
aVscale
p4142
aa(lp4143
Vdhanyasi
p4144
aS'is a'
p4145
aVasymmetric ragam
p4146
aa(lp4147
Vdhanyasi
p4148
aS'is a'
p4149
aVragam
p4150
aa(lp4151
Vdhanyasi
p4152
aVnot contain
p4153
aVdhaivatam
p4154
aa(lp4155
Vdhanyasi
p4156
ag4153
aVrishabham
p4157
aa(lp4158
Vmysore manjunath
p4159
aS'is a'
p4160
aVviolinist
p4161
aa(lp4162
Vmysore manjunath
p4163
aS'is a'
p4164
aVindian violinist
p4165
aa(lp4166
Vmysore manjunath
p4167
aVof
p4168
aVbrother duo
p4169
aa(lp4170
Vranjani
p4171
aS'is a'
p4172
aVraga
p4173
aa(lp4174
Vranjani
p4175
aS'is a'
p4176
aVcarnatic raga
p4177
aa(lp4178
Vmorsing
p4179
aS'a type of'
p4180
aVartist
p4181
aa(lp4182
Vrithvik raja
p4183
aS'is a'
p4184
aVmusician
p4185
aa(lp4186
Vrithvik raja
p4187
aS'is a'
p4188
aVcarnatic musician
p4189
aa(lp4190
Vrithvik raja
p4191
aVmusician from
p4192
aVindia
p4193
aa(lp4194
Vrithvik raja
p4195
aVbear in
p4196
aVchennai
p4197
aa(lp4198
Vabhogi
p4199
aVraga in
p4200
aVmusic
p4201
aa(lp4202
Vabhogi
p4203
aVadapt to
p4204
aVmusic
p4205
aa(lp4206
Vabhogi
p4207
aS'is a'
p4208
aVraga
p4209
aa(lp4210
Vabhogi
p4211
aS'is a'
p4212
aVpentatonic scale
p4213
aa(lp4214
Vabhogi
p4215
aS'is a'
p4216
aVscale
p4217
aa(lp4218
Vabhogi
p4219
aVborrow from
p4220
aVmusic
p4221
aa(lp4222
Vabhogi
p4223
aS'is a'
p4224
aVsymmetric scale
p4225
aa(lp4226
Vabhogi
p4227
aS'is a'
p4228
aVpentatonic scale
p4229
aa(lp4230
Vabhogi
p4231
aS'is a'
p4232
aVscale
p4233
aa(lp4234
Vabhogi
p4235
aVnot contain
p4236
aVpanchamam
p4237
aa(lp4238
Vabhogi
p4239
ag4236
aVnishadam
p4240
aa(lp4241
Vabhogi
p4242
aS'is a'
p4243
aVscale
p4244
aa(lp4245
Vabhogi
p4246
aVuse for
p4247
aVcomposition
p4248
aa(lp4249
Vabhogi
p4250
aVuse in
p4251
aVmedium
p4252
aa(lp4253
Vabhogi
p4254
aVuse to
p4255
aVfilm music
p4256
aa(lp4257
Vabhogi
p4258
aS'a type of'
p4259
aVraga
p4260
aa(lp4261
Vugabhoga
p4262
aVsing without
p4263
aVrhythm
p4264
aa(lp4265
Vugabhoga
p4266
aVhave
p4267
aVinfluence
p4268
aa(lp4269
Vugabhoga
p4270
aVbecome
p4271
aVintegral part
p4272
aa(lp4273
Vugabhoga
p4274
aVlead to
p4275
aVfreestyle rendering
p4276
aa(lp4277
g4274
aVlead without
p4278
aVlyric
p4279
aa(lp4280
Vramapriya
p4281
aS'is a'
p4282
aVragam
p4283
aa(lp4284
Vramapriya
p4285
aVragam in
p4286
aVmusic
p4287
aa(lp4288
Vmelakarta
p4289
aS'a type of'
p4290
aVragam
p4291
aa(lp4292
g4289
aS'a type of'
p4293
aVsystem
p4294
aa(lp4295
Vmelakarta
p4296
aS'a type of'
p4297
aVragam
p4298
aa(lp4299
Vmelakarta
p4300
aS'a type of'
p4301
aVscale
p4302
aa(lp4303
Vjanya
p4304
aS'a type of'
p4305
aVragam
p4306
aa(lp4307
Vramapriya
p4308
aVhave
p4309
aVminor ragam
p4310
aa(lp4311
Vrupavati
p4312
aVragam in
p4313
aVmusic
p4314
aa(lp4315
Vrupavati
p4316
aS'is a'
p4317
aVragam
p4318
aa(lp4319
Vmelakarta
p4320
aS'a type of'
p4321
aVragam
p4322
aa(lp4323
g4320
aS'a type of'
p4324
aVsystem
p4325
aa(lp4326
Vrupavati
p4327
aVof
p4328
aVfew ragam
p4329
aa(lp4330
Vmelakarta
p4331
aS'a type of'
p4332
aVragam
p4333
aa(lp4334
Vrupavati
p4335
aS'is a'
p4336
aVmelakarta ragam
p4337
aa(lp4338
Vrupavati
p4339
aS'is a'
p4340
aVragam
p4341
aa(lp4342
Vrupavati
p4343
aS'is a'
p4344
aVragam
p4345
aa(lp4346
Vrupavati
p4347
aS'is a'
p4348
aVsampurna ragam
p4349
aa(lp4350
Vmelakarta
p4351
aS'a type of'
p4352
aVscale
p4353
aa(lp4354
Vrupavati
p4355
aVequivalent of
p4356
aVdivyamani
p4357
aa(lp4358
Vrupavati
p4359
aS'is a'
p4360
aVequivalent
p4361
aa(lp4362
Vrupavati
p4363
aS'is a'
p4364
aVmadhyamam equivalent
p4365
aa(lp4366
Vrupavati
p4367
aS'is a'
p4368
aVshuddha equivalent
p4369
aa(lp4370
Vrupavati
p4371
aVgive to
p4372
aVth melakarta
p4373
aa(lp4374
Vrupavati
p4375
aVgive in
p4376
aVlist
p4377
aa(lp4378
Vvenkatamakhin
p4379
aVcompile
p4380
ag4377
aa(lp4381
Vrupavati
p4382
aS'is a'
p4383
aVname
p4384
aa(lp4385
Vrupavati
p4386
aS'is a'
p4387
aVoriginal name
p4388
aa(lp4389
Vjanya
p4390
aS'a type of'
p4391
aVragam
p4392
aa(lp4393
Vrupavati
p4394
aVhave
p4395
aVminor ragam
p4396
aa(lp4397
Vmelakarta
p4398
aS'a type of'
p4399
aVragam
p4400
aa(lp4401
Vshadvidamargini
p4402
aVragam in
p4403
aVmusic
p4404
aa(lp4405
Vshadvidamargini
p4406
aS'is a'
p4407
aVragam
p4408
aa(lp4409
Vmelakarta
p4410
aS'a type of'
p4411
aVragam
p4412
aa(lp4413
g4410
aS'a type of'
p4414
aVsystem
p4415
aa(lp4416
Vmelakarta
p4417
aS'a type of'
p4418
aVragam
p4419
aa(lp4420
Vmelakarta
p4421
aS'a type of'
p4422
aVscale
p4423
aa(lp4424
Vjanya
p4425
aS'a type of'
p4426
aVragam
p4427
aa(lp4428
Vshadvidamargini
p4429
aVhave
p4430
aVminor ragam
p4431
aa(lp4432
Vmelakarta
p4433
aS'a type of'
p4434
aVsystem
p4435
aa(lp4436
Vmelakarta
p4437
aS'a type of'
p4438
aVragam
p4439
aa(lp4440
Vmelakarta
p4441
aS'a type of'
p4442
aVragam
p4443
aa(lp4444
Vvenkatamakhin
p4445
aVcompile
p4446
aVoriginal list
p4447
aa(lp4448
Vjanya
p4449
aS'a type of'
p4450
aVragam
p4451
aa(lp4452
Vsuvarnangi
p4453
aS'is a'
p4454
aVragam
p4455
aa(lp4456
Vsuvarnangi
p4457
aVragam in
p4458
aVmusic
p4459
aa(lp4460
Vmelakarta
p4461
aS'a type of'
p4462
aVragam
p4463
aa(lp4464
g4461
aS'a type of'
p4465
aVsystem
p4466
aa(lp4467
Vmelakarta
p4468
aS'a type of'
p4469
aVragam
p4470
aa(lp4471
Vjanya
p4472
aS'a type of'
p4473
aVragam
p4474
aa(lp4475
Vsuvarnangi
p4476
aVhave
p4477
aVminor ragam
p4478
aa(lp4479
Vvani sateesh
p4480
aVbear in
p4481
aVkarnataka
p4482
aa(lp4483
Vvani sateesh
p4484
aVbear in
p4485
aVbangalore
p4486
aa(lp4487
Vdakshinamurthy pillai
p4488
aVlive to
p4489
aV1937
p4490
aa(lp4491
Vdakshinamurthy pillai
p4492
aVlive during
p4493
aV1875
p4494
aa(lp4495
Vdakshinamurthy pillai
p4496
aVattain
p4497
aVsajeeva_samadhi
p4498
aa(lp4499
Vdakshinamurthy pillai
p4500
aVrevere to
p4501
aVmadras_a._kannan
p4502
aa(lp4503
Vdakshinamurthy pillai
p4504
aVrevere as
p4505
aVmahan
p4506
aa(lp4507
Vchenda
p4508
aVsuspend from
p4509
aVdrummer neck
p4510
aa(lp4511
Vdevoleena bhattacharjee
p4512
aVapply for
p4513
aVshift
p4514
aa(lp4515
Vbhupalam
p4516
aS'is a'
p4517
aVragam
p4518
aa(lp4519
Vbhupalam
p4520
aVragam in
p4521
aVmusic
p4522
aa(lp4523
Vbhupalam
p4524
aS'is a'
p4525
aVpentatonic scale
p4526
aa(lp4527
Vbhupalam
p4528
aS'is a'
p4529
aVscale
p4530
aa(lp4531
Vbhupalam
p4532
aS'is a'
p4533
aVjanya ragam
p4534
aa(lp4535
Vbhupalam
p4536
aS'is a'
p4537
aVragam
p4538
aa(lp4539
Vjanya
p4540
aS'a type of'
p4541
aVragam
p4542
aa(lp4543
Vbhupalam
p4544
aVnot have
p4545
aVswara
p4546
aa(lp4547
Vbhupalam
p4548
aVwrite as
p4549
aVbhoopalam
p4550
aa(lp4551
Vbhupalam
p4552
aS'is a'
p4553
aVragam
p4554
aa(lp4555
Vbhupalam
p4556
aS'is a'
p4557
aVsymmetric ragam
p4558
aa(lp4559
Vbhupalam
p4560
aVnot contain
p4561
aVnishadham
p4562
aa(lp4563
Vbhupalam
p4564
ag4561
aVmadhyamam
p4565
aa(lp4566
Vbhupalam
p4567
aS'is a'
p4568
aVsymmetric scale
p4569
aa(lp4570
Vbhupalam
p4571
aS'is a'
p4572
aVpentatonic scale
p4573
aa(lp4574
Vbhupalam
p4575
aS'is a'
p4576
aVscale
p4577
aa(lp4578
Vakshipthika
p4579
aVpart of
p4580
aValapana
p4581
aa(lp4582
Vakshipthika
p4583
aS'is a'
p4584
aVintroductory part
p4585
aa(lp4586
Vakshipthika
p4587
aS'is a'
p4588
aVpart
p4589
aa(lp4590
Vakshipthika
p4591
aS'is a'
p4592
aVfirst part
p4593
aa(lp4594
Vakshipthika
p4595
aVpart of
p4596
ag4581
aa(lp4597
Vakshipthika
p4598
aVintroduction to
p4599
aVraagam
p4600
aa(lp4601
Vakshipthika
p4602
aS'is a'
p4603
aVintroduction
p4604
aa(lp4605
Vpapanasam sivan
p4606
aVreceive
p4607
aVaward
p4608
aa(lp4609
Vsthai
p4610
aVrefer to
p4611
aVoctave
p4612
aa(lp4613
Vsthai
p4614
aVrefer in
p4615
aVmusic
p4616
aa(lp4617
Vsthai
p4618
aVrefer in
p4619
aVlanguage
p4620
aa(lp4621
Vmelakarta
p4622
aS'a type of'
p4623
aVragam
p4624
aa(lp4625
Vkalpanaswaram
p4626
aVmean
p4627
aVimagined swaram
p4628
aa(lp4629
Vniraval
p4630
aS'is a'
p4631
aVsinging
p4632
aa(lp4633
Vniraval
p4634
aVsinging of
p4635
aVswaram
p4636
aa(lp4637
Vtanam
p4638
aS'is a'
p4639
aV/ improvisation
p4640
aa(lp4641
Vtanam
p4642
aS'is a'
p4643
aVrhythmic improvisation
p4644
aa(lp4645
Vtanam
p4646
aS'is a'
p4647
aVrhythm improvisation
p4648
aa(lp4649
Vtanam
p4650
aS'is a'
p4651
aVimprovisation
p4652
aa(lp4653
Vtanam
p4654
aVimprovisation of
p4655
aVragam
p4656
aa(lp4657
Vtanam
p4658
aVline 's
p4659
aVpallavi
p4660
aa(lp4661
Vtanam
p4662
aS'is a'
p4663
aVline
p4664
aa(lp4665
Vviruttam
p4666
aS'is a'
p4667
aVdevotional sung
p4668
aa(lp4669
Vviruttam
p4670
aS'is a'
p4671
aVverse
p4672
aa(lp4673
Vviruttam
p4674
aS'is a'
p4675
aVphrase sung
p4676
aa(lp4677
Vviruttam
p4678
aS'is a'
p4679
aVsung
p4680
aa(lp4681
Vviruttam
p4682
aS'is a'
p4683
aVdevotional verse
p4684
aa(lp4685
Vjanya
p4686
aS'a type of'
p4687
aVragam
p4688
aa(lp4689
Vsthai
p4690
aVrefer to
p4691
aVoctave
p4692
aa(lp4693
Vmelakarta
p4694
aS'a type of'
p4695
aVragam
p4696
aa(lp4697
Vjanya
p4698
aS'a type of'
p4699
aVragam
p4700
aa(lp4701
Vjanya
p4702
aS'a type of'
p4703
aVragam
p4704
aa(lp4705
Vmelakarta
p4706
aS'a type of'
p4707
aVragam
p4708
aa(lp4709
Vjanya
p4710
aS'a type of'
p4711
aVragam
p4712
aa(lp4713
Vjanya
p4714
aS'a type of'
p4715
aVragam
p4716
aa(lp4717
Vjanya
p4718
aS'a type of'
p4719
aVragam
p4720
aa(lp4721
Vvarnam
p4722
aVcomplex of
p4723
aVvocal exercise
p4724
aa(lp4725
Vvarnam
p4726
aVhelp
p4727
aVwarm-up
p4728
aa(lp4729
Vanupallavi
p4730
aVfollow
p4731
aVpallavus
p4732
aa(lp4733
Vanupallavi
p4734
aS'is a'
p4735
aVverse
p4736
aa(lp4737
Vanupallavi
p4738
aS'is a'
p4739
aVoptional verse
p4740
aa(lp4741
Vcharanam
p4742
aVfollow
p4743
aVanupallavus
p4744
aa(lp4745
g4742
ag4743
aVpallavus
p4746
aa(lp4747
Vsirkazhi govindarajan
p4748
aVdo
p4749
aVplayback singing
p4750
aa(lp4751
Vsirkazhi govindarajan
p4752
aVdie in
p4753
aV1988
p4754
aa(lp4755
Vsirkazhi govindarajan
p4756
aVage
p4757
aV55
p4758
aa(lp4759
Vramesh vinayakam
p4760
aVgo to
p4761
aVa._m._jain_college
p4762
aa(lp4763
Vramesh vinayakam
p4764
aVgo from
p4765
aVuniversity_of_madras
p4766
aa(lp4767
Vramesh vinayakam
p4768
aVgraduate in
p4769
aVcommerce
p4770
aa(lp4771
Vramesh vinayakam
p4772
aVcompose
p4773
aVfirst song
p4774
aa(lp4775
Vveene sheshanna
p4776
aVteach
p4777
aVveene sheshanna
p4778
aa(lp4779
Vveene sheshanna
p4780
aVteach
p4781
aVmusic
p4782
aa(lp4783
Vjanya
p4784
aS'a type of'
p4785
aVragam
p4786
aa(lp4787
Vmelakarta
p4788
aS'a type of'
p4789
aVscale
p4790
aa(lp4791
Vharikambhoji
p4792
aS'a type of'
p4793
aVragam
p4794
aa(lp4795
Vjanya
p4796
aS'a type of'
p4797
aVscale
p4798
aa(lp4799
Vlalgudi vijayalakshmi
p4800
aS'is a'
p4801
aVviolinist
p4802
aa(lp4803
Vlalgudi vijayalakshmi
p4804
aVviolinist 's
p4805
aVwell-known carnatic
p4806
aa(lp4807
Vlalgudi vijayalakshmi
p4808
aVbear to
p4809
aVlalgudi_jayaraman
p4810
aa(lp4811
Vlalgudi vijayalakshmi
p4812
aVbear to
p4813
aVviolin maestro
p4814
aa(lp4815
Vlalgudi vijayalakshmi
p4816
aVbear in
p4817
aVchennai
p4818
aa(lp4819
Vlalgudi vijayalakshmi
p4820
aVdebut in
p4821
aV1979
p4822
aa(lp4823
Vlalgudi vijayalakshmi
p4824
aVtravel on
p4825
aVmusical tour
p4826
aa(lp4827
Vlalgudi vijayalakshmi
p4828
aVtravel over
p4829
aVworld
p4830
aa(lp4831
Vlalgudi vijayalakshmi
p4832
aVperform
p4833
aVlot
p4834
aa(lp4835
Vsangeetha kalasarathy
p4836
aS'is a'
p4837
aVtitle
p4838
aa(lp4839
Vsangeetha kalasarathy
p4840
aVaward by
p4841
aVexpert
p4842
aa(lp4843
Vjalarnavam
p4844
aS'is a'
p4845
aVragam
p4846
aa(lp4847
Vjalarnavam
p4848
aVragam in
p4849
aVmusic
p4850
aa(lp4851
Vmelakarta
p4852
aS'a type of'
p4853
aVsystem
p4854
aa(lp4855
Vmelakarta
p4856
aS'a type of'
p4857
aVragam
p4858
aa(lp4859
Vjanya
p4860
aS'a type of'
p4861
aVragam
p4862
aa(lp4863
Vjalarnavam
p4864
aVhave
p4865
aVminor ragam
p4866
aa(lp4867
Vnatabhairavi
p4868
aVragam in
p4869
aVmusic
p4870
aa(lp4871
Vnatabhairavi
p4872
aS'is a'
p4873
aVragam
p4874
aa(lp4875
Vmelakarta
p4876
aS'a type of'
p4877
aVsystem
p4878
aa(lp4879
g4876
aS'a type of'
p4880
aVragam
p4881
aa(lp4882
Vnatabhairavi
p4883
aVcorrespond to
p4884
aVminor scale
p4885
aa(lp4886
Vnatabhairavi
p4887
aVcorrespond to
p4888
aVthaat
p4889
aa(lp4890
Vnatabhairavi
p4891
aVbe
p4892
aVragam
p4893
aa(lp4894
Vvenkatamakhin
p4895
aVcompile
p4896
aVoriginal list
p4897
aa(lp4898
Vmuthuswami dikshitar
p4899
ag1225
aVcomposition sri_neelotpalanayike
p4900
aa(lp4901
Vvenkatamakhin
p4902
aS'is a'
p4903
aVson
p4904
aa(lp4905
Vvenkatamakhin
p4906
aVson of
p4907
aVkannada_brahmin
p4908
aa(lp4909
Vvenkatamakhin
p4910
aVson of
p4911
aVgovinda_dikshita
p4912
aa(lp4913
Vvenkatamakhin
p4914
aVreceive
p4915
aVformal training
p4916
aa(lp4917
Vmelakarta
p4918
aS'a type of'
p4919
aVragam
p4920
aa(lp4921
g4918
aS'a type of'
p4922
aVsystem
p4923
aa(lp4924
Vmelakarta
p4925
aS'a type of'
p4926
aVragam
p4927
aa(lp4928
Vmelakarta
p4929
aS'a type of'
p4930
aVscale
p4931
aa(lp4932
Vjanya
p4933
aS'a type of'
p4934
aVragam
p4935
aa(lp4936
Vshamalangi
p4937
aVhave
p4938
aVcouple
p4939
aa(lp4940
Vrama ravi
p4941
aS'is a'
p4942
aVrecipient
p4943
aa(lp4944
Vrama ravi
p4945
aS'is a'
p4946
aVcarnatic vocalist
p4947
aa(lp4948
Vrama ravi
p4949
aS'is a'
p4950
aVcarnatic recipient
p4951
aa(lp4952
Vrama ravi
p4953
aS'is a'
p4954
aVvocalist
p4955
aa(lp4956
Vrama ravi
p4957
aVvocalist of
p4958
aVaward
p4959
aa(lp4960
Vrama ravi
p4961
aVbear to
p4962
aVm.r._subramania_iyer
p4963
aa(lp4964
Vrama ravi
p4965
aVbear to
p4966
aVthulasi
p4967
aa(lp4968
Vrama ravi
p4969
aVbear on
p4970
aV12_february_1943
p4971
aa(lp4972
Vrama ravi
p4973
aVbear in
p4974
aVchennai
p4975
aa(lp4976
Vrama ravi
p4977
aVhave
p4978
aVdegree
p4979
aa(lp4980
Vrama ravi
p4981
ag4978
aVdegree
p4982
aa(lp4983
Vrama ravi
p4984
aVtrain in
p4985
aVmusic
p4986
aa(lp4987
Vrama ravi
p4988
aVstudy
p4989
aVveena
p4990
aa(lp4991
Vrama ravi
p4992
ag4989
aVmridangam
p4993
aa(lp4994
Vrama ravi
p4995
aS'is a'
p4996
aVpart
p4997
aa(lp4998
Vrama ravi
p4999
aVpart of
p5000
aVmusic camp
p5001
aa(lp5002
Vrama ravi
p5003
aS'is a'
p5004
aVgrade artist
p5005
aa(lp5006
Vrama ravi
p5007
aS'is a'
p5008
aVartist
p5009
aa(lp5010
Vrama ravi
p5011
aVartist of
p5012
aVall_india_radio
p5013
aa(lp5014
Vjanya
p5015
aS'a type of'
p5016
aVragam
p5017
aa(lp5018
Vnamanarayani
p5019
aS'is a'
p5020
aVragam
p5021
aa(lp5022
Vnamanarayani
p5023
aVragam in
p5024
aVmusic
p5025
aa(lp5026
Vmelakarta
p5027
aS'a type of'
p5028
aVsystem
p5029
aa(lp5030
Vmelakarta
p5031
aS'a type of'
p5032
aVragam
p5033
aa(lp5034
Vnamanarayani
p5035
aVhave
p5036
aVfew scale
p5037
aa(lp5038
Vdevagandhari
p5039
aVraga in
p5040
aVindian music
p5041
aa(lp5042
Vdevagandhari
p5043
aS'is a'
p5044
aVraga
p5045
aa(lp5046
Varabhi
p5047
aVraga to
p5048
aVone
p5049
aa(lp5050
Varabhi
p5051
aS'is a'
p5052
aVclosest raga
p5053
aa(lp5054
Varabhi
p5055
aS'is a'
p5056
aVraga
p5057
aa(lp5058
Vdevagandhari
p5059
aS'is a'
p5060
aVraginus
p5061
aa(lp5062
Vdevagandhari
p5063
aVraginus of
p5064
aVmalkaunsa
p5065
aa(lp5066
Vvenu
p5067
aVassociate with
p5068
aVgod krishna
p5069
aa(lp5070
Vkanjira
p5071
aS'a type of'
p5072
aVperformer
p5073
aa(lp5074
Vthavil
p5075
aVconsist of
p5076
aVcylindrical shell
p5077
aa(lp5078
Vjanya
p5079
aS'a type of'
p5080
aVraga
p5081
aa(lp5082
Vmelakarta
p5083
aS'a type of'
p5084
aVraga
p5085
aa(lp5086
Vgangeyabhushani
p5087
aS'is a'
p5088
aVragam
p5089
aa(lp5090
Vgangeyabhushani
p5091
aVragam in
p5092
aVmusic
p5093
aa(lp5094
Vgangeyabhushani
p5095
aS'is a'
p5096
aVragam
p5097
aa(lp5098
Vmelakarta
p5099
aS'a type of'
p5100
aVsystem
p5101
aa(lp5102
Vgangeyabhushani
p5103
aVragam 's
p5104
aVrd melakarta
p5105
aa(lp5106
Vgangeyabhushani
p5107
aVragam in
p5108
aVmelakarta system
p5109
aa(lp5110
Vmelakarta
p5111
aS'a type of'
p5112
aVragam
p5113
aa(lp5114
Vgangeyabhushani
p5115
aS'is a'
p5116
aVsampoorna ragam
p5117
aa(lp5118
Vgangeyabhushani
p5119
aS'is a'
p5120
aVragam
p5121
aa(lp5122
Vgangeyabhushani
p5123
aS'is a'
p5124
aVmelakarta ragam
p5125
aa(lp5126
Vgangeyabhushani
p5127
aS'is a'
p5128
aVragam
p5129
aa(lp5130
Vgangeyabhushani
p5131
aVequivalent of
p5132
aVdhatuvardani
p5133
aa(lp5134
Vgangeyabhushani
p5135
aS'is a'
p5136
aVequivalent
p5137
aa(lp5138
Vgangeyabhushani
p5139
aS'is a'
p5140
aVmadhyamam equivalent
p5141
aa(lp5142
Vgangeyabhushani
p5143
aS'is a'
p5144
aVshuddha equivalent
p5145
aa(lp5146
Vgangeyabhushani
p5147
aVhave
p5148
aVjanya
p5149
aa(lp5150
g5149
aVassociate with
p5151
aVgangeyabhushani
p5152
aa(lp5153
Vmelakarta
p5154
aS'a type of'
p5155
aVsystem
p5156
aa(lp5157
Vgourimanohari
p5158
aS'is a'
p5159
aVragam
p5160
aa(lp5161
Vgourimanohari
p5162
aVragam 's
p5163
aVrd melakarta
p5164
aa(lp5165
Vgourimanohari
p5166
aVragam in
p5167
aVmelakarta system
p5168
aa(lp5169
Vmelakarta
p5170
aS'a type of'
p5171
aVragam
p5172
aa(lp5173
Vjanya
p5174
aS'a type of'
p5175
aVragam
p5176
aa(lp5177
Vjanya
p5178
aS'a type of'
p5179
aVragam
p5180
aa(lp5181
Vjanya
p5182
aVjanya of
p5183
aVmelakarta th natabhairavi
p5184
aa(lp5185
Vsaraswati veena
p5186
aVdevelop from
p5187
aVkinnari_veena
p5188
aa(lp5189
Vkonnakol
p5190
aS'a type of'
p5191
aVuseful
p5192
aa(lp5193
Vkonnakol
p5194
aS'a type of'
p5195
aVvirtuoso
p5196
aa(lp5197
Vrasikapriya
p5198
aS'is a'
p5199
aVragam
p5200
aa(lp5201
Vrasikapriya
p5202
aVragam in
p5203
aVmusic
p5204
aa(lp5205
Vmelakarta
p5206
aS'a type of'
p5207
aVsystem
p5208
aa(lp5209
g5206
aS'a type of'
p5210
aVragam
p5211
aa(lp5212
Vmelakarta
p5213
aS'a type of'
p5214
aVragam
p5215
aa(lp5216
Vjanya
p5217
aS'a type of'
p5218
aVragam
p5219
aa(lp5220
Vrasikapriya
p5221
aVhave
p5222
aVminor ragam
p5223
aa(lp5224
Vmridangam
p5225
aS'a type of'
p5226
aVartiste
p5227
aa(lp5228
Vabheri
p5229
aVraga in
p5230
aVmusic
p5231
aa(lp5232
Vabheri
p5233
aS'is a'
p5234
aVraga
p5235
aa(lp5236
Vkharaharapriya
p5237
aVraga 's
p5238
aVmelakarta
p5239
aa(lp5240
Vkharaharapriya
p5241
aVnd in
p5242
aVraga system
p5243
aa(lp5244
Vkharaharapriya
p5245
aS'is a'
p5246
aVraga
p5247
aa(lp5248
Vkharaharapriya
p5249
aS'is a'
p5250
aVnd
p5251
aa(lp5252
Vabheri
p5253
aS'is a'
p5254
aVraga
p5255
aa(lp5256
Vabheri
p5257
aS'is a'
p5258
aVaudava-sampoorna raga
p5259
aa(lp5260
Vmuthuswami dikshitar
p5261
aVcompose
p5262
aVveenabheri
p5263
aa(lp5264
Vgambhiranata
p5265
aVraga in
p5266
aVmusic
p5267
aa(lp5268
Vgambhiranata
p5269
aS'is a'
p5270
aVraga
p5271
aa(lp5272
Vjanya
p5273
aS'a type of'
p5274
aVraga
p5275
aa(lp5276
Vgambhiranata
p5277
aVknow as
p5278
aVshuddha_nata
p5279
aa(lp5280
Vgambhiranata
p5281
aVnot contain
p5282
aVdhaivatam
p5283
aa(lp5284
Vgambhiranata
p5285
ag5282
aVrishabham
p5286
aa(lp5287
Vgambhiranata
p5288
aS'is a'
p5289
aVsymmetric raga
p5290
aa(lp5291
Vgambhiranata
p5292
aS'is a'
p5293
aVraga
p5294
aa(lp5295
Vsalagam
p5296
aS'is a'
p5297
aVragam
p5298
aa(lp5299
Vsalagam
p5300
aVragam in
p5301
aVmusic
p5302
aa(lp5303
Vmelakarta
p5304
aS'a type of'
p5305
aVragam
p5306
aa(lp5307
g5304
aS'a type of'
p5308
aVsystem
p5309
aa(lp5310
Vmelakarta
p5311
aS'a type of'
p5312
aVragam
p5313
aa(lp5314
Vsalagam
p5315
aS'is a'
p5316
aVmelakarta ragam
p5317
aa(lp5318
Vsalagam
p5319
aS'is a'
p5320
aVragam
p5321
aa(lp5322
Vkanakangi
p5323
aS'is a'
p5324
aVmelakarta
p5325
aa(lp5326
Vkanakangi
p5327
aS'is a'
p5328
aVfirst melakarta
p5329
aa(lp5330
Vjanya
p5331
aS'a type of'
p5332
aVragam
p5333
aa(lp5334
Vsalagam
p5335
aVhave
p5336
aVminor ragam
p5337
aa(lp5338
Vkalyanavasantam
p5339
aS'is a'
p5340
aVragam
p5341
aa(lp5342
Vkalyanavasantam
p5343
aVragam in
p5344
aVmusic
p5345
aa(lp5346
Vkalyanavasantam
p5347
aS'is a'
p5348
aVjanya ragam
p5349
aa(lp5350
Vkalyanavasantam
p5351
aS'is a'
p5352
aVragam
p5353
aa(lp5354
Vmelakarta
p5355
aS'a type of'
p5356
aVscale
p5357
aa(lp5358
Vkalyanavasantam
p5359
aVragam from
p5360
aVmelakarta scale
p5361
aa(lp5362
Vjanya
p5363
aS'a type of'
p5364
aVragam
p5365
aa(lp5366
Vkeeravani
p5367
aS'a type of'
p5368
aVragam
p5369
aa(lp5370
Vkalyanavasantam
p5371
aS'is a'
p5372
aVscale
p5373
aa(lp5374
Vkalyanavasantam
p5375
aS'is a'
p5376
aVjanya scale
p5377
aa(lp5378
Vjanya
p5379
aS'a type of'
p5380
aVscale
p5381
aa(lp5382
Vkalyanavasantam
p5383
aVnot have
p5384
aVswara
p5385
aa(lp5386
Vkalyanavasantam
p5387
aVcombination of
p5388
aVpentatonic scale
p5389
aa(lp5390
Vkalyanavasantam
p5391
aVcombination of
p5392
aVsampurna scale
p5393
aa(lp5394
Vkalyanavasantam
p5395
aVcombination of
p5396
aVmusic
p5397
aa(lp5398
Vkalyanavasantam
p5399
aS'is a'
p5400
aVchandrakaun combination
p5401
aa(lp5402
Vkalyanavasantam
p5403
aS'is a'
p5404
aVkeeravani combination
p5405
aa(lp5406
Vkalyanavasantam
p5407
aS'is a'
p5408
aVcombination
p5409
aa(lp5410
Vkeeravani
p5411
aS'a type of'
p5412
aVcombination
p5413
aa(lp5414
Vkalyanavasantam
p5415
aS'is a'
p5416
aVasymmetric ragam
p5417
aa(lp5418
Vkalyanavasantam
p5419
aS'is a'
p5420
aVragam
p5421
aa(lp5422
Vkalyanavasantam
p5423
aVnot contain
p5424
aVpanchamam
p5425
aa(lp5426
Vkalyanavasantam
p5427
ag5424
aVrishabham
p5428
aa(lp5429
Vkalyanavasantam
p5430
aS'is a'
p5431
aVaudava-sampurna ragam
p5432
aa(lp5433
Vkalyanavasantam
p5434
aS'is a'
p5435
aVragam
p5436
aa(lp5437
Vgraha bhedam
p5438
aVapply on
p5439
aVragam
p5440
aa(lp5441
Vgraha bhedam
p5442
aVyield
p5443
aVragam
p5444
aa(lp5445
Vvarunapriya
p5446
aS'is a'
p5447
aVderivative
p5448
aa(lp5449
Vvarunapriya
p5450
aS'is a'
p5451
aVvice-versa
p5452
aa(lp5453
Vvarunapriya
p5454
aVderivative of
p5455
aVragavardhini
p5456
aa(lp5457
Vvarunapriya
p5458
aVderivative 's
p5459
aVgraha bhedam
p5460
aa(lp5461
Vmararanjani
p5462
aVderivative of
p5463
aVvanaspati
p5464
aa(lp5465
Vmararanjani
p5466
aVderivative 's
p5467
aVgraha bhedam
p5468
aa(lp5469
Vmararanjani
p5470
aS'is a'
p5471
aVderivative
p5472
aa(lp5473
Vmararanjani
p5474
aS'is a'
p5475
aVvice-versa
p5476
aa(lp5477
Vkantamani
p5478
aVderivative of
p5479
aVmanavati
p5480
aa(lp5481
Vkantamani
p5482
aVderivative 's
p5483
aVgraha bhedam
p5484
aa(lp5485
Vkantamani
p5486
aS'is a'
p5487
aVderivative
p5488
aa(lp5489
Vkantamani
p5490
aS'is a'
p5491
aVvice-versa
p5492
aa(lp5493
Vrishabhapriya
p5494
aS'is a'
p5495
aVderivative
p5496
aa(lp5497
Vrishabhapriya
p5498
aS'is a'
p5499
aVvice-versa
p5500
aa(lp5501
Vrishabhapriya
p5502
aVderivative of
p5503
aVkokilapriya
p5504
aa(lp5505
Vrishabhapriya
p5506
aVderivative 's
p5507
aVgraha bhedam
p5508
aa(lp5509
Vdhatuvardani
p5510
aS'is a'
p5511
aVderivative
p5512
aa(lp5513
Vdhatuvardani
p5514
aS'is a'
p5515
aVvice-versa
p5516
aa(lp5517
Vdhatuvardani
p5518
aVderivative of
p5519
aVgayakapriya
p5520
aa(lp5521
Vdhatuvardani
p5522
aVderivative 's
p5523
aVgraha bhedam
p5524
aa(lp5525
Vgavambhodi
p5526
aS'is a'
p5527
aVderivative
p5528
aa(lp5529
Vgavambhodi
p5530
aS'is a'
p5531
aVvice-versa
p5532
aa(lp5533
Vgavambhodi
p5534
aVderivative of
p5535
aVhatakambari
p5536
aa(lp5537
Vgavambhodi
p5538
aVderivative 's
p5539
aVgraha bhedam
p5540
aa(lp5541
Vneetimati
p5542
aVderivative of
p5543
aVgangeyabhooshani
p5544
aa(lp5545
Vneetimati
p5546
aS'is a'
p5547
aVgraha derivative
p5548
aa(lp5549
Vneetimati
p5550
aS'is a'
p5551
aVderivative
p5552
aa(lp5553
Vneetimati
p5554
aS'is a'
p5555
aVvice-versa
p5556
aa(lp5557
Vneetimati
p5558
aS'is a'
p5559
aVbhedam derivative
p5560
aa(lp5561
Vshubhapantuvarali
p5562
aVderivative of
p5563
aVchalanata
p5564
aa(lp5565
Vshubhapantuvarali
p5566
aS'is a'
p5567
aVgraha derivative
p5568
aa(lp5569
Vshubhapantuvarali
p5570
aS'is a'
p5571
aVderivative
p5572
aa(lp5573
Vshubhapantuvarali
p5574
aS'is a'
p5575
aVvice-versa
p5576
aa(lp5577
Vshubhapantuvarali
p5578
aS'is a'
p5579
aVbhedam derivative
p5580
aa(lp5581
Vjanya
p5582
aS'a type of'
p5583
aVragam
p5584
aa(lp5585
Vbhupalam
p5586
aS'a type of'
p5587
aVderivative
p5588
aa(lp5589
Vpantula rama
p5590
aVbear into
p5591
aVfamily
p5592
aa(lp5593
Vpantula rama
p5594
aVbear with
p5595
aVlineage
p5596
aa(lp5597
Vpantula rama
p5598
aVperform since
p5599
aVeight
p5600
aa(lp5601
Valapana
p5602
aS'is a'
p5603
aVform
p5604
aa(lp5605
Valapana
p5606
aVform of
p5607
aVmelodic improvisation
p5608
aa(lp5609
Valapana
p5610
aVdevelop
p5611
aVraga
p5612
aa(lp5613
Valapana
p5614
aVmean
p5615
aVcommunicate
p5616
aa(lp5617
Valapana
p5618
aVprecede
p5619
aVsong
p5620
aa(lp5621
Valapana
p5622
aVrender with
p5623
aVgradual increase
p5624
aa(lp5625
Valapana
p5626
aVrender in
p5627
aVdifferent speed
p5628
aa(lp5629
Valapana
p5630
aVtake
p5631
aVcenter stage
p5632
aa(lp5633
Vmridangam
p5634
aS'a type of'
p5635
aVbe
p5636
aa(lp5637
Vguruvayur dorai
p5638
aVlearn
p5639
aVmridangam
p5640
aa(lp5641
Vchembai
p5642
aVstay at
p5643
aVtheir house
p5644
aa(lp5645
Vmridangam
p5646
aS'a type of'
p5647
aVpractice
p5648
aa(lp5649
Vguruvayur dorai
p5650
aVstay with
p5651
aVpalani_subramaniam_pillai
p5652
aa(lp5653
Vguruvayur dorai
p5654
aVstay for
p5655
aVyear
p5656
aa(lp5657
Vguruvayur dorai
p5658
aVstay in
p5659
aVgurukulavasam fashion
p5660
aa(lp5661
Vguruvayur dorai
p5662
aVstay in
p5663
aVresidence
p5664
aa(lp5665
Vguruvayur dorai
p5666
aVaccompany
p5667
aVsr.
p5668
aa(lp5669
Vvyasatirtha
p5670
aVcompose
p5671
aVit
p5672
aa(lp5673
Vsheik mahaboob subhani
p5674
aVperform
p5675
aVnagaswaram artist
p5676
aa(lp5677
Vsheik mahaboob subhani
p5678
aVrender
p5679
aVpopular raga
p5680
aa(lp5681
Vsheik mahaboob subhani
p5682
ag5679
aVkritis
p5683
aa(lp5684
Verode nagaraj
p5685
aVplayer of
p5686
aVinstrument
p5687
aa(lp5688
Verode nagaraj
p5689
aS'is a'
p5690
aVplayer
p5691
aa(lp5692
Verode nagaraj
p5693
aS'is a'
p5694
aVprofessional player
p5695
aa(lp5696
Vmelakarta
p5697
aS'a type of'
p5698
aVragam
p5699
aa(lp5700
g5697
aS'a type of'
p5701
aVsystem
p5702
aa(lp5703
Vmelakarta
p5704
aS'a type of'
p5705
aVscale
p5706
aa(lp5707
Vjanya
p5708
aS'a type of'
p5709
aVragam
p5710
aa(lp5711
Vjanya
p5712
aS'a type of'
p5713
aVragam
p5714
aa(lp5715
Vmridangam
p5716
aS'a type of'
p5717
aVplayer
p5718
aa(lp5719
Vmridangam
p5720
aVmridangam from
p5721
aVmridanga father vidwan muthukulam_s._kumara_pillai
p5722
aa(lp5723
Vmridangam
p5724
aS'a type of'
p5725
aVdepartment
p5726
aa(lp5727
Vratnangi
p5728
aVragam in
p5729
aVmusic
p5730
aa(lp5731
Vratnangi
p5732
aS'is a'
p5733
aVragam
p5734
aa(lp5735
Vmelakarta
p5736
aS'a type of'
p5737
aVragam
p5738
aa(lp5739
g5736
aS'a type of'
p5740
aVsystem
p5741
aa(lp5742
Vratnangi
p5743
aVcall in
p5744
aVschool
p5745
aa(lp5746
Vratnangi
p5747
aS'is a'
p5748
aVmelakarta ragam
p5749
aa(lp5750
Vratnangi
p5751
aS'is a'
p5752
aVragam
p5753
aa(lp5754
Vratnangi
p5755
aS'is a'
p5756
aVsampoorna ragam
p5757
aa(lp5758
Vratnangi
p5759
aS'is a'
p5760
aVragam
p5761
aa(lp5762
Vmelakarta
p5763
aS'a type of'
p5764
aVragam
p5765
aa(lp5766
Vmelakarta
p5767
aS'a type of'
p5768
aVscale
p5769
aa(lp5770
Vratnangi
p5771
aVequivalent of
p5772
aVjalarnavam
p5773
aa(lp5774
Vratnangi
p5775
aS'is a'
p5776
aVequivalent
p5777
aa(lp5778
Vratnangi
p5779
aS'is a'
p5780
aVmadhyamam equivalent
p5781
aa(lp5782
Vratnangi
p5783
aS'is a'
p5784
aVshuddha equivalent
p5785
aa(lp5786
Vvenkatamakhin
p5787
aVcompile
p5788
aVoriginal list
p5789
aa(lp5790
Vjanya
p5791
aS'a type of'
p5792
aVragam
p5793
aa(lp5794
Vratnangi
p5795
aVhave
p5796
aVminor ragam
p5797
aa(lp5798
Vjanya
p5799
aS'a type of'
p5800
aVraga
p5801
aa(lp5802
Vnattakurinji
p5803
aS'is a'
p5804
aVraga
p5805
aa(lp5806
Vnattakurinji
p5807
aS'is a'
p5808
aVjanya raga
p5809
aa(lp5810
Vnattakurinji
p5811
aVraga of
p5812
aV26
p5813
aa(lp5814
Vmelakarta
p5815
aS'a type of'
p5816
aVharikambhojus
p5817
aa(lp5818
Vjanya
p5819
aS'a type of'
p5820
aVraga
p5821
aa(lp5822
Vpurandara dasa
p5823
aVspend
p5824
aVpurandara_dasa
p5825
aa(lp5826
Vpurandara dasa
p5827
aVsing in
p5828
aVdurbar
p5829
aa(lp5830
Vpurandara dasa
p5831
aVsystematize
p5832
aVmethod
p5833
aa(lp5834
Vpurandara dasa
p5835
aS'is a'
p5836
aVfirst composer
p5837
aa(lp5838
Vpurandara dasa
p5839
aS'is a'
p5840
aVcomposer
p5841
aa(lp5842
Vpurandara dasa
p5843
aVinclude
p5844
aVcomment
p5845
aa(lp5846
Vpurandara dasa
p5847
aVuse
p5848
aVelement
p5849
aa(lp5850
Vpurandara dasa
p5851
aS'is a'
p5852
aVvaggeyakara
p5853
aa(lp5854
Vpurandara dasa
p5855
aVhave
p5856
aVgreat influence
p5857
aa(lp5858
Vpurandara dasa
p5859
aVexplain
p5860
aVessence
p5861
aa(lp5862
Vpurandara dasa
p5863
aVperson among
p5864
aVdevotee
p5865
aa(lp5866
Vpurandara dasa
p5867
aVperson :
p5868
aVpurandara dasarendare dasarayya
p5869
aa(lp5870
Vpurandara dasa
p5871
aS'is a'
p5872
aVexemplary person
p5873
aa(lp5874
Vpurandara dasa
p5875
aS'is a'
p5876
aVperson
p5877
aa(lp5878
Vpurandara dasa
p5879
aVfight
p5880
aVevil
p5881
aa(lp5882
Vpurandara dasa
p5883
aVmake
p5884
aVforceful expression
p5885
aa(lp5886
Vpurandara dasa
p5887
aVuse
p5888
aVname
p5889
aa(lp5890
Vpurandara dasa
p5891
aVsay
p5892
aVbalu kashta
p5893
aa(lp5894
Vnatakapriya
p5895
aS'is a'
p5896
aVragam
p5897
aa(lp5898
Vnatakapriya
p5899
aVragam in
p5900
aVmusic
p5901
aa(lp5902
Vmelakarta
p5903
aS'a type of'
p5904
aVsystem
p5905
aa(lp5906
g5903
aS'a type of'
p5907
aVragam
p5908
aa(lp5909
Vmelakarta
p5910
aS'a type of'
p5911
aVragam
p5912
aa(lp5913
Vmelakarta
p5914
aS'a type of'
p5915
aVragam
p5916
aa(lp5917
Vnatakapriya
p5918
aVequivalent of
p5919
aVshadvidamargini
p5920
aa(lp5921
Vnatakapriya
p5922
aS'is a'
p5923
aVequivalent
p5924
aa(lp5925
Vnatakapriya
p5926
aS'is a'
p5927
aVmadhyamam equivalent
p5928
aa(lp5929
Vnatakapriya
p5930
aS'is a'
p5931
aVshuddha equivalent
p5932
aa(lp5933
Vvenkatamakhin
p5934
aVcompile
p5935
aVoriginal list
p5936
aa(lp5937
Vjanya
p5938
aS'a type of'
p5939
aVragam
p5940
aa(lp5941
Vmysore vasudevachar
p5942
aVadmirer of
p5943
aVgiant
p5944
aa(lp5945
Vmysore vasudevachar
p5946
aS'is a'
p5947
aVgreat admirer
p5948
aa(lp5949
Vmysore vasudevachar
p5950
aS'is a'
p5951
aVadmirer
p5952
aa(lp5953
Vsucharitra
p5954
aVragam in
p5955
aVmusic
p5956
aa(lp5957
Vsucharitra
p5958
aS'is a'
p5959
aVragam
p5960
aa(lp5961
Vmelakarta
p5962
aS'a type of'
p5963
aVragam
p5964
aa(lp5965
g5962
aS'a type of'
p5966
aVsystem
p5967
aa(lp5968
Vsucharitra
p5969
aVbe
p5970
aVmelakarta ragam
p5971
aa(lp5972
Vmelakarta
p5973
aS'a type of'
p5974
aVragam
p5975
aa(lp5976
Vsucharitra
p5977
aS'is a'
p5978
aVsampoorna ragam
p5979
aa(lp5980
Vsucharitra
p5981
aS'is a'
p5982
aVragam
p5983
aa(lp5984
Vmelakarta
p5985
aS'a type of'
p5986
aVscale
p5987
aa(lp5988
Vsucharitra
p5989
aVhave
p5990
aVjanya ragam
p5991
aa(lp5992
Vjanya
p5993
aS'a type of'
p5994
aVragam
p5995
aa(lp5996
Vmelakarta
p5997
aS'a type of'
p5998
aVragam
p5999
aa(lp6000
Vannamacharya
p6001
aVof
p6002
aVth century
p6003
aa(lp6004
Vannamacharya
p6005
aVregard as
p6006
aVfirst vaggeyakara
p6007
aa(lp6008
Vmelakarta
p6009
aS'a type of'
p6010
aVraga
p6011
aa(lp6012
Vmelakarta
p6013
aS'a type of'
p6014
aVraga
p6015
aa(lp6016
Vmelakarta
p6017
aS'a type of'
p6018
aVraga
p6019
aa(lp6020
Vcharulatha mani
p6021
aVperform
p6022
aVconcert
p6023
aa(lp6024
Vcharulatha mani
p6025
aVappear in
p6026
aVindia
p6027
aa(lp6028
Vcharulatha mani
p6029
aVappear in
p6030
aVradio programme
p6031
aa(lp6032
Vcharulatha mani
p6033
aVappear in
p6034
aVnumerous show
p6035
aa(lp6036
Vcharulatha mani
p6037
aVhave
p6038
aVhuge fan
p6039
aa(lp6040
Vcharulatha mani
p6041
aS'is a'
p6042
aVmusic vocalist
p6043
aa(lp6044
Vcharulatha mani
p6045
aS'is a'
p6046
aVvocalist
p6047
aa(lp6048
Vcharulatha mani
p6049
aS'is a'
p6050
aVlead vocalist
p6051
aa(lp6052
Vcharulatha mani
p6053
aS'is a'
p6054
aVcarnatic vocalist
p6055
aa(lp6056
Vcharulatha mani
p6057
aVperform over
p6058
aVindia
p6059
aa(lp6060
Vcharulatha mani
p6061
aVperform in
p6062
aVmajor sabha
p6063
aa(lp6064
Vcharulatha mani
p6065
aVpursue
p6066
aVcareer
p6067
aa(lp6068
Vcharulatha mani
p6069
aVsing for
p6070
aVfilm
p6071
aa(lp6072
Vavaneeswaram s r vinu
p6073
aVbear to
p6074
aVsahithi_devi
p6075
aa(lp6076
Vavaneeswaram s r vinu
p6077
aVbear to
p6078
aVramachandran avaneeswaram
p6079
aa(lp6080
Vavaneeswaram s r vinu
p6081
aVbear in
p6082
aVtrivandrum
p6083
aa(lp6084
Vavaneeswaram s r vinu
p6085
aVbear in
p6086
aVkerala
p6087
aa(lp6088
Vtyagaraja
p6089
aVfollow in
p6090
aVsong
p6091
aa(lp6092
Vkokilapriya
p6093
aS'is a'
p6094
aVragam
p6095
aa(lp6096
Vkokilapriya
p6097
aVragam in
p6098
aVmusic
p6099
aa(lp6100
Vkokilapriya
p6101
aS'is a'
p6102
aVragam
p6103
aa(lp6104
Vmelakarta
p6105
aS'a type of'
p6106
aVsystem
p6107
aa(lp6108
Vkokilapriya
p6109
aVragam 's
p6110
aVth melakarta
p6111
aa(lp6112
Vkokilapriya
p6113
aVragam in
p6114
aVmelakarta system
p6115
aa(lp6116
Vmelakarta
p6117
aS'a type of'
p6118
aVragam
p6119
aa(lp6120
Vkokilapriya
p6121
aS'is a'
p6122
aVsampoorna ragam
p6123
aa(lp6124
Vkokilapriya
p6125
aS'is a'
p6126
aVragam
p6127
aa(lp6128
Vkokilapriya
p6129
aS'is a'
p6130
aVmelakarta ragam
p6131
aa(lp6132
Vkokilapriya
p6133
aS'is a'
p6134
aVragam
p6135
aa(lp6136
Vkokilapriya
p6137
aVequivalent of
p6138
aVsuvarnangi
p6139
aa(lp6140
Vkokilapriya
p6141
aS'is a'
p6142
aVequivalent
p6143
aa(lp6144
Vkokilapriya
p6145
aS'is a'
p6146
aVmadhyamam equivalent
p6147
aa(lp6148
Vkokilapriya
p6149
aS'is a'
p6150
aVshuddha equivalent
p6151
aa(lp6152
Vvenkatamakhin
p6153
aVcompile
p6154
aVoriginal list
p6155
aa(lp6156
Vjanya
p6157
aS'a type of'
p6158
aVragam
p6159
aa(lp6160
Vkokilapriya
p6161
aVhave
p6162
aVminor ragam
p6163
aa(lp6164
Vmuthuswami dikshitar
p6165
ag1225
aVcomposition kodandarama
p6166
aa(lp6167
Vtyagaraja aradhana
p6168
aVfestival 's
p6169
aVannual carnatic
p6170
aa(lp6171
Vtyagaraja aradhana
p6172
aVhold in
p6173
aVjanuary
p6174
aa(lp6175
Vtyagaraja aradhana
p6176
aVhold in
p6177
aVfebruary
p6178
aa(lp6179
Vtyagaraja aradhana
p6180
aS'is a'
p6181
aVfestival
p6182
aa(lp6183
Vtyagaraja aradhana
p6184
aS'is a'
p6185
aVmusic festival
p6186
aa(lp6187
Vnadaswaram
p6188
aS'a type of'
p6189
aVperformance
p6190
aa(lp6191
Vtyagaraja
p6192
aVinstall
p6193
aVsaint
p6194
aa(lp6195
Vtyagaraja
p6196
aVsculpt
p6197
ag6194
aa(lp6198
Vcleveland thyagaraja aradhana
p6199
aVbe in
p6200
aVus
p6201
aa(lp6202
Vcleveland thyagaraja aradhana
p6203
aVhold in
p6204
aVcleveland
p6205
aa(lp6206
Vcleveland thyagaraja aradhana
p6207
aVhold in
p6208
aVohio
p6209
aa(lp6210
Vneetimati
p6211
aS'is a'
p6212
aVragam
p6213
aa(lp6214
Vneetimati
p6215
aVragam in
p6216
aVmusic
p6217
aa(lp6218
Vmelakarta
p6219
aS'a type of'
p6220
aVragam
p6221
aa(lp6222
g6219
aS'a type of'
p6223
aVsystem
p6224
aa(lp6225
Vmelakarta
p6226
aS'a type of'
p6227
aVragam
p6228
aa(lp6229
Vmelakarta
p6230
aS'a type of'
p6231
aVragam
p6232
aa(lp6233
Vneetimati
p6234
aVhave
p6235
aVjanya ragam
p6236
aa(lp6237
Vjanya
p6238
aS'a type of'
p6239
aVragam
p6240
aa(lp6241
Vnaganandini
p6242
aVragam in
p6243
aVmusic
p6244
aa(lp6245
Vnaganandini
p6246
aS'is a'
p6247
aVragam
p6248
aa(lp6249
Vmelakarta
p6250
aS'a type of'
p6251
aVsystem
p6252
aa(lp6253
Vnaganandini
p6254
aS'is a'
p6255
aVragam
p6256
aa(lp6257
Vnaganandini
p6258
aVragam 's
p6259
aVth melakarta
p6260
aa(lp6261
Vnaganandini
p6262
aVragam in
p6263
aVmelakarta system
p6264
aa(lp6265
Vnaganandini
p6266
aS'is a'
p6267
aVmelakarta ragam
p6268
aa(lp6269
Vnaganandini
p6270
aS'is a'
p6271
aVragam
p6272
aa(lp6273
Vmelakarta
p6274
aS'a type of'
p6275
aVragam
p6276
aa(lp6277
Vnaganandini
p6278
aS'is a'
p6279
aVsampoorna ragam
p6280
aa(lp6281
Vnaganandini
p6282
aS'is a'
p6283
aVragam
p6284
aa(lp6285
Vnaganandini
p6286
aVequivalent of
p6287
aVchitrambari
p6288
aa(lp6289
Vnaganandini
p6290
aS'is a'
p6291
aVequivalent
p6292
aa(lp6293
Vnaganandini
p6294
aS'is a'
p6295
aVmadhyamam equivalent
p6296
aa(lp6297
Vnaganandini
p6298
aS'is a'
p6299
aVshuddha equivalent
p6300
aa(lp6301
Vchitrambari
p6302
aS'is a'
p6303
aVth melakarta
p6304
aa(lp6305
Vchitrambari
p6306
aS'is a'
p6307
aVmelakarta
p6308
aa(lp6309
Vjanya
p6310
aS'a type of'
p6311
aVragam
p6312
aa(lp6313
Vnaganandini
p6314
aVhave
p6315
aVminor ragam
p6316
aa(lp6317
Vnavagraha kritis
p6318
aS'is a'
p6319
aVset
p6320
aa(lp6321
Vnavagraha kritis
p6322
aVset of
p6323
aV9
p6324
aa(lp6325
Vtanarupi
p6326
aS'is a'
p6327
aVragam
p6328
aa(lp6329
Vtanarupi
p6330
aVragam in
p6331
aVmusic
p6332
aa(lp6333
Vmelakarta
p6334
aS'a type of'
p6335
aVragam
p6336
aa(lp6337
g6334
aS'a type of'
p6338
aVsystem
p6339
aa(lp6340
Vtanarupi
p6341
aVcall in
p6342
aVschool
p6343
aa(lp6344
Vtanarupi
p6345
aS'is a'
p6346
aVsampoorna ragam
p6347
aa(lp6348
Vtanarupi
p6349
aS'is a'
p6350
aVragam
p6351
aa(lp6352
Vtanarupi
p6353
aS'is a'
p6354
aVmelakarta ragam
p6355
aa(lp6356
Vtanarupi
p6357
aS'is a'
p6358
aVragam
p6359
aa(lp6360
Vmelakarta
p6361
aS'a type of'
p6362
aVragam
p6363
aa(lp6364
Vtanarupi
p6365
aS'is a'
p6366
aVequivalent
p6367
aa(lp6368
Vtanarupi
p6369
aS'is a'
p6370
aVmadhyamam equivalent
p6371
aa(lp6372
Vtanarupi
p6373
aS'is a'
p6374
aVshuddha equivalent
p6375
aa(lp6376
Vmelakarta
p6377
aS'a type of'
p6378
aVragam
p6379
aa(lp6380
Vtanarupi
p6381
aVequivalent of
p6382
aVraghupriya
p6383
aa(lp6384
Vvenkatamakhin
p6385
aVcompile
p6386
aVoriginal list
p6387
aa(lp6388
Vjanya
p6389
aVassociate with
p6390
aVtanarupi
p6391
aa(lp6392
Vtanarupi
p6393
aVhave
p6394
ag6389
aa(lp6395
Vnavaragamalika
p6396
aS'is a'
p6397
aVcomposition
p6398
aa(lp6399
Vnavaragamalika
p6400
aVcomposition in
p6401
aVcarnatic music
p6402
aa(lp6403
Vnavaragamalika
p6404
aVuse
p6405
aVcollection
p6406
aa(lp6407
Vnavaragamalika
p6408
aS'is a'
p6409
aVsandhus
p6410
aa(lp6411
Vnavaragamalika
p6412
aVsandhus of
p6413
aVtwo
p6414
aa(lp6415
Vsahityam
p6416
aVsahityam of
p6417
aVsong
p6418
aa(lp6419
Vgiriraja kavi
p6420
aVbear in
p6421
aVandhra_pradesh
p6422
aa(lp6423
Vgiriraja kavi
p6424
aVbear in
p6425
aVdistrict
p6426
aa(lp6427
Vgiriraja kavi
p6428
aVbear in
p6429
aVcumbum taluk
p6430
aa(lp6431
Vgiriraja kavi
p6432
aVbear in
p6433
aVvillage
p6434
aa(lp6435
Vtyagaraja
p6436
aVfind
p6437
aVnaradeeyam
p6438
aa(lp6439
Vtyagaraja
p6440
aVson of
p6441
aVparent
p6442
aa(lp6443
Vtyagaraja
p6444
aS'is a'
p6445
aVthird son
p6446
aa(lp6447
Vtyagaraja
p6448
aS'is a'
p6449
aVson
p6450
aa(lp6451
Vtyagaraja
p6452
aVbegin
p6453
aVmusical training
p6454
aa(lp6455
Vtyagaraja aradhana
p6456
aVperform at
p6457
aVhouse
p6458
aa(lp6459
Vtyagaraja
p6460
aVsing
p6461
aVendaro_mahaanubhavulu
p6462
aa(lp6463
Vharidasa
p6464
aS'a type of'
p6465
aVmovement
p6466
aa(lp6467
Vvyasatirtha
p6468
aVassociate with
p6469
aVempire
p6470
aa(lp6471
Vjanya
p6472
aS'a type of'
p6473
aVragam
p6474
aa(lp6475
Vannamacharya
p6476
aS'a type of'
p6477
aVcareer
p6478
aa(lp6479
Vshanmukhapriya
p6480
aS'is a'
p6481
aVragam
p6482
aa(lp6483
Vshanmukhapriya
p6484
aVragam in
p6485
aVmusic
p6486
aa(lp6487
Vmelakarta
p6488
aS'a type of'
p6489
aVragam
p6490
aa(lp6491
g6488
aS'a type of'
p6492
aVsystem
p6493
aa(lp6494
Vshanmukhapriya
p6495
aVcall in
p6496
aVschool
p6497
aa(lp6498
Vmelakarta
p6499
aS'a type of'
p6500
aVragam
p6501
aa(lp6502
Vshanmukhapriya
p6503
aS'is a'
p6504
aVsampoorna ragam
p6505
aa(lp6506
Vshanmukhapriya
p6507
aS'is a'
p6508
aVragam
p6509
aa(lp6510
Vshanmukhapriya
p6511
aS'is a'
p6512
aVmelakarta ragam
p6513
aa(lp6514
Vshanmukhapriya
p6515
aS'is a'
p6516
aVragam
p6517
aa(lp6518
Vmelakarta
p6519
aS'a type of'
p6520
aVscale
p6521
aa(lp6522
Vshanmukhapriya
p6523
aVequivalent of
p6524
aVnatabhairavi
p6525
aa(lp6526
Vshanmukhapriya
p6527
aS'is a'
p6528
aVequivalent
p6529
aa(lp6530
Vshanmukhapriya
p6531
aS'is a'
p6532
aVpratus equivalent
p6533
aa(lp6534
Vshanmukhapriya
p6535
aS'is a'
p6536
aVmadhyamam equivalent
p6537
aa(lp6538
Vjanya
p6539
aS'a type of'
p6540
aVragam
p6541
aa(lp6542
Vshanmukhapriya
p6543
aVhave
p6544
aVminor ragam
p6545
aa(lp6546
Vtiger varadachariar
p6547
aVvocalist 's
p6548
aVfamous carnatic
p6549
aa(lp6550
Vtiger varadachariar
p6551
aS'is a'
p6552
aVmusic vocalist
p6553
aa(lp6554
Vtiger varadachariar
p6555
aS'is a'
p6556
aVvocalist
p6557
aa(lp6558
Vtiger varadachariar
p6559
aVhail from
p6560
aVindian state
p6561
aa(lp6562
Vtiger varadachariar
p6563
aVhail from
p6564
aVmusical family
p6565
aa(lp6566
Vtiger varadachariar
p6567
aVbear on
p6568
aVaugust_1_,_1876
p6569
aa(lp6570
Vtiger varadachariar
p6571
aVbear at
p6572
aVkolathur
p6573
aa(lp6574
Vasaveri
p6575
aVragam in
p6576
aVmusic
p6577
aa(lp6578
Vasaveri
p6579
aS'is a'
p6580
aVragam
p6581
aa(lp6582
Vjanya
p6583
aS'a type of'
p6584
aVragam
p6585
aa(lp6586
Vmelakarta
p6587
aS'a type of'
p6588
aVscale
p6589
aa(lp6590
Vhanumatodi
p6591
aS'a type of'
p6592
aVragam
p6593
aa(lp6594
Vasaveri
p6595
aVmention in
p6596
aVsangita_ratnakara
p6597
aa(lp6598
Vasaveri
p6599
aS'is a'
p6600
aVancient ragam
p6601
aa(lp6602
Vasaveri
p6603
aS'is a'
p6604
aVragam
p6605
aa(lp6606
Vasaveri
p6607
aVresemble
p6608
aVasa todi
p6609
aa(lp6610
Vasaveri
p6611
ag6608
aVkomal_asavari
p6612
aa(lp6613
Vasaveri
p6614
aVnot contain
p6615
aVnishadam
p6616
aa(lp6617
Vasaveri
p6618
ag6615
aVgandharam
p6619
aa(lp6620
Vasaveri
p6621
aS'is a'
p6622
aVasymmetric ragam
p6623
aa(lp6624
Vasaveri
p6625
aS'is a'
p6626
aVragam
p6627
aa(lp6628
Vmuthuswami dikshitar
p6629
aVcompose
p6630
aVplain note
p6631
aa(lp6632
Vmuthuswami dikshitar
p6633
aVaid
p6634
aVhis master
p6635
aa(lp6636
Vgopalakrishna bharathi
p6637
aVcompose
p6638
aVseveral kritis
p6639
aa(lp6640
Vsyama sastri
p6641
aVcompose on
p6642
aVgoddess kamakshi
p6643
aa(lp6644
Vsyama sastri
p6645
aVcompose in
p6646
aVtamil_brahmin
p6647
aa(lp6648
Vadi tala
p6649
aVrenown for
p6650
aVability
p6651
aa(lp6652
Vadi tala
p6653
aVrevere during
p6654
aVtime
p6655
aa(lp6656
Vadi tala
p6657
aVrevere for
p6658
aVvoice
p6659
aa(lp6660
Vadi tala
p6661
aVrevere for
p6662
aVsing ability
p6663
aa(lp6664
Vpallavi seshayyar
p6665
aS'is a'
p6666
aVsinger
p6667
aa(lp6668
Vpallavi seshayyar
p6669
aVbear in
p6670
aVneykkarapatti
p6671
aa(lp6672
Vpallavi seshayyar
p6673
aVlearn
p6674
aVmany
p6675
aa(lp6676
Vtyagaraja
p6677
aVcompose
p6678
aVsong
p6679
aa(lp6680
Vpallavi seshayyar
p6681
aVcompose in
p6682
aVtelugu
p6683
aa(lp6684
Vpallavi seshayyar
p6685
aVcompose in
p6686
aVsanskrit
p6687
aa(lp6688
Vnasikabhushani
p6689
aS'is a'
p6690
aVragam
p6691
aa(lp6692
Vnasikabhushani
p6693
aVragam in
p6694
aVmusic
p6695
aa(lp6696
Vmelakarta
p6697
aS'a type of'
p6698
aVsystem
p6699
aa(lp6700
Vnasikabhushani
p6701
aS'is a'
p6702
aVmelakarta ragam
p6703
aa(lp6704
Vnasikabhushani
p6705
aS'is a'
p6706
aVragam
p6707
aa(lp6708
Vmelakarta
p6709
aS'a type of'
p6710
aVragam
p6711
aa(lp6712
Vmelakarta
p6713
aS'a type of'
p6714
aVragam
p6715
aa(lp6716
Vjanya
p6717
aS'a type of'
p6718
aVragam
p6719
aa(lp6720
Vnasikabhushani
p6721
aVhave
p6722
aVcouple
p6723
aa(lp6724
Vveene sheshanna
p6725
aS'is a'
p6726
aVmusician
p6727
aa(lp6728
Vveene sheshanna
p6729
aS'is a'
p6730
aVconcert musician
p6731
aa(lp6732
Vveene sheshanna
p6733
aVbear in
p6734
aVmysore
p6735
aa(lp6736
Vveene sheshanna
p6737
aVbear in
p6738
aVfamily
p6739
aa(lp6740
Vveene sheshanna
p6741
aVbear in
p6742
aV1852
p6743
aa(lp6744
Vveene sheshanna
p6745
aVdisplay
p6746
aVmusical talent
p6747
aa(lp6748
Vveene sheshanna
p6749
aS'is a'
p6750
aVdiligent music
p6751
aa(lp6752
Vveene sheshanna
p6753
aS'is a'
p6754
aVmusic
p6755
aa(lp6756
Vveene sheshanna
p6757
aS'is a'
p6758
aVstudent
p6759
aa(lp6760
Vveene sheshanna
p6761
aS'is a'
p6762
aVdiligent student
p6763
aa(lp6764
Vveene sheshanna
p6765
aVtour
p6766
aVsouth_india
p6767
aa(lp6768
Vveene sheshanna
p6769
aVgive
p6770
aVperformance
p6771
aa(lp6772
Vveene sheshanna
p6773
aVplay
p6774
aVit
p6775
aa(lp6776
Vveene sheshanna
p6777
aVhold
p6778
aVit
p6779
aa(lp6780
Vveene sheshanna
p6781
aVoriginator of
p6782
aS'#unknown'
p6783
aa(lp6784
Vveene sheshanna
p6785
aS'is a'
p6786
aVoriginator
p6787
aa(lp6788
Vveene sheshanna
p6789
aVcompose
p6790
aV53
p6791
aa(lp6792
Vveene sheshanna
p6793
aVhave
p6794
aVdeep understanding
p6795
aa(lp6796
Vveene sheshanna
p6797
aVgive
p6798
aVmusic concert
p6799
aa(lp6800
Vmuthuswami dikshitar
p6801
aS'is a'
p6802
aVsouth composer
p6803
aa(lp6804
Vmuthuswami dikshitar
p6805
aS'is a'
p6806
aVindian composer
p6807
aa(lp6808
Vmuthuswami dikshitar
p6809
aS'is a'
p6810
aVindian poet
p6811
aa(lp6812
Vmuthuswami dikshitar
p6813
aS'is a'
p6814
aVcomposer
p6815
aa(lp6816
Vmuthuswami dikshitar
p6817
aS'is a'
p6818
aVpoet
p6819
aa(lp6820
Vmuthuswami dikshitar
p6821
aS'is a'
p6822
aVsouth poet
p6823
aa(lp6824
Vmuthuswami dikshitar
p6825
aVof
p6826
aVmusical_trinity_of_carnatic music
p6827
aa(lp6828
Vmuthuswami dikshitar
p6829
aVcompose
p6830
aVmany kritis
p6831
aa(lp6832
Vmuthuswami dikshitar
p6833
aVcompose
p6834
aV13
p6835
aa(lp6836
Vrevathy krishna
p6837
aS'is a'
p6838
aVdaughter
p6839
aa(lp6840
Vrevathy krishna
p6841
aVbear as
p6842
aVrevathy_chelvakumar
p6843
aa(lp6844
Vrevathy krishna
p6845
aVdaughter of
p6846
aVlakshmi
p6847
aa(lp6848
Vrevathy krishna
p6849
aVdaughter of
p6850
aVrevathy chelvakumar
p6851
aa(lp6852
Vvyjayanthimala
p6853
aVappear in
p6854
aVseries
p6855
aa(lp6856
Vvyjayanthimala
p6857
aVhave
p6858
aVsame year
p6859
aa(lp6860
Vvyjayanthimala
p6861
aVplay
p6862
aVgirl
p6863
aa(lp6864
Vvyjayanthimala
p6865
aS'a type of'
p6866
aVyear
p6867
aa(lp6868
Vvyjayanthimala
p6869
aS'a type of'
p6870
aVschedule
p6871
aa(lp6872
Vvyjayanthimala
p6873
aVinvolve with
p6874
aVkapoor
p6875
aa(lp6876
Vvyjayanthimala
p6877
aVmarry
p6878
aVhe
p6879
aa(lp6880
Vvyjayanthimala
p6881
aVmarry
p6882
aVchamanlal_bali
p6883
aa(lp6884
Vvivadi
p6885
aS'a type of'
p6886
aVswaram
p6887
aa(lp6888
Vvivadi
p6889
aS'a type of'
p6890
aVswaram
p6891
aa(lp6892
Vchitrambari
p6893
aS'is a'
p6894
aVragam
p6895
aa(lp6896
Vchitrambari
p6897
aVragam in
p6898
aVmusic
p6899
aa(lp6900
Vmelakarta
p6901
aS'a type of'
p6902
aVsystem
p6903
aa(lp6904
Vmelakarta
p6905
aS'a type of'
p6906
aVragam
p6907
aa(lp6908
Vjanya
p6909
aS'a type of'
p6910
aVragam
p6911
aa(lp6912
Vchitrambari
p6913
aVhave
p6914
aVjanya ragam
p6915
aa(lp6916
Vjanya
p6917
aS'a type of'
p6918
aVragam
p6919
aa(lp6920
Vchitrambari
p6921
aS'is a'
p6922
aVother melakarta
p6923
aa(lp6924
Vchitrambari
p6925
aS'is a'
p6926
aVmelakarta
p6927
aa(lp6928
Vjanya
p6929
aS'a type of'
p6930
aVragam
p6931
aa(lp6932
Vmelakarta
p6933
aS'a type of'
p6934
aVscale
p6935
aa(lp6936
Vharikambhoji
p6937
aS'a type of'
p6938
aVragam
p6939
aa(lp6940
Vkedaragaula
p6941
aS'is a'
p6942
aVjanya ragam
p6943
aa(lp6944
Vkedaragaula
p6945
aS'is a'
p6946
aVragam
p6947
aa(lp6948
Vkedaragaula
p6949
aVragam from
p6950
aVmelakarta scale
p6951
aa(lp6952
Vkedaragaula
p6953
aVspell as
p6954
aVkedaragowla
p6955
aa(lp6956
Vjanya
p6957
aS'a type of'
p6958
aVscale
p6959
aa(lp6960
Vkedaragaula
p6961
aVnot have
p6962
aVswara
p6963
aa(lp6964
Vkedaragaula
p6965
aS'is a'
p6966
aVscale
p6967
aa(lp6968
Vkedaragaula
p6969
aS'is a'
p6970
aVjanya scale
p6971
aa(lp6972
Vmadhyamavati
p6973
aS'a type of'
p6974
aVcombination
p6975
aa(lp6976
Vharikambhoji
p6977
aS'a type of'
p6978
aVscale
p6979
aa(lp6980
Vkedaragaula
p6981
aS'is a'
p6982
aVsampurna scale
p6983
aa(lp6984
Vkedaragaula
p6985
aS'is a'
p6986
aVscale
p6987
aa(lp6988
Vkedaragaula
p6989
aS'is a'
p6990
aVcombination
p6991
aa(lp6992
Vkedaragaula
p6993
aS'is a'
p6994
aVharikambhoji scale
p6995
aa(lp6996
Vkedaragaula
p6997
aS'is a'
p6998
aVmadhyamavati combination
p6999
aa(lp7000
Vkedaragaula
p7001
aS'is a'
p7002
aVraga scale
p7003
aa(lp7004
Vkedaragaula
p7005
aVcombination of
p7006
aVpentatonic scale
p7007
aa(lp7008
Vkedaragaula
p7009
aS'is a'
p7010
aVmorning ragam
p7011
aa(lp7012
Vkedaragaula
p7013
aS'is a'
p7014
aVragam
p7015
aa(lp7016
Vkedaragaula
p7017
aS'is a'
p7018
aVasymmetric ragam
p7019
aa(lp7020
Vkedaragaula
p7021
aS'is a'
p7022
aVragam
p7023
aa(lp7024
Vkedaragaula
p7025
aVnot contain
p7026
aVdhaivatam
p7027
aa(lp7028
Vkedaragaula
p7029
ag7026
aVgandharam
p7030
aa(lp7031
Vkedaragaula
p7032
aS'is a'
p7033
aVaudava-sampurna ragam
p7034
aa(lp7035
Vkedaragaula
p7036
aS'is a'
p7037
aVragam
p7038
aa(lp7039
Vjanya
p7040
aS'a type of'
p7041
aVscale
p7042
aa(lp7043
Vyadukulakamboji
p7044
aS'is a'
p7045
aVasymmetric ragam
p7046
aa(lp7047
Vyadukulakamboji
p7048
aS'is a'
p7049
aVragam
p7050
aa(lp7051
Vyadukulakamboji
p7052
aVnot contain
p7053
aVnishadam
p7054
aa(lp7055
Vyadukulakamboji
p7056
ag7053
aVgandharam
p7057
aa(lp7058
Vkaraikudi sambasiva iyer
p7059
aVlive at
p7060
aVkalakshetra
p7061
aa(lp7062
Vkalakshetra
p7063
aVinstitution in
p7064
aVchennai
p7065
aa(lp7066
Vkalakshetra
p7067
aS'is a'
p7068
aVinstitution
p7069
aa(lp7070
Vkalakshetra
p7071
aS'is a'
p7072
aVart institution
p7073
aa(lp7074
Vkalakshetra
p7075
aS'is a'
p7076
aVnoted institution
p7077
aa(lp7078
Vthetakudi harihara vinayakram
p7079
aVplay at
p7080
aVyoung age
p7081
aa(lp7082
Vthetakudi harihara vinayakram
p7083
aVdonate
p7084
aVproceeds
p7085
aa(lp7086
Vchembai
p7087
aVknow over
p7088
aVwider area
p7089
aa(lp7090
Vviruttam
p7091
aS'a type of'
p7092
aVform
p7093
aa(lp7094
Vchembai
p7095
aVprompt about
p7096
aVraga
p7097
aa(lp7098
Vnilavizhi
p7099
aVname for
p7100
aVgirl
p7101
aa(lp7102
Vnilavizhi
p7103
aS'is a'
p7104
aVname
p7105
aa(lp7106
Vgarudadhvani
p7107
aS'is a'
p7108
aVjanya ragam
p7109
aa(lp7110
Vgarudadhvani
p7111
aS'is a'
p7112
aVragam
p7113
aa(lp7114
Vmelakarta
p7115
aS'a type of'
p7116
aVscale
p7117
aa(lp7118
Vgarudadhvani
p7119
aVragam from
p7120
aVmelakarta scale
p7121
aa(lp7122
Vjanya
p7123
aS'a type of'
p7124
aVragam
p7125
aa(lp7126
Vgarudadhvani
p7127
aS'is a'
p7128
aVscale
p7129
aa(lp7130
Vgarudadhvani
p7131
aS'is a'
p7132
aVjanya scale
p7133
aa(lp7134
Vjanya
p7135
aS'a type of'
p7136
aVscale
p7137
aa(lp7138
Vgarudadhvani
p7139
aVnot have
p7140
aVswara
p7141
aa(lp7142
Vgarudadhvani
p7143
aS'is a'
p7144
aVmohanam scale
p7145
aa(lp7146
Vgarudadhvani
p7147
aS'is a'
p7148
aVpentatonic scale
p7149
aa(lp7150
Vgarudadhvani
p7151
aS'is a'
p7152
aVscale
p7153
aa(lp7154
Vgarudadhvani
p7155
aS'is a'
p7156
aVshankarabharanam combination
p7157
aa(lp7158
Vgarudadhvani
p7159
aS'is a'
p7160
aVcombination
p7161
aa(lp7162
Vmohanam
p7163
aS'a type of'
p7164
aVscale
p7165
aa(lp7166
Vgarudadhvani
p7167
aVcombination of
p7168
aVsampurna scale
p7169
aa(lp7170
Vgarudadhvani
p7171
aVnot contain
p7172
aVnishadham
p7173
aa(lp7174
Vgarudadhvani
p7175
ag7172
aVmadhyamam
p7176
aa(lp7177
Vgarudadhvani
p7178
aS'is a'
p7179
aVasymmetric ragam
p7180
aa(lp7181
Vgarudadhvani
p7182
aS'is a'
p7183
aVragam
p7184
aa(lp7185
Vgarudadhvani
p7186
aS'is a'
p7187
aVsampurna-audava ragam
p7188
aa(lp7189
Vgarudadhvani
p7190
aS'is a'
p7191
aVragam
p7192
aa(lp7193
Vneelakanta sivan
p7194
aS'is a'
p7195
aVcomposer
p7196
aa(lp7197
Vneelakanta sivan
p7198
aVcomposer of
p7199
aVmusic
p7200
aa(lp7201
Vsubbarama dikshitar
p7202
aS'is a'
p7203
aVcarnatic composer
p7204
aa(lp7205
Vsubbarama dikshitar
p7206
aS'is a'
p7207
aVmusic composer
p7208
aa(lp7209
Vsubbarama dikshitar
p7210
aS'is a'
p7211
aVcomposer
p7212
aa(lp7213
Vsubbarama dikshitar
p7214
aS'is a'
p7215
aVgrandson
p7216
aa(lp7217
Vsubbarama dikshitar
p7218
aVgrandson of
p7219
aVbaluswami dikshitar
p7220
aa(lp7221
Vsubbarama dikshitar
p7222
aVcompose
p7223
aVmany kritis
p7224
aa(lp7225
Vsubbarama dikshitar
p7226
ag7223
aVvarnam
p7227
aa(lp7228
Vsubbarama dikshitar
p7229
aVdie at
p7230
aVyoung age
p7231
aa(lp7232
Vseetha doraiswamy
p7233
aS'is a'
p7234
aVmulti-instrumentalist
p7235
aa(lp7236
Vseetha doraiswamy
p7237
aVmulti-instrumentalist 's
p7238
aVrenowned carnatic
p7239
aa(lp7240
Vseetha doraiswamy
p7241
aVknow as
p7242
aVmadisaar_maami
p7243
aa(lp7244
Vchakkani rajamargamu
p7245
aS'is a'
p7246
aVkritus
p7247
aa(lp7248
Vchakkani rajamargamu
p7249
aVkritus 's
p7250
aVtelugu
p7251
aa(lp7252
Vchakkani rajamargamu
p7253
aVkritus in
p7254
aVmusic tradition
p7255
aa(lp7256
Vtyagaraja
p7257
aVcompose
p7258
aVmusic tradition
p7259
aa(lp7260
Vtiger varadachariar
p7261
aVserve as
p7262
aVprincipal
p7263
aa(lp7264
Vtiger varadachariar
p7265
aVserve at
p7266
aVkalakshetra
p7267
aa(lp7268
Vtiger varadachariar
p7269
aVsing with
p7270
aVadequate bhava
p7271
aa(lp7272
Vtiger varadachariar
p7273
aVsing with
p7274
aVadequate bhava
p7275
aa(lp7276
Vnadaswaram
p7277
aVcontain
p7278
aVthree
p7279
aa(lp7280
Vharikambhoji
p7281
aVragam in
p7282
aVmusic
p7283
aa(lp7284
Vharikambhoji
p7285
aS'is a'
p7286
aVragam
p7287
aa(lp7288
Vmelakarta
p7289
aS'a type of'
p7290
aVsystem
p7291
aa(lp7292
Vharikambhoji
p7293
aS'is a'
p7294
aVragam
p7295
aa(lp7296
Vharikambhoji
p7297
aVragam 's
p7298
aVth melakarta
p7299
aa(lp7300
Vharikambhoji
p7301
aVragam in
p7302
aVmelakarta system
p7303
aa(lp7304
Vmohanam
p7305
aS'a type of'
p7306
aVscale
p7307
aa(lp7308
Vjanya
p7309
aVjanya of
p7310
aVragam
p7311
aa(lp7312
Vmridangam
p7313
aS'a type of'
p7314
aVplaying
p7315
aa(lp7316
Vcharanam
p7317
aVin
p7318
aVmusic
p7319
aa(lp7320
Vcharanam
p7321
aS'is a'
p7322
aVsection
p7323
aa(lp7324
Vcharanam
p7325
aS'is a'
p7326
aVend section
p7327
aa(lp7328
Vcharanam
p7329
aVsing after
p7330
aVanupallavus
p7331
aa(lp7332
Vcharanam
p7333
aVsection of
p7334
aVcomposition
p7335
aa(lp7336
Varabhi
p7337
aVback to
p7338
aV7
p7339
aa(lp7340
Varabhi
p7341
aS'is a'
p7342
aVraga
p7343
aa(lp7344
Vmelakarta
p7345
aS'a type of'
p7346
aVname
p7347
aa(lp7348
Vmridangam
p7349
aS'a type of'
p7350
aVplayer
p7351
aa(lp7352
Vkalpanaswaram
p7353
aVkalpanaswaram of
p7354
aVraga
p7355
aa(lp7356
Vniraval
p7357
aS'a type of'
p7358
aVkalpanaswaram
p7359
aa(lp7360
Vsanjukta panigrahi
p7361
aVdancer of
p7362
aVindia
p7363
aa(lp7364
Vsanjukta panigrahi
p7365
aS'is a'
p7366
aVdancer
p7367
aa(lp7368
Vkeeravani
p7369
aVragam in
p7370
aVmusic
p7371
aa(lp7372
Vkeeravani
p7373
aS'is a'
p7374
aVragam
p7375
aa(lp7376
Vmelakarta
p7377
aS'a type of'
p7378
aVsystem
p7379
aa(lp7380
Vkeeravani
p7381
aVragam 's
p7382
aVst melakarta
p7383
aa(lp7384
Vkeeravani
p7385
aVragam in
p7386
aVmelakarta system
p7387
aa(lp7388
Vkeeravani
p7389
aS'is a'
p7390
aVragam
p7391
aa(lp7392
Vmelakarta
p7393
aS'a type of'
p7394
aVragam
p7395
aa(lp7396
Vmelakarta
p7397
aS'a type of'
p7398
aVragam
p7399
aa(lp7400
Vjanya
p7401
aS'a type of'
p7402
aVragam
p7403
aa(lp7404
Vkeeravani
p7405
aVhave
p7406
aVjanya ragam
p7407
aa(lp7408
Vjanya
p7409
aS'a type of'
p7410
aVragam
p7411
aa(lp7412
Vchenda
p7413
aVsuspend from
p7414
aVdrummer neck
p7415
aa(lp7416
Vchenda
p7417
aVhave
p7418
aVtwo
p7419
aa(lp7420
Vchenda
p7421
ag7418
aVleft side
p7422
aa(lp7423
Vchenda
p7424
aVuse for
p7425
aVdifferent purpose
p7426
aa(lp7427
Vuruttu chenda
p7428
aVplay
p7429
aVvariation
p7430
aa(lp7431
Vhamsanandi
p7432
aS'is a'
p7433
aVragam
p7434
aa(lp7435
Vhamsanandi
p7436
aVragam in
p7437
aVmusic
p7438
aa(lp7439
Vhamsanandi
p7440
aS'is a'
p7441
aVscale
p7442
aa(lp7443
Vhamsanandi
p7444
aS'is a'
p7445
aVhexatonic scale
p7446
aa(lp7447
Vhamsanandi
p7448
aS'is a'
p7449
aVjanya ragam
p7450
aa(lp7451
Vhamsanandi
p7452
aS'is a'
p7453
aVragam
p7454
aa(lp7455
Vgamanashrama
p7456
aS'is a'
p7457
aVragam
p7458
aa(lp7459
Vhamsanandi
p7460
aVragam of
p7461
aVgamanashrama
p7462
aa(lp7463
Vhamsanandi
p7464
aVragam 's
p7465
aVrd melakarta
p7466
aa(lp7467
Vjanya
p7468
aS'a type of'
p7469
aVragam
p7470
aa(lp7471
Vgamanashrama
p7472
aVragam of
p7473
aVgamanashrama
p7474
aa(lp7475
Vgamanashrama
p7476
aVragam 's
p7477
aVrd melakarta
p7478
aa(lp7479
Vhamsanandi
p7480
aVhave
p7481
aVinvariant panchamam
p7482
aa(lp7483
Vhamsanandi
p7484
aS'is a'
p7485
aVsymmetric scale
p7486
aa(lp7487
Vhamsanandi
p7488
aS'is a'
p7489
aVscale
p7490
aa(lp7491
Vhamsanandi
p7492
aVnot contain
p7493
aVpanchamam
p7494
aa(lp7495
Vhamsanandi
p7496
aVcall in
p7497
aVmusic classification
p7498
aa(lp7499
Vhamsanandi
p7500
aS'is a'
p7501
aVevening ragam
p7502
aa(lp7503
Vhamsanandi
p7504
aS'is a'
p7505
aVragam
p7506
aa(lp7507
Vhamsanandi
p7508
aVhave
p7509
aVample scope
p7510
aa(lp7511
Vhamsanandi
p7512
aVuse to
p7513
aVfilm music
p7514
aa(lp7515
Vcharukesi
p7516
aS'is a'
p7517
aVraga
p7518
aa(lp7519
Vcharukesi
p7520
aVraga in
p7521
aVmusic
p7522
aa(lp7523
Vmelakarta
p7524
aS'a type of'
p7525
aVsystem
p7526
aa(lp7527
Vcharukesi
p7528
aVincite
p7529
aVfeeling
p7530
aa(lp7531
Vjanya
p7532
aS'a type of'
p7533
aVragam
p7534
aa(lp7535
Vcharukesi
p7536
aVin
p7537
aVfilm song
p7538
aa(lp7539
Vcharukesi
p7540
ag7537
aVindian movie
p7541
aa(lp7542
Vsikkil gurucharan
p7543
aS'is a'
p7544
aV c
p7545
aa(lp7546
Vsikkil gurucharan
p7547
aS'is a'
p7548
aVartist
p7549
aa(lp7550
Vsikkil gurucharan
p7551
aVartist 's
p7552
aVgrade all_india_radio
p7553
aa(lp7554
Vsikkil gurucharan
p7555
aVstudent of
p7556
aVvidya_mandir_senior_secondary_school
p7557
aa(lp7558
Vsikkil gurucharan
p7559
aS'is a'
p7560
aVstudent
p7561
aa(lp7562
Vsikkil gurucharan
p7563
aS'is a'
p7564
aV c
p7565
aa(lp7566
Vsikkil gurucharan
p7567
aVcomplete
p7568
aVmaster degree
p7569
aa(lp7570
Vsikkil gurucharan
p7571
aVbe among
p7572
aVyoung musician
p7573
aa(lp7574
Vprapancham sitaram
p7575
aS'is a'
p7576
aVusual occurrence
p7577
aa(lp7578
Vprapancham sitaram
p7579
aVplay
p7580
aVone
p7581
aa(lp7582
Vtanam
p7583
aVplay on
p7584
aVveena
p7585
aa(lp7586
Vtyagaraja
p7587
aVtake
p7588
aVmusical challenge
p7589
aa(lp7590
Vtyagaraja
p7591
aVlose
p7592
aVcharacter
p7593
aa(lp7594
Vtyagaraja
p7595
aVavoid in
p7596
aVone
p7597
aa(lp7598
Vtyagaraja
p7599
aVpraise
p7600
aVone
p7601
aa(lp7602
Vtyagaraja
p7603
ag7600
aVrama
p7604
aa(lp7605
Vpancharatna kriti
p7606
aVcompose in
p7607
aVtelugu
p7608
aa(lp7609
Vpancharatna kriti
p7610
aVset to
p7611
aVraga
p7612
aa(lp7613
Vtyagaraja
p7614
aVsing
p7615
aVgreatness
p7616
aa(lp7617
Vendaro mahanubhavulu
p7618
aVbe
p7619
aVone
p7620
aa(lp7621
Vtyagaraja
p7622
aVdescribe
p7623
aVgreatness
p7624
aa(lp7625
Vmangalam muthuswamy
p7626
aVof
p7627
aVnotable vainika
p7628
aa(lp7629
Vmridangam
p7630
aS'a type of'
p7631
aVlesson
p7632
aa(lp7633
Vmridangam
p7634
aS'a type of'
p7635
aVlesson
p7636
aa(lp7637
Vmridangam
p7638
aS'a type of'
p7639
aVclass
p7640
aa(lp7641
g7638
aS'a type of'
p7642
aVartist
p7643
aa(lp7644
Vkatcheri
p7645
aS'a type of'
p7646
aVbroadcast
p7647
aa(lp7648
Vlatangi
p7649
aS'is a'
p7650
aVragam
p7651
aa(lp7652
Vlatangi
p7653
aVragam in
p7654
aVmusic
p7655
aa(lp7656
Vmelakarta
p7657
aS'a type of'
p7658
aVsystem
p7659
aa(lp7660
Vlatangi
p7661
aS'is a'
p7662
aVragam
p7663
aa(lp7664
Vlatangi
p7665
aVragam 's
p7666
aVrd melakarta
p7667
aa(lp7668
Vlatangi
p7669
aVragam in
p7670
aVmelakarta system
p7671
aa(lp7672
Vlatangi
p7673
aS'is a'
p7674
aVsampoorna ragam
p7675
aa(lp7676
Vlatangi
p7677
aS'is a'
p7678
aVragam
p7679
aa(lp7680
Vlatangi
p7681
aS'is a'
p7682
aVmelakarta ragam
p7683
aa(lp7684
Vlatangi
p7685
aS'is a'
p7686
aVragam
p7687
aa(lp7688
Vmelakarta
p7689
aS'a type of'
p7690
aVragam
p7691
aa(lp7692
Vlatangi
p7693
aVequivalent of
p7694
aVsarasangi
p7695
aa(lp7696
Vlatangi
p7697
aS'is a'
p7698
aVequivalent
p7699
aa(lp7700
Vlatangi
p7701
aS'is a'
p7702
aVpratus equivalent
p7703
aa(lp7704
Vlatangi
p7705
aS'is a'
p7706
aVmadhyamam equivalent
p7707
aa(lp7708
Vjanya
p7709
aS'a type of'
p7710
aVragam
p7711
aa(lp7712
Vlatangi
p7713
aVhave
p7714
aVminor ragam
p7715
aa(lp7716
Vsubbaraya sastri
p7717
aVstudy
p7718
aVmusic
p7719
aa(lp7720
Vtyagaraja
p7721
aVteach
p7722
aVson
p7723
aa(lp7724
Varunachala kavi
p7725
aS'is a'
p7726
aVpoet
p7727
aa(lp7728
Varunachala kavi
p7729
aS'is a'
p7730
aVcomposer
p7731
aa(lp7732
Varunachala kavi
p7733
aVpoet 's
p7734
aVhanumar_pillai_tamil
p7735
aa(lp7736
Varunachala kavi
p7737
aVcomposer of
p7738
aVmusic
p7739
aa(lp7740
Vmohanakalyani
p7741
aS'is a'
p7742
aVragam
p7743
aa(lp7744
Vmohanakalyani
p7745
aVragam in
p7746
aVmusic
p7747
aa(lp7748
Vmelakarta
p7749
aS'a type of'
p7750
aVscale
p7751
aa(lp7752
Vmohanakalyani
p7753
aS'is a'
p7754
aVjanya ragam
p7755
aa(lp7756
Vmohanakalyani
p7757
aS'is a'
p7758
aVragam
p7759
aa(lp7760
Vmohanakalyani
p7761
aVragam from
p7762
aVmelakarta scale
p7763
aa(lp7764
Vjanya
p7765
aS'a type of'
p7766
aVragam
p7767
aa(lp7768
Vjanya
p7769
aS'a type of'
p7770
aVscale
p7771
aa(lp7772
Vmohanakalyani
p7773
aS'is a'
p7774
aVscale
p7775
aa(lp7776
Vmohanakalyani
p7777
aS'is a'
p7778
aVjanya scale
p7779
aa(lp7780
Vmohanakalyani
p7781
aVnot have
p7782
aVswara
p7783
aa(lp7784
Vmohanam
p7785
aS'a type of'
p7786
aVcombination
p7787
aa(lp7788
Vmohanakalyani
p7789
aS'is a'
p7790
aVsampurna scale
p7791
aa(lp7792
Vmohanakalyani
p7793
aS'is a'
p7794
aVscale
p7795
aa(lp7796
Vmohanakalyani
p7797
aS'is a'
p7798
aVcombination
p7799
aa(lp7800
Vmohanakalyani
p7801
aS'is a'
p7802
aVkalyani scale
p7803
aa(lp7804
Vmohanakalyani
p7805
aS'is a'
p7806
aVmohanam combination
p7807
aa(lp7808
Vmohanakalyani
p7809
aS'is a'
p7810
aVraga scale
p7811
aa(lp7812
Vmohanakalyani
p7813
aVcombination of
p7814
aVpentatonic scale
p7815
aa(lp7816
Vmohanakalyani
p7817
aVnot contain
p7818
aVnishadham
p7819
aa(lp7820
Vmohanakalyani
p7821
ag7818
aVmadhyamam
p7822
aa(lp7823
Vmohanakalyani
p7824
aS'is a'
p7825
aVasymmetric ragam
p7826
aa(lp7827
Vmohanakalyani
p7828
aS'is a'
p7829
aVragam
p7830
aa(lp7831
Vmohanakalyani
p7832
aS'is a'
p7833
aVaudava-sampurna ragam
p7834
aa(lp7835
Vmohanakalyani
p7836
aS'is a'
p7837
aVragam
p7838
aa(lp7839
Vgopala dasa
p7840
aVbear to
p7841
aVmurariraya
p7842
aa(lp7843
Vgopala dasa
p7844
aVbear to
p7845
aVvenkamma
p7846
aa(lp7847
Vgopala dasa
p7848
aVbear as
p7849
aVbhaganna
p7850
aa(lp7851
Vgopala dasa
p7852
aVbear in
p7853
aVdistrict
p7854
aa(lp7855
Vgopala dasa
p7856
aVbear in
p7857
aVmosarakallu
p7858
aa(lp7859
Vgopala dasa
p7860
aVcompose
p7861
aVnumerous song
p7862
aa.