(lp0
(lp1
Vyagapriya
p2
aS'is a'
p3
aVragam
p4
aa(lp5
Vyagapriya
p6
aVragam in
p7
aVmusic
p8
aa(lp9
Vmelakarta
p10
aS'a type of'
p11
aVragam
p12
aa(lp13
g10
aS'a type of'
p14
aVsystem
p15
aa(lp16
Vyagapriya
p17
aS'is a'
p18
aVmelakarta
p19
aa(lp20
Vmelakarta
p21
aS'a type of'
p22
aVscale
p23
aa(lp24
Vjanya
p25
aS'a type of'
p26
aVragam
p27
aa(lp28
Vyagapriya
p29
aVhave
p30
aVminor ragam
p31
aa(lp32
Vmelakarta
p33
aS'a type of'
p34
aVragam
p35
aa(lp36
Vkriti
p37
aVformat of
p38
aVmusical composition
p39
aa(lp40
Vkriti
p41
aS'is a'
p42
aVformat
p43
aa(lp44
Vjanya
p45
aS'is a'
p46
aVterm
p47
aa(lp48
Vmelakarta
p49
aS'a type of'
p50
aVraga
p51
aa(lp52
Vjanya
p53
aS'a type of'
p54
aVraga
p55
aa(lp56
Vavarohana
p57
aS'a type of'
p58
aVscale
p59
aa(lp60
Vjanya
p61
aS'a type of'
p62
aVraga
p63
aa(lp64
Vjanya
p65
aS'a type of'
p66
aVraga
p67
aa(lp68
Vramnad krishnan
p69
aVvocalist in
p70
aVtradition
p71
aa(lp72
Vramnad krishnan
p73
aS'is a'
p74
aVvocalist
p75
aa(lp76
Vmelakarta
p77
aS'a type of'
p78
aVsystem
p79
aa(lp80
Vmelakarta
p81
aS'a type of'
p82
aVragam
p83
aa(lp84
Vjanya
p85
aS'a type of'
p86
aVragam
p87
aa(lp88
Vbhavapriya
p89
aVhave
p90
aVminor ragam
p91
aa(lp92
Vswathi sangeethotsavam
p93
aS'is a'
p94
aVfestival
p95
aa(lp96
Vswathi sangeethotsavam
p97
aS'is a'
p98
aVweek-long festival
p99
aa(lp100
Vswathi sangeethotsavam
p101
aVfestival of
p102
aVmusic
p103
aa(lp104
Vjanya
p105
aS'a type of'
p106
aVragam
p107
aa(lp108
Vmelakarta
p109
aS'a type of'
p110
aVscale
p111
aa(lp112
Vchalanata
p113
aS'a type of'
p114
aVragam
p115
aa(lp116
Vjanya
p117
aS'a type of'
p118
aVscale
p119
aa(lp120
Vgambhiranata
p121
aS'a type of'
p122
aVscale
p123
aa(lp124
Vchalanata
p125
aS'a type of'
p126
aVcombination
p127
aa(lp128
Vjanya
p129
aS'a type of'
p130
aVragam
p131
aa(lp132
Vhamsadhvani
p133
aVspell as
p134
aVhansadhwani
p135
aa(lp136
Vhamsadhvani
p137
aVraga in
p138
aVmusic
p139
aa(lp140
Vhamsadhvani
p141
aS'is a'
p142
aVraga
p143
aa(lp144
Vjanya
p145
aS'a type of'
p146
aVraga
p147
aa(lp148
Vhamsadhvani
p149
aVuse in
p150
aVmusic
p151
aa(lp152
Vhamsadhvani
p153
aVnot contain
p154
aVdhaivatam
p155
aa(lp156
Vhamsadhvani
p157
ag154
aVmadhyamam
p158
aa(lp159
Vhamsadhvani
p160
aS'is a'
p161
aVjanya
p162
aa(lp163
Vhamsadhvani
p164
aVjanya of
p165
aVmelakarta
p166
aa(lp167
Vkambhoji
p168
aVsort of
p169
aVparent scale
p170
aa(lp171
Vkambhoji
p172
aVsort like
p173
aVbilawal
p174
aa(lp175
Vkambhoji
p176
aVsort like
p177
aVkalyan
p178
aa(lp179
Vkambhoji
p180
aS'is a'
p181
aVsort
p182
aa(lp183
Vkambhoji
p184
aVplay at
p185
aVearly part
p186
aa(lp187
Vviruttam
p188
aVnot possess
p189
aVset talum
p190
aa(lp191
g188
aVuse
p192
aVmore ragam
p193
aa(lp194
Vmanodharma
p195
aVmanodharma in
p196
aVmusic
p197
aa(lp198
Vviruttam
p199
aVprecede
p200
aVrendition
p201
aa(lp202
Vraghupriya
p203
aVragam in
p204
aVmusic
p205
aa(lp206
Vraghupriya
p207
aS'is a'
p208
aVragam
p209
aa(lp210
Vmelakarta
p211
aS'a type of'
p212
aVragam
p213
aa(lp214
g211
aS'a type of'
p215
aVsystem
p216
aa(lp217
Vmelakarta
p218
aS'a type of'
p219
aVragam
p220
aa(lp221
Vmelakarta
p222
aS'a type of'
p223
aVscale
p224
aa(lp225
Vjanya
p226
aS'a type of'
p227
aVragam
p228
aa(lp229
Vraghupriya
p230
aVhave
p231
aVminor ragam
p232
aa(lp233
Vraghupriya
p234
aS'a type of'
p235
aVscale
p236
aa(lp237
Vrishabhapriya
p238
aVragam in
p239
aVmusic
p240
aa(lp241
Vrishabhapriya
p242
aS'is a'
p243
aVragam
p244
aa(lp245
Vmelakarta
p246
aS'a type of'
p247
aVragam
p248
aa(lp249
g246
aS'a type of'
p250
aVsystem
p251
aa(lp252
Vmelakarta
p253
aS'a type of'
p254
aVragam
p255
aa(lp256
Vjanya
p257
aS'a type of'
p258
aVragam
p259
aa(lp260
Vmelakarta
p261
aS'a type of'
p262
aVragam
p263
aa(lp264
Vmelakarta
p265
aS'a type of'
p266
aVragam
p267
aa(lp268
Vcharukesi
p269
aVset to
p270
aVrespective raga
p271
aa(lp272
Vcharukesi
p273
aVset in
p274
aVtune
p275
aa(lp276
Vkosalam
p277
aVragam in
p278
aVmusic
p279
aa(lp280
Vkosalam
p281
aS'is a'
p282
aVragam
p283
aa(lp284
Vmelakarta
p285
aS'a type of'
p286
aVragam
p287
aa(lp288
Vkosalam
p289
aS'is a'
p290
aVmelakarta ragam
p291
aa(lp292
Vkosalam
p293
aS'is a'
p294
aVragam
p295
aa(lp296
Vjanya
p297
aS'a type of'
p298
aVragam
p299
aa(lp300
Vkosalam
p301
aVhave
p302
aVjanya ragam
p303
aa(lp304
Vrajhesh vaidhya
p305
aVhail from
p306
aVtamil_nadu
p307
aa(lp308
Vrajhesh vaidhya
p309
aS'is a'
p310
aVplayer
p311
aa(lp312
Vrajhesh vaidhya
p313
aS'is a'
p314
aVveena player
p315
aa(lp316
Vrajhesh vaidhya
p317
aS'is a'
p318
aVindian player
p319
aa(lp320
Vghatam
p321
aVmanufacture in
p322
aVmanamadurai
p323
aa(lp324
Vghatam
p325
aVmove to
p326
aVother position
p327
aa(lp328
Vghatam
p329
aVghatam 's
p330
aVsouth various indian
p331
aa(lp332
Vmridangam
p333
aS'a type of'
p334
aVarangetram
p335
aa(lp336
Vsukumar prasad
p337
aVreceive
p338
aVdegree
p339
aa(lp340
Vmridangam
p341
aS'a type of'
p342
aVtraining
p343
aa(lp344
Vchande
p345
aVuse in
p346
aVclassical music
p347
aa(lp348
g345
aVuse in
p349
aVkarnataka
p350
aa(lp351
Vchande
p352
aVuse in
p353
aVkerala
p354
aa(lp355
Vchenda
p356
aVuse in
p357
aVkerala
p358
aa(lp359
g352
aVdifferent from
p360
ag356
aa(lp361
Vchande
p362
aS'is a'
p363
aVrecent addition
p364
aa(lp365
Vchande
p366
aS'is a'
p367
aVaddition
p368
aa(lp369
Vchande
p370
aVaddition to
p371
aVorchestra
p372
aa(lp373
Vchande
p374
aVtune to
p375
aVoctave
p376
aa(lp377
Vchande
p378
aVrest
p379
aVit
p380
aa(lp381
g378
aVuse
p382
aVtwo
p383
aa(lp384
Vchande
p385
aS'a type of'
p386
aVkolu
p387
aa(lp388
Vchande
p389
aVgrove
p390
aVform
p391
aa(lp392
Vsalaga bhairavi
p393
aS'is a'
p394
aVragam
p395
aa(lp396
Vsalaga bhairavi
p397
aVragam in
p398
aVmusic
p399
aa(lp400
Vjanya
p401
aS'a type of'
p402
aVragam
p403
aa(lp404
Vmelakarta
p405
aS'a type of'
p406
aVscale
p407
aa(lp408
Vkharaharapriya
p409
aS'a type of'
p410
aVragam
p411
aa(lp412
Vjanya
p413
aS'a type of'
p414
aVscale
p415
aa(lp416
Vsaveri
p417
aS'a type of'
p418
aVcombination
p419
aa(lp420
Vkharaharapriya
p421
aS'a type of'
p422
aVscale
p423
aa(lp424
Vsaveri
p425
aS'is a'
p426
aVshuddha combination
p427
aa(lp428
Vsalaga bhairavi
p429
aS'is a'
p430
aVasymmetric ragam
p431
aa(lp432
Vsalaga bhairavi
p433
aS'is a'
p434
aVragam
p435
aa(lp436
Vsalaga bhairavi
p437
aVnot contain
p438
aVgandharam
p439
aa(lp440
Vsalaga bhairavi
p441
ag438
aVnishadham
p442
aa(lp443
Vvijay siva
p444
aVgo to
p445
aVpadma_seshadri_bala_bhavan_senior_secondary_school
p446
aa(lp447
Vvijay siva
p448
aVgo to
p449
aVchennai
p450
aa(lp451
Virayimman thampi
p452
aVcompose
p453
aVcheyvan karuna enthu
p454
aa(lp455
Vchembai
p456
aVsing
p457
aVit
p458
aa(lp459
Vchembai
p460
aVpopularise
p461
aVcomposition
p462
aa(lp463
Vganamurti
p464
aVragam in
p465
aVmusic
p466
aa(lp467
Vganamurti
p468
aS'is a'
p469
aVragam
p470
aa(lp471
Vmelakarta
p472
aS'a type of'
p473
aVsystem
p474
aa(lp475
Vmelakarta
p476
aS'a type of'
p477
aVragam
p478
aa(lp479
Vvenkatamakhin
p480
aVcompile
p481
aVoriginal list
p482
aa(lp483
Vjanya
p484
aS'a type of'
p485
aVragam
p486
aa(lp487
Vganamurti
p488
aVhave
p489
aVminor ragam
p490
aa(lp491
Vkanjira
p492
aVadd during
p493
aS'#unknown'
p494
aa(lp495
g492
aVadd to
p496
aVclassical concert
p497
aa(lp498
Vkanjira
p499
aS'a type of'
p500
aVartist
p501
aa(lp502
Vgamanashrama
p503
aVragam in
p504
aVmusic
p505
aa(lp506
Vgamanashrama
p507
aS'is a'
p508
aVragam
p509
aa(lp510
Vmelakarta
p511
aS'a type of'
p512
aVsystem
p513
aa(lp514
Vmelakarta
p515
aS'a type of'
p516
aVragam
p517
aa(lp518
Vgamanashrama
p519
aVhave
p520
aVjanya ragam
p521
aa(lp522
Vhamsanandi
p523
aS'is a'
p524
aVkalyanus
p525
aa(lp526
Vjanya
p527
aS'a type of'
p528
aVragam
p529
aa(lp530
Vhamsanandi
p531
aVkalyanus 's
p532
aVpurvi
p533
aa(lp534
Vjanya
p535
aS'a type of'
p536
aVragam
p537
aa(lp538
Vsaveri
p539
aS'a type of'
p540
aVscale
p541
aa(lp542
Vnadaswaram
p543
aS'a type of'
p544
aVvidwan
p545
aa(lp546
Vchalanata
p547
aS'is a'
p548
aVragam
p549
aa(lp550
Vchalanata
p551
aVragam in
p552
aVmusic
p553
aa(lp554
Vmelakarta
p555
aS'a type of'
p556
aVsystem
p557
aa(lp558
Vmelakarta
p559
aS'a type of'
p560
aVragam
p561
aa(lp562
Vjanya
p563
aS'a type of'
p564
aVragam
p565
aa(lp566
Vchalanata
p567
aVhave
p568
aVtwo
p569
aa(lp570
Vjanya
p571
aS'a type of'
p572
aVragam
p573
aa(lp574
Vanandabhairavi
p575
aVhave
p576
aVswara pattern
p577
aa(lp578
Vanandabhairavi
p579
aVof
p580
aVfavourite ragam
p581
aa(lp582
Vchenda
p583
aVsuspend from
p584
aVdrummer neck
p585
aa(lp586
Vcarnatic music
p587
aVfolktune 's
p588
aVtraditional kannada
p589
aa(lp590
Vkalakshetra
p591
aVmove to
p592
aVnew campus
p593
aa(lp594
Vkalakshetra
p595
aVmove in
p596
aV1962
p597
aa(lp598
Vkalakshetra
p599
aVmove in
p600
aVbesant_nagar
p601
aa(lp602
Vkalakshetra
p603
aVoccupy of
p604
aVland
p605
aa(lp606
Vkalakshetra
p607
aVknow as
p608
aVkalakshetra_foundation
p609
aa(lp610
Vjanya
p611
aS'a type of'
p612
aVragam
p613
aa(lp614
Vvalaji
p615
aS'is a'
p616
aVragam
p617
aa(lp618
Vvalaji
p619
aS'is a'
p620
aVsymmetric ragam
p621
aa(lp622
Vvalaji
p623
aVnot contain
p624
aVmadhyamam
p625
aa(lp626
Vvalaji
p627
ag624
aVrishabham
p628
aa(lp629
Vmelakarta
p630
aS'a type of'
p631
aVscale
p632
aa(lp633
Vvalaji
p634
aVassociate with
p635
aVit
p636
aa(lp637
Vvalaji
p638
aS'is a'
p639
aVscale
p640
aa(lp641
Vvalaji
p642
aS'is a'
p643
aVplease scale
p644
aa(lp645
Vvalaji
p646
aVhave
p647
aVfew composition
p648
aa(lp649
Vmalahari
p650
aS'is a'
p651
aVraga
p652
aa(lp653
Vmalahari
p654
aS'is a'
p655
aVancient raga
p656
aa(lp657
Vmalahari
p658
aVgroup under
p659
aVmelum
p660
aa(lp661
Vmalahari
p662
aS'is a'
p663
aVother
p664
aa(lp665
Vmalahari
p666
aS'is a'
p667
aVseveral other
p668
aa(lp669
Vugabhoga
p670
aS'a type of'
p671
aVform
p672
aa(lp673
Vjhalavarali
p674
aS'is a'
p675
aVragam
p676
aa(lp677
Vjhalavarali
p678
aVragam in
p679
aVmusic
p680
aa(lp681
Vmelakarta
p682
aS'a type of'
p683
aVsystem
p684
aa(lp685
Vmelakarta
p686
aS'a type of'
p687
aVragam
p688
aa(lp689
Vjanya
p690
aS'a type of'
p691
aVragam
p692
aa(lp693
Vjhalavarali
p694
aVhave
p695
aVjanya ragam
p696
aa(lp697
Vniroshta
p698
aS'is a'
p699
aVragam
p700
aa(lp701
Vniroshta
p702
aVragam in
p703
aVmusic
p704
aa(lp705
Vniroshta
p706
aVmean without
p707
aVlip
p708
aa(lp709
Vniroshta
p710
aS'is a'
p711
aVsymmetric scale
p712
aa(lp713
Vniroshta
p714
aS'is a'
p715
aVpentatonic scale
p716
aa(lp717
Vniroshta
p718
aS'is a'
p719
aVscale
p720
aa(lp721
Vniroshta
p722
aVnot contain
p723
aVmadhyamam
p724
aa(lp725
Vniroshta
p726
ag723
aVpanchamam
p727
aa(lp728
Vvarnam
p729
aS'a type of'
p730
aVkanin_maniye
p731
aa(lp732
Vmalahari
p733
aS'is a'
p734
aVraga
p735
aa(lp736
Vmalahari
p737
aS'is a'
p738
aVcarnatic raga
p739
aa(lp740
Vkunnakudi subbalakshmi
p741
aVbear on
p742
aV21_april_1931
p743
aa(lp744
Vkunnakudi subbalakshmi
p745
aVbear under
p746
aVmadras presidency
p747
aa(lp748
Vkunnakudi subbalakshmi
p749
aVbear in
p750
aVtown
p751
aa(lp752
Vtyagaraja aradhana
p753
aVconduct at
p754
aVthanjavur
p755
aa(lp756
Vtyagaraja aradhana
p757
aVconduct for
p758
aV25
p759
aa(lp760
Vtyagaraja
p761
aVwrite
p762
aVkeerthana
p763
aa(lp764
Vkamaladevi chattopadhyay
p765
aS'is a'
p766
aVindian fighter
p767
aa(lp768
Vkamaladevi chattopadhyay
p769
aS'is a'
p770
aVfighter
p771
aa(lp772
Vkamaladevi chattopadhyay
p773
aS'is a'
p774
aVreformer
p775
aa(lp776
Vkamaladevi chattopadhyay
p777
aS'is a'
p778
aVindian reformer
p779
aa(lp780
Vkamaladevi chattopadhyay
p781
aS'is a'
p782
aVsocial reformer
p783
aa(lp784
Vkamaladevi chattopadhyay
p785
aS'is a'
p786
aVsocial fighter
p787
aa(lp788
Vkamaladevi chattopadhyay
p789
aS'is a'
p790
aVfreedom fighter
p791
aa(lp792
Vrasika
p793
aVterm for
p794
aVaesthete
p795
aa(lp796
Vyazh
p797
aVancestor of
p798
aVlute
p799
aa(lp800
Vyazh
p801
aVancestor of
p802
aVday modern veena
p803
aa(lp804
Vyazh
p805
aS'is a'
p806
aVdirect ancestor
p807
aa(lp808
Vyazh
p809
aS'is a'
p810
aVancestor
p811
aa(lp812
Vpattabhiramayya
p813
aS'is a'
p814
aVnineteenth-century composer
p815
aa(lp816
Vpattabhiramayya
p817
aS'is a'
p818
aVcomposer
p819
aa(lp820
Vpattabhiramayya
p821
aVcomposer of
p822
aVmusic
p823
aa(lp824
Vtiger varadachariar
p825
aS'is a'
p826
aVhis disciple
p827
aa(lp828
Vtiger varadachariar
p829
aS'is a'
p830
aVclosest disciple
p831
aa(lp832
Vtiger varadachariar
p833
aS'is a'
p834
aVdisciple
p835
aa(lp836
Vbilahari
p837
aVragam in
p838
aVmusic
p839
aa(lp840
Vbilahari
p841
aS'is a'
p842
aVragam
p843
aa(lp844
Vjanya
p845
aS'a type of'
p846
aVragam
p847
aa(lp848
Vmelakarta
p849
aS'a type of'
p850
aVscale
p851
aa(lp852
Vjanya
p853
aS'a type of'
p854
aVscale
p855
aa(lp856
Vmohanam
p857
aS'a type of'
p858
aVcombination
p859
aa(lp860
Vbilahari
p861
aVnot contain
p862
aVnishadham
p863
aa(lp864
Vbilahari
p865
ag862
aVmadhyamam
p866
aa(lp867
Vbilahari
p868
aS'is a'
p869
aVasymmetric ragam
p870
aa(lp871
Vbilahari
p872
aS'is a'
p873
aVragam
p874
aa(lp875
Vcarnatic music
p876
aVmusic of
p877
aVsouth_india
p878
aa(lp879
Vcarnatic music
p880
aVsing
p881
aVduo
p882
aa(lp883
Vdwaram lakshmi
p884
aVsinger of
p885
aVhindustani music
p886
aa(lp887
Vdwaram lakshmi
p888
aS'is a'
p889
aVsinger
p890
aa(lp891
Vdwaram lakshmi
p892
aS'is a'
p893
aVindian singer
p894
aa(lp895
Vnavaneetam
p896
aS'is a'
p897
aVragam
p898
aa(lp899
Vnavaneetam
p900
aVragam in
p901
aVmusic
p902
aa(lp903
Vmelakarta
p904
aS'a type of'
p905
aVsystem
p906
aa(lp907
Vmelakarta
p908
aS'a type of'
p909
aVragam
p910
aa(lp911
Vmelakarta
p912
aS'a type of'
p913
aVragam
p914
aa(lp915
Vjanya
p916
aS'a type of'
p917
aVragam
p918
aa(lp919
Vshulini
p920
aS'is a'
p921
aVragam
p922
aa(lp923
Vshulini
p924
aVragam in
p925
aVmusic
p926
aa(lp927
Vmelakarta
p928
aS'a type of'
p929
aVragam
p930
aa(lp931
g928
aS'a type of'
p932
aVsystem
p933
aa(lp934
Vmelakarta
p935
aS'a type of'
p936
aVragam
p937
aa(lp938
Vmelakarta
p939
aS'a type of'
p940
aVscale
p941
aa(lp942
Vjanya
p943
aS'a type of'
p944
aVragam
p945
aa(lp946
Vshulini
p947
aVhave
p948
aVcouple
p949
aa(lp950
Vvakulabharanam
p951
aS'is a'
p952
aVragam
p953
aa(lp954
Vvakulabharanam
p955
aVragam in
p956
aVmusic
p957
aa(lp958
Vmelakarta
p959
aS'a type of'
p960
aVragam
p961
aa(lp962
g959
aS'a type of'
p963
aVsystem
p964
aa(lp965
Vmelakarta
p966
aS'a type of'
p967
aVragam
p968
aa(lp969
Vmelakarta
p970
aS'a type of'
p971
aVscale
p972
aa(lp973
Vvenkatamakhin
p974
aVcompile
p975
aVoriginal list
p976
aa(lp977
Vjanya
p978
aS'a type of'
p979
aVragam
p980
aa(lp981
Vvakulabharanam
p982
aVhave
p983
aVminor ragam
p984
aa(lp985
Vmuthuswami dikshitar
p986
aVs
p987
aVcomposition prasanna_venkateshwaram
p988
aa(lp989
Vvenkatamakhin
p990
aVmake
p991
aVfoundational contribution
p992
aa(lp993
Vsvaramelakalanidhi
p994
aVintroduce
p995
aVconcept
p996
aa(lp997
Vsvaramelakalanidhi
p998
aVrationalize
p999
aVinterval
p1000
aa(lp1001
Vsvaramelakalanidhi
p1002
ag999
aVscale
p1003
aa(lp1004
Vsvaramelakalanidhi
p1005
aVbring
p1006
aVtheory
p1007
aa(lp1008
Vvagadheeswari
p1009
aVragam in
p1010
aVmusic
p1011
aa(lp1012
Vvagadheeswari
p1013
aS'is a'
p1014
aVragam
p1015
aa(lp1016
Vmelakarta
p1017
aS'a type of'
p1018
aVragam
p1019
aa(lp1020
g1017
aS'a type of'
p1021
aVsystem
p1022
aa(lp1023
Vmelakarta
p1024
aS'a type of'
p1025
aVragam
p1026
aa(lp1027
Vmelakarta
p1028
aS'a type of'
p1029
aVscale
p1030
aa(lp1031
Vjanya
p1032
aS'a type of'
p1033
aVragam
p1034
aa(lp1035
Vnedumangad sivanandan
p1036
aVbear to
p1037
aVdakshayani_amma
p1038
aa(lp1039
Vnedumangad sivanandan
p1040
aVbear to
p1041
aVharmonist-vocalist neyyanttingara_vasudevan_pillai
p1042
aa(lp1043
Vnedumangad sivanandan
p1044
aVbear in
p1045
aVneyyatinkara
p1046
aa(lp1047
Vnedumangad sivanandan
p1048
aVbear in
p1049
aVdistrict
p1050
aa(lp1051
Vnedumangad sivanandan
p1052
aVmarry to
p1053
aVvilasini_s._nair
p1054
aa(lp1055
Vswarajati
p1056
aVform in
p1057
aVmusic
p1058
aa(lp1059
Vswarajati
p1060
aS'is a'
p1061
aVform
p1062
aa(lp1063
Vswarajati
p1064
aVcompose in
p1065
aVnumerous raaga
p1066
aa(lp1067
Vmanodharma
p1068
aS'a type of'
p1069
aVsangeetham
p1070
aa(lp1071
Vvarnam
p1072
aVpiece of
p1073
aVshort duration
p1074
aa(lp1075
Vvarnam
p1076
aS'is a'
p1077
aVpiece
p1078
aa(lp1079
Vvarnam
p1080
aVset to
p1081
aVaadi
p1082
aa(lp1083
Vcharanam
p1084
aVcompose on
p1085
aVraga theme
p1086
aa(lp1087
Vanupallavi
p1088
aS'is a'
p1089
aVmore charanam
p1090
aa(lp1091
Vanupallavi
p1092
aS'is a'
p1093
aVcharanam
p1094
aa(lp1095
Vniraval
p1096
aVperform in
p1097
aVextempore manner
p1098
aa(lp1099
Vmadhyamavati
p1100
aS'a type of'
p1101
aVraga
p1102
aa(lp1103
Vpunya srinivas
p1104
aS'is a'
p1105
aVvainika
p1106
aa(lp1107
Vpunya srinivas
p1108
aS'is a'
p1109
aVprofessional vocalist
p1110
aa(lp1111
Vpunya srinivas
p1112
aS'is a'
p1113
aVvocalist
p1114
aa(lp1115
Vpunya srinivas
p1116
aS'is a'
p1117
aVprofessional vainika
p1118
aa(lp1119
Vmridangam
p1120
aS'a type of'
p1121
aVplayer
p1122
aa(lp1123
Vpallavi
p1124
aVpresent as
p1125
aVpiece-de-resistance
p1126
aa(lp1127
Vsaketharaman
p1128
aS'is a'
p1129
aVmusician
p1130
aa(lp1131
Vsaketharaman
p1132
aS'is a'
p1133
aVperform musician
p1134
aa(lp1135
Vsaketharaman
p1136
aVmusician of
p1137
aVmusic
p1138
aa(lp1139
Vsaketharaman
p1140
aVimbibe
p1141
aVlalgudi famous bani
p1142
aa(lp1143
Virayimman thampi
p1144
aVwrite
p1145
aVomanathinkal lullaby famous kidavo
p1146
aa(lp1147
Virayimman thampi
p1148
aVdie in
p1149
aV1856
p1150
aa(lp1151
Vjyoti swarupini
p1152
aS'is a'
p1153
aVragam
p1154
aa(lp1155
Vjyoti swarupini
p1156
aVragam in
p1157
aVmusic
p1158
aa(lp1159
Vmelakarta
p1160
aS'a type of'
p1161
aVsystem
p1162
aa(lp1163
Vmelakarta
p1164
aS'a type of'
p1165
aVragam
p1166
aa(lp1167
Vjanya
p1168
aS'a type of'
p1169
aVragam
p1170
aa(lp1171
Vmelakarta
p1172
aS'a type of'
p1173
aVragam
p1174
aa(lp1175
Vcarnatic music
p1176
aVmusic 's
p1177
aVhindustani
p1178
aa(lp1179
g1176
aVmusic 's
p1180
aVhindustani
p1181
aa(lp1182
Vjanya
p1183
aS'a type of'
p1184
aVragam
p1185
aa(lp1186
Vvarnam
p1187
aVform of
p1188
aVsong
p1189
aa(lp1190
Vvarnam
p1191
aS'is a'
p1192
aVform
p1193
aa(lp1194
Vvarnam
p1195
aS'is a'
p1196
aVpiece
p1197
aa(lp1198
Vvarnam
p1199
aS'is a'
p1200
aVlong piece
p1201
aa(lp1202
Vvarnam
p1203
aVrange from
p1204
aV30
p1205
aa(lp1206
Vvarnam
p1207
aVvarnam 's
p1208
aVtaana
p1209
aa(lp1210
Vvarnam
p1211
aVvarnam 's
p1212
aVtaana
p1213
aa(lp1214
Vcharanam
p1215
aS'a type of'
p1216
aVsection
p1217
aa(lp1218
Vpallavi
p1219
aVrepeat in
p1220
aVdouble speed
p1221
aa(lp1222
Vmuthu thandavar
p1223
aS'is a'
p1224
aVcomposer
p1225
aa(lp1226
Vmuthu thandavar
p1227
aVcomposer of
p1228
aVmusic
p1229
aa(lp1230
Vmuthu thandavar
p1231
aVknow as
p1232
aVtamil_trinity_of_carnatic music
p1233
aa(lp1234
Vmuthu thandavar
p1235
aVknow with
p1236
aVmarimutthu_pillai
p1237
aa(lp1238
Vmuthu thandavar
p1239
aVknow with
p1240
aVarunachala_kavi
p1241
aa(lp1242
Vmuthu thandavar
p1243
aVcompose
p1244
aVseveral padam
p1245
aa(lp1246
Vmuthu thandavar
p1247
ag1244
aVshort song
p1248
aa(lp1249
Virayimman thampi
p1250
aVpre-decease
p1251
aVhe
p1252
aa(lp1253
Vjanya
p1254
aS'a type of'
p1255
aVragam
p1256
aa(lp1257
Vmelakarta
p1258
aS'a type of'
p1259
aVscale
p1260
aa(lp1261
Vmayamalavagowla
p1262
aS'a type of'
p1263
aVragam
p1264
aa(lp1265
Vmridangam
p1266
aVmridangam on
p1267
aVoccasion
p1268
aa(lp1269
g1266
aVmridangam 's
p1270
aVveteran
p1271
aa(lp1272
Vsunadavinodini
p1273
aVragam in
p1274
aVmusic
p1275
aa(lp1276
Vsunadavinodini
p1277
aS'is a'
p1278
aVragam
p1279
aa(lp1280
Vjanya
p1281
aS'a type of'
p1282
aVragam
p1283
aa(lp1284
Vsunadavinodini
p1285
aVnot contain
p1286
aVpanchamam
p1287
aa(lp1288
Vsunadavinodini
p1289
ag1286
aVrishabham
p1290
aa(lp1291
Vsunadavinodini
p1292
aS'is a'
p1293
aVragam
p1294
aa(lp1295
Vsunadavinodini
p1296
aS'is a'
p1297
aVsymmetric ragam
p1298
aa(lp1299
Vmanodharma
p1300
aVhave
p1301
aVmusical value
p1302
aa(lp1303
Vmanodharma
p1304
aVplay
p1305
aVsuch role
p1306
aa(lp1307
Vkamavardani
p1308
aVragam in
p1309
aVmusic
p1310
aa(lp1311
Vkamavardani
p1312
aS'is a'
p1313
aVragam
p1314
aa(lp1315
Vmelakarta
p1316
aS'a type of'
p1317
aVsystem
p1318
aa(lp1319
Vkamavardani
p1320
aVequivalent of
p1321
aVmayamalavagowla
p1322
aa(lp1323
Vkamavardani
p1324
aS'is a'
p1325
aVequivalent
p1326
aa(lp1327
Vkamavardani
p1328
aS'is a'
p1329
aVpratus equivalent
p1330
aa(lp1331
Vkamavardani
p1332
aS'is a'
p1333
aVmadhyamam equivalent
p1334
aa(lp1335
Vjanya
p1336
aS'a type of'
p1337
aVragam
p1338
aa(lp1339
Vmanikkavacakar
p1340
aVpoet 's
p1341
aVtamil
p1342
aa(lp1343
Vmanikkavacakar
p1344
aS'is a'
p1345
aVpoet
p1346
aa(lp1347
Vmanikkavacakar
p1348
aVwrite
p1349
aVtiruvasakam
p1350
aa(lp1351
Vgayakapriya
p1352
aVragam in
p1353
aVmusic
p1354
aa(lp1355
Vgayakapriya
p1356
aS'is a'
p1357
aVragam
p1358
aa(lp1359
Vmelakarta
p1360
aS'a type of'
p1361
aVsystem
p1362
aa(lp1363
Vmelakarta
p1364
aS'a type of'
p1365
aVragam
p1366
aa(lp1367
Vvenkatamakhin
p1368
aVcompile
p1369
aVoriginal list
p1370
aa(lp1371
Vjanya
p1372
aS'a type of'
p1373
aVragam
p1374
aa(lp1375
Vgayakapriya
p1376
aVhave
p1377
aVminor ragam
p1378
aa(lp1379
Vmuthuswami dikshitar
p1380
ag987
aVbhakthum
p1381
aa(lp1382
Vtyagaraja
p1383
aVinfluence
p1384
aVhe
p1385
aa(lp1386
Varuna sairam
p1387
aVvocalist 's
p1388
aVeminent carnatic
p1389
aa(lp1390
Varuna sairam
p1391
aS'is a'
p1392
aVmusic vocalist
p1393
aa(lp1394
Varuna sairam
p1395
aS'is a'
p1396
aVvocalist
p1397
aa(lp1398
Vveena kuppayyar
p1399
aS'is a'
p1400
aVexponent
p1401
aa(lp1402
Vveena kuppayyar
p1403
aVexponent of
p1404
aVveena
p1405
aa(lp1406
Vragavardhini
p1407
aVhave
p1408
aVtwo
p1409
aa(lp1410
Vmelakarta
p1411
aS'a type of'
p1412
aVragam
p1413
aa(lp1414
g1411
aS'a type of'
p1415
aVsystem
p1416
aa(lp1417
Vmelakarta
p1418
aS'a type of'
p1419
aVscale
p1420
aa(lp1421
Vjanya
p1422
aS'a type of'
p1423
aVraga
p1424
aa(lp1425
Vthavil
p1426
aS'a type of'
p1427
aVartist
p1428
aa(lp1429
Vhatakambari
p1430
aVragam in
p1431
aVmusic
p1432
aa(lp1433
Vhatakambari
p1434
aS'is a'
p1435
aVragam
p1436
aa(lp1437
Vmelakarta
p1438
aS'a type of'
p1439
aVsystem
p1440
aa(lp1441
Vmelakarta
p1442
aS'a type of'
p1443
aVragam
p1444
aa(lp1445
Vvenkatamakhin
p1446
aVcompile
p1447
aVoriginal list
p1448
aa(lp1449
Vjanya
p1450
aS'a type of'
p1451
aVragam
p1452
aa(lp1453
Vhatakambari
p1454
aVhave
p1455
aVminor ragam
p1456
aa(lp1457
Vnadaswaram
p1458
aS'a type of'
p1459
aVartist
p1460
aa(lp1461
Vkanakangi
p1462
aVragam in
p1463
aVmusic
p1464
aa(lp1465
Vkanakangi
p1466
aS'is a'
p1467
aVragam
p1468
aa(lp1469
Vmelakarta
p1470
aS'a type of'
p1471
aVsystem
p1472
aa(lp1473
Vvenkatamakhin
p1474
aVcompile
p1475
aVoriginal list
p1476
aa(lp1477
Vmelakarta
p1478
aS'a type of'
p1479
aVraga
p1480
aa(lp1481
Vniraval
p1482
aS'a type of'
p1483
aVsinging
p1484
aa(lp1485
Vgayathri girish
p1486
aVbe amongst
p1487
aVvocalist
p1488
aa(lp1489
Vhanumatodi
p1490
aVragam in
p1491
aVmusic
p1492
aa(lp1493
Vhanumatodi
p1494
aVknow as
p1495
aVtodi
p1496
aa(lp1497
Vhanumatodi
p1498
aS'is a'
p1499
aVragam
p1500
aa(lp1501
Vmelakarta
p1502
aS'a type of'
p1503
aVsystem
p1504
aa(lp1505
g1502
aS'a type of'
p1506
aVragam
p1507
aa(lp1508
Vshubhapantuvarali
p1509
aS'is a'
p1510
aVequivalent
p1511
aa(lp1512
Vshubhapantuvarali
p1513
aVequivalent of
p1514
aVraga todi
p1515
aa(lp1516
Vmelakarta
p1517
aS'a type of'
p1518
aVscale
p1519
aa(lp1520
Vmysore vasudevachar
p1521
aVteach in
p1522
aVrukmini_devi
p1523
aa(lp1524
Vdharmavati
p1525
aS'is a'
p1526
aVragam
p1527
aa(lp1528
Vdharmavati
p1529
aVragam in
p1530
aVmusic
p1531
aa(lp1532
Vmelakarta
p1533
aS'a type of'
p1534
aVsystem
p1535
aa(lp1536
Vmadhuvanti
p1537
aS'is a'
p1538
aVnearest scale
p1539
aa(lp1540
Vmadhuvanti
p1541
aS'is a'
p1542
aVscale
p1543
aa(lp1544
Vmadhuvanti
p1545
aS'is a'
p1546
aVmusic scale
p1547
aa(lp1548
Vmadhuvanti
p1549
aS'is a'
p1550
aVhindustani scale
p1551
aa(lp1552
Vmadhuvanti
p1553
aVscale to
p1554
aVdharmavati
p1555
aa(lp1556
Vmelakarta
p1557
aS'a type of'
p1558
aVragam
p1559
aa(lp1560
Vkshetrayya
p1561
aVcomposer of
p1562
aVmusic
p1563
aa(lp1564
Vkshetrayya
p1565
aVcomposer 's
p1566
aVprolific telugu
p1567
aa(lp1568
Vkshetrayya
p1569
aS'is a'
p1570
aVpoet
p1571
aa(lp1572
Vkshetrayya
p1573
aS'is a'
p1574
aVcomposer
p1575
aa(lp1576
Vjanya
p1577
aS'a type of'
p1578
aVragam
p1579
aa(lp1580
Vkharaharapriya
p1581
aVragam of
p1582
aVkharaharapriya
p1583
aa(lp1584
Vkharaharapriya
p1585
aVragam 's
p1586
aVnd melakarta
p1587
aa(lp1588
Vjanya
p1589
aS'a type of'
p1590
aVragam
p1591
aa(lp1592
Vkharaharapriya
p1593
aS'is a'
p1594
aVragam
p1595
aa(lp1596
Vjanya
p1597
aS'a type of'
p1598
aVraga
p1599
aa(lp1600
Vdhavalambari
p1601
aS'is a'
p1602
aVragam
p1603
aa(lp1604
Vdhavalambari
p1605
aVragam in
p1606
aVmusic
p1607
aa(lp1608
Vmelakarta
p1609
aS'a type of'
p1610
aVsystem
p1611
aa(lp1612
Vmelakarta
p1613
aS'a type of'
p1614
aVragam
p1615
aa(lp1616
Vjanya
p1617
aS'a type of'
p1618
aVragam
p1619
aa(lp1620
Vdhavalambari
p1621
aVhave
p1622
aVminor ragam
p1623
aa(lp1624
Vcarnatic music
p1625
aVsing
p1626
aVduo
p1627
aa(lp1628
Vpakad
p1629
aVpakad for
p1630
aVyaman
p1631
aa(lp1632
g1629
aVbe for
p1633
aVexample
p1634
aa(lp1635
Vpalghat parameswara bhagavathar
p1636
aS'is a'
p1637
aVmusic composer
p1638
aa(lp1639
Vpalghat parameswara bhagavathar
p1640
aS'is a'
p1641
aVmusician
p1642
aa(lp1643
Vpalghat parameswara bhagavathar
p1644
aS'is a'
p1645
aVcarnatic musician
p1646
aa(lp1647
Vpalghat parameswara bhagavathar
p1648
aS'is a'
p1649
aVcarnatic composer
p1650
aa(lp1651
Vpalghat parameswara bhagavathar
p1652
aS'is a'
p1653
aVcomposer
p1654
aa(lp1655
Vpalghat parameswara bhagavathar
p1656
aS'is a'
p1657
aVmusic musician
p1658
aa(lp1659
Vmelakarta
p1660
aS'a type of'
p1661
aVsystem
p1662
aa(lp1663
Vmelakarta
p1664
aS'a type of'
p1665
aVragam
p1666
aa(lp1667
Vjanya
p1668
aS'a type of'
p1669
aVragam
p1670
aa(lp1671
Vtanam
p1672
aS'a type of'
p1673
aVpallavi
p1674
aa(lp1675
Vtanam
p1676
aS'a type of'
p1677
aVpallavus
p1678
aa(lp1679
Vtanam
p1680
aVof
p1681
aVimportant form
p1682
aa(lp1683
Vtanam
p1684
aVintegral to
p1685
aVragam
p1686
aa(lp1687
Vtanam
p1688
aS'is a'
p1689
aVversion
p1690
aa(lp1691
Vtanam
p1692
aS'is a'
p1693
aVrhythmic version
p1694
aa(lp1695
Vtanam
p1696
aVversion of
p1697
aVraga alapana
p1698
aa(lp1699
Vpallavi
p1700
aS'is a'
p1701
aVequivalent
p1702
aa(lp1703
Vpallavi
p1704
aVequivalent of
p1705
aVrefrain
p1706
aa(lp1707
Vpallavi
p1708
aS'is a'
p1709
aVcomposition
p1710
aa(lp1711
Vpallavi
p1712
aS'is a'
p1713
aVone-line composition
p1714
aa(lp1715
Vpallavi
p1716
aVset to
p1717
aVsingle cycle
p1718
aa(lp1719
Vpallavi
p1720
aVhave
p1721
aV2
p1722
aa(lp1723
Vpallavi
p1724
aVset to
p1725
aVmost case
p1726
aa(lp1727
Vpallavi
p1728
aVsing in
p1729
aVone
p1730
aa(lp1731
Vpallavi
p1732
aVsing in
p1733
ag1722
aa(lp1734
Vpallavi
p1735
aVchallenge
p1736
aVmusician ability
p1737
aa(lp1738
Vmelakarta
p1739
aS'a type of'
p1740
aVragam
p1741
aa(lp1742
g1739
aS'a type of'
p1743
aVsystem
p1744
aa(lp1745
Vmelakarta
p1746
aS'a type of'
p1747
aVscale
p1748
aa(lp1749
Vjanya
p1750
aS'a type of'
p1751
aVragam
p1752
aa(lp1753
Vmannargudi easwaran
p1754
aS'is a'
p1755
aVlead player
p1756
aa(lp1757
Vmannargudi easwaran
p1758
aS'is a'
p1759
aVmusician
p1760
aa(lp1761
Vmannargudi easwaran
p1762
aS'is a'
p1763
aVmridangam player
p1764
aa(lp1765
Vmannargudi easwaran
p1766
aS'is a'
p1767
aVplayer
p1768
aa(lp1769
Vmannargudi easwaran
p1770
aS'is a'
p1771
aVcontemporary musician
p1772
aa(lp1773
Vmannargudi easwaran
p1774
aS'is a'
p1775
aVlead musician
p1776
aa(lp1777
Vmannargudi easwaran
p1778
aS'is a'
p1779
aVmridangam musician
p1780
aa(lp1781
Vmannargudi easwaran
p1782
aS'is a'
p1783
aVcarnatic musician
p1784
aa(lp1785
Vmannargudi easwaran
p1786
aS'is a'
p1787
aVcontemporary player
p1788
aa(lp1789
Vmridangam
p1790
aS'a type of'
p1791
aVplayer
p1792
aa(lp1793
g1790
aS'a type of'
p1794
aVmusician
p1795
aa(lp1796
Vrangapura vihara
p1797
aVsong 's
p1798
aVfamous carnatic
p1799
aa(lp1800
Vrangapura vihara
p1801
aS'is a'
p1802
aVsong
p1803
aa(lp1804
Vmelakarta
p1805
aS'a type of'
p1806
aVragam
p1807
aa(lp1808
g1805
aS'a type of'
p1809
aVsystem
p1810
aa(lp1811
Vmelakarta
p1812
aS'a type of'
p1813
aVscale
p1814
aa(lp1815
Vjanya
p1816
aS'a type of'
p1817
aVragam
p1818
aa(lp1819
Vvarunapriya
p1820
aS'is a'
p1821
aVragam
p1822
aa(lp1823
Vvarunapriya
p1824
aVragam in
p1825
aVmusic
p1826
aa(lp1827
Vmelakarta
p1828
aS'a type of'
p1829
aVragam
p1830
aa(lp1831
g1828
aS'a type of'
p1832
aVsystem
p1833
aa(lp1834
Vmelakarta
p1835
aS'a type of'
p1836
aVscale
p1837
aa(lp1838
Vvarunapriya
p1839
aVnot janya
p1840
aVragam
p1841
aa(lp1842
Vshree ranjani
p1843
aS'is a'
p1844
aVragam
p1845
aa(lp1846
Vshree ranjani
p1847
aVragam in
p1848
aVmusic
p1849
aa(lp1850
Vshree ranjani
p1851
aVnot contain
p1852
aVpanchamam
p1853
aa(lp1854
Vshree ranjani
p1855
aS'is a'
p1856
aVsymmetric scale
p1857
aa(lp1858
Vshree ranjani
p1859
aS'is a'
p1860
aVscale
p1861
aa(lp1862
Vjanya
p1863
aS'a type of'
p1864
aVragam
p1865
aa(lp1866
Vshree ranjani
p1867
aVragam of
p1868
aVkharaharapriya
p1869
aa(lp1870
Vshree ranjani
p1871
aVragam 's
p1872
aVnd melakarta
p1873
aa(lp1874
Vkharaharapriya
p1875
aVragam of
p1876
aVkharaharapriya
p1877
aa(lp1878
Vkharaharapriya
p1879
aVragam 's
p1880
aVnd melakarta
p1881
aa(lp1882
Vkharaharapriya
p1883
aS'is a'
p1884
aVragam
p1885
aa(lp1886
Vshree ranjani
p1887
aS'is a'
p1888
aVjanya ragam
p1889
aa(lp1890
Vshree ranjani
p1891
aS'is a'
p1892
aVragam
p1893
aa(lp1894
Vshree ranjani
p1895
aS'is a'
p1896
aVpopular ragam
p1897
aa(lp1898
Vshree ranjani
p1899
aS'is a'
p1900
aVpleasing ragam
p1901
aa(lp1902
Vshree ranjani
p1903
aS'is a'
p1904
aVragam
p1905
aa(lp1906
Vmridangam
p1907
aS'a type of'
p1908
aVartist
p1909
aa(lp1910
Vtanam
p1911
aVperform as
p1912
aVpart
p1913
aa(lp1914
g1911
aVperform in
p1915
aVsolo concert
p1916
aa(lp1917
Vmelakarta
p1918
aS'a type of'
p1919
aVsystem
p1920
aa(lp1921
Vmelakarta
p1922
aS'a type of'
p1923
aVragam
p1924
aa(lp1925
Vvenkatamakhin
p1926
aVcompile
p1927
aVoriginal list
p1928
aa(lp1929
Vjanya
p1930
aS'a type of'
p1931
aVragam
p1932
aa(lp1933
Vjhankaradhvani
p1934
aVhave
p1935
aVminor ragam
p1936
aa(lp1937
Vdharmapuri subbarayar
p1938
aS'is a'
p1939
aVcomposer
p1940
aa(lp1941
Vdharmapuri subbarayar
p1942
aVcomposer of
p1943
aVmusic
p1944
aa(lp1945
Vmuthuswami dikshitar
p1946
aVdie on
p1947
aV21_october_1835
p1948
aa(lp1949
Vcharanam
p1950
aS'a type of'
p1951
aVkrithi
p1952
aa(lp1953
Vmuthuswami dikshitar
p1954
aVcompose
p1955
aVmany kritis
p1956
aa(lp1957
Vshubhapantuvarali
p1958
aS'is a'
p1959
aVragam
p1960
aa(lp1961
Vshubhapantuvarali
p1962
aVragam in
p1963
aVmusic
p1964
aa(lp1965
Vmelakarta
p1966
aS'a type of'
p1967
aVragam
p1968
aa(lp1969
g1966
aS'a type of'
p1970
aVsystem
p1971
aa(lp1972
Vmelakarta
p1973
aS'a type of'
p1974
aVragam
p1975
aa(lp1976
Vmelakarta
p1977
aS'a type of'
p1978
aVscale
p1979
aa(lp1980
Vjanya
p1981
aS'a type of'
p1982
aVragam
p1983
aa(lp1984
Vshubhapantuvarali
p1985
aVhave
p1986
aVminor ragam
p1987
aa(lp1988
Vtevaram
p1989
aVdenote
p1990
aVfirst volume
p1991
aa(lp1992
Vtevaram
p1993
aVof
p1994
aVsole reason
p1995
aa(lp1996
Vdhatuvardani
p1997
aS'is a'
p1998
aVragam
p1999
aa(lp2000
Vdhatuvardani
p2001
aVragam in
p2002
aVmusic
p2003
aa(lp2004
Vdhatuvardani
p2005
aS'is a'
p2006
aVragam
p2007
aa(lp2008
Vmelakarta
p2009
aS'a type of'
p2010
aVsystem
p2011
aa(lp2012
Vdhatuvardani
p2013
aVragam 's
p2014
aVth melakarta
p2015
aa(lp2016
Vdhatuvardani
p2017
aVragam in
p2018
aVmelakarta system
p2019
aa(lp2020
Vdhatuvardani
p2021
aS'is a'
p2022
aVmelakarta ragam
p2023
aa(lp2024
Vdhatuvardani
p2025
aS'is a'
p2026
aVragam
p2027
aa(lp2028
Vmelakarta
p2029
aS'a type of'
p2030
aVragam
p2031
aa(lp2032
Vjanya
p2033
aS'a type of'
p2034
aVragam
p2035
aa(lp2036
Vghatam
p2037
aS'a type of'
p2038
aVplayer
p2039
aa(lp2040
Vmelakarta
p2041
aS'a type of'
p2042
aVsystem
p2043
aa(lp2044
Vvenkatamakhin
p2045
aVcompile
p2046
aVoriginal list
p2047
aa(lp2048
Vjanya
p2049
aS'a type of'
p2050
aVragam
p2051
aa(lp2052
Vchakra tanam
p2053
aVof
p2054
aVstyle
p2055
aa(lp2056
Vmelakarta
p2057
aS'a type of'
p2058
aVraga
p2059
aa(lp2060
Vjanya
p2061
aS'a type of'
p2062
aVraga
p2063
aa(lp2064
Vkalpanaswaram
p2065
aVknow as
p2066
aVswarakalpana
p2067
aa(lp2068
Vkalpanaswaram
p2069
aVteach before
p2070
aVother form
p2071
aa(lp2072
Vkalpanaswaram
p2073
aS'is a'
p2074
aVelementary type
p2075
aa(lp2076
Vkalpanaswaram
p2077
aS'is a'
p2078
aVtype
p2079
aa(lp2080
Vkalpanaswaram
p2081
aVtype of
p2082
aVimprovisation
p2083
aa(lp2084
Vtanam
p2085
aVof
p2086
aVimportant form
p2087
aa(lp2088
Vtanam
p2089
aVragam
p2090
aVtanam pallavi
p2091
aa(lp2092
Vkalpanaswaram
p2093
aVfollow
p2094
aVniraval
p2095
aa(lp2096
Vviruttam
p2097
aS'a type of'
p2098
aVpadyamu
p2099
aa(lp2100
g2097
aS'a type of'
p2101
aVform
p2102
aa(lp2103
Vmridangam
p2104
aS'a type of'
p2105
aVplayer
p2106
aa(lp2107
Vkalpanaswaram
p2108
aVkalpanaswaram of
p2109
aVraga
p2110
aa(lp2111
Vniraval
p2112
aS'a type of'
p2113
aVkalpanaswaram
p2114
aa(lp2115
Vandolika
p2116
aS'is a'
p2117
aVraga
p2118
aa(lp2119
Vandolika
p2120
aS'is a'
p2121
aVcarnatic raga
p2122
aa(lp2123
Vghatam
p2124
aS'a type of'
p2125
aVartist
p2126
aa(lp2127
Vneyveli santhanagopalan
p2128
aS'is a'
p2129
aVvocalist
p2130
aa(lp2131
Vneyveli santhanagopalan
p2132
aVvocalist 's
p2133
aVindian carnatic
p2134
aa(lp2135
Vvishwambari
p2136
aS'is a'
p2137
aVragam
p2138
aa(lp2139
Vvishwambari
p2140
aVragam in
p2141
aVmusic
p2142
aa(lp2143
Vmelakarta
p2144
aS'a type of'
p2145
aVragam
p2146
aa(lp2147
g2144
aS'a type of'
p2148
aVsystem
p2149
aa(lp2150
Vvishwambari
p2151
aS'is a'
p2152
aVmelakarta
p2153
aa(lp2154
Vmelakarta
p2155
aS'a type of'
p2156
aVscale
p2157
aa(lp2158
Vjanya
p2159
aS'a type of'
p2160
aVragam
p2161
aa(lp2162
Vvishwambari
p2163
aVhave
p2164
aVminor ragam
p2165
aa(lp2166
Vbhavadhaarini
p2167
aVbear to
p2168
aVanantaraman
p2169
aa(lp2170
Vbhavadhaarini
p2171
aVbear to
p2172
aVnalini_anantaraman
p2173
aa(lp2174
Vmaddale
p2175
aVinstrument from
p2176
aVindia
p2177
aa(lp2178
Vmaddale
p2179
aVinstrument from
p2180
aVkarnataka
p2181
aa(lp2182
Vmaddale
p2183
aS'is a'
p2184
aVinstrument
p2185
aa(lp2186
Vmaddale
p2187
aS'is a'
p2188
aVpercussion instrument
p2189
aa(lp2190
Vmaddale
p2191
aVproduce unlike
p2192
aVtabla
p2193
aa(lp2194
Vmaddale
p2195
aVproduce unlike
p2196
aVmrudangam
p2197
aa(lp2198
Vmaddale
p2199
aVplay on
p2200
aVink
p2201
aa(lp2202
Vmaddale
p2203
aVplay on
p2204
aVrim
p2205
aa(lp2206
Vmaddale
p2207
aVmridangam
p2208
aVfamily
p2209
aa(lp2210
Vmridangam
p2211
aVmixture of
p2212
aVpakhawaj
p2213
aa(lp2214
Vmaddale
p2215
aVplay on
p2216
aVink
p2217
aa(lp2218
Vmaddale
p2219
aVplay on
p2220
aVrim
p2221
aa(lp2222
Vmaddale
p2223
aVunlike
p2224
aVtabla
p2225
aa(lp2226
Vmaddale
p2227
ag2224
aVmrudangam
p2228
aa(lp2229
Vmaddale
p2230
aVtune to
p2231
aVtonic
p2232
aa(lp2233
Vkalakshetra
p2234
aVmake
p2235
aVoffer
p2236
aa(lp2237
Vkantamani
p2238
aS'is a'
p2239
aVragam
p2240
aa(lp2241
Vkantamani
p2242
aVragam in
p2243
aVmusic
p2244
aa(lp2245
Vmelakarta
p2246
aS'a type of'
p2247
aVsystem
p2248
aa(lp2249
Vmelakarta
p2250
aS'a type of'
p2251
aVragam
p2252
aa(lp2253
Vjanya
p2254
aS'a type of'
p2255
aVragam
p2256
aa(lp2257
Vkantamani
p2258
aVhave
p2259
aVcouple
p2260
aa(lp2261
Vvani sateesh
p2262
aVperformer for
p2263
aVdoordarshan
p2264
aa(lp2265
Vvani sateesh
p2266
aVperformer for
p2267
aVall_india_radio
p2268
aa(lp2269
Vvani sateesh
p2270
aS'is a'
p2271
aVperformer
p2272
aa(lp2273
Vvani sateesh
p2274
aS'is a'
p2275
aVregular performer
p2276
aa(lp2277
Vmargazhi raagam
p2278
aVbring
p2279
aVtwo
p2280
aa(lp2281
Vchembai
p2282
aVnote for
p2283
aVpowerful voice
p2284
aa(lp2285
Vchembai
p2286
aVnote for
p2287
aVpowerful voice
p2288
aa(lp2289
Vchembai
p2290
aVreceive
p2291
aVflute training
p2292
aa(lp2293
Vchembai
p2294
aVhave
p2295
aVmany recording
p2296
aa(lp2297
Vchembai
p2298
aVbless for
p2299
aVspecial attraction
p2300
aa(lp2301
Vchembai
p2302
aVbless in
p2303
aVrespect
p2304
aa(lp2305
Vchembai
p2306
aVage
p2307
aV78
p2308
aa(lp2309
Vchembai
p2310
aVdie on
p2311
aV16_october_1974
p2312
aa(lp2313
Vchembai
p2314
aVconduct
p2315
aVmusic festival
p2316
aa(lp2317
Vchembai
p2318
aVconduct
p2319
aVsangeetholsavam
p2320
aa(lp2321
Vmohanam
p2322
aS'is a'
p2323
aVraga
p2324
aa(lp2325
Vmohanam
p2326
aVraga in
p2327
aVmusic
p2328
aa(lp2329
Vjanya
p2330
aS'a type of'
p2331
aVraga
p2332
aa(lp2333
Vmohanam
p2334
aVnot contain
p2335
aVnishadham
p2336
aa(lp2337
Vmohanam
p2338
ag2335
aVmadhyamam
p2339
aa(lp2340
Vmohanam
p2341
aS'is a'
p2342
aVsymmetric raga
p2343
aa(lp2344
Vmohanam
p2345
aS'is a'
p2346
aVraga
p2347
aa(lp2348
Vmelakarta
p2349
aS'is a'
p2350
aVcollection
p2351
aa(lp2352
Vmelakarta
p2353
aVcollection of
p2354
aVfundamental raga
p2355
aa(lp2356
Vmelakarta
p2357
aS'a type of'
p2358
aVraga
p2359
aa(lp2360
Vmelakarta
p2361
aS'a type of'
p2362
aVscheme
p2363
aa(lp2364
Vmelakarta
p2365
aS'a type of'
p2366
aVraga
p2367
aa(lp2368
Vmelakarta
p2369
aS'a type of'
p2370
aVraga
p2371
aa(lp2372
Vmelakarta
p2373
aS'a type of'
p2374
aVraga
p2375
aa(lp2376
Vmelakarta
p2377
aS'a type of'
p2378
aVraga
p2379
aa(lp2380
Vhindolam
p2381
aVhave
p2382
aVrishabha
p2383
aa(lp2384
Vhindolam
p2385
ag2382
aVpanchama
p2386
aa(lp2387
Vmelakarta
p2388
aS'a type of'
p2389
aVsystem
p2390
aa(lp2391
Vmelakarta
p2392
aS'a type of'
p2393
aVragam
p2394
aa(lp2395
Vvenkatamakhin
p2396
aVcompile
p2397
aVoriginal list
p2398
aa(lp2399
Vjanya
p2400
aS'a type of'
p2401
aVragam
p2402
aa(lp2403
Vghatam
p2404
aVaccompany
p2405
aVmridangam
p2406
aa(lp2407
Vmridangam
p2408
aVhave
p2409
aVlarge role
p2410
aa(lp2411
Vmridangam
p2412
aVrest
p2413
aVit
p2414
aa(lp2415
Vmridangam
p2416
aVuse in
p2417
aVmusic performance
p2418
aa(lp2419
Vmridangam
p2420
aVuse as
p2421
aVaccompanying instrument
p2422
aa(lp2423
Vmridangam
p2424
aVuse in
p2425
aVmusic
p2426
aa(lp2427
Vpacchimiriam adiyappa
p2428
aS'is a'
p2429
aVfamous musician
p2430
aa(lp2431
Vpacchimiriam adiyappa
p2432
aS'is a'
p2433
aVmusician
p2434
aa(lp2435
Vpacchimiriam adiyappa
p2436
aS'is a'
p2437
aVcourt musician
p2438
aa(lp2439
Vmanavati
p2440
aVragam in
p2441
aVmusic
p2442
aa(lp2443
Vmanavati
p2444
aS'is a'
p2445
aVragam
p2446
aa(lp2447
Vmelakarta
p2448
aS'a type of'
p2449
aVsystem
p2450
aa(lp2451
Vmelakarta
p2452
aS'a type of'
p2453
aVragam
p2454
aa(lp2455
Vvenkatamakhin
p2456
aVcompile
p2457
aVoriginal list
p2458
aa(lp2459
Vjanya
p2460
aS'a type of'
p2461
aVragam
p2462
aa(lp2463
Vmanavati
p2464
aVhave
p2465
aVminor ragam
p2466
aa(lp2467
Vsaveri
p2468
aS'is a'
p2469
aVcarnatic ragam
p2470
aa(lp2471
Vsaveri
p2472
aS'is a'
p2473
aVmusic ragam
p2474
aa(lp2475
Vsaveri
p2476
aS'is a'
p2477
aVragam
p2478
aa(lp2479
Vvidyabhushana
p2480
aS'is a'
p2481
aVvocalist
p2482
aa(lp2483
Vvidyabhushana
p2484
aVvocalist from
p2485
aVkarnataka
p2486
aa(lp2487
Vsenavati
p2488
aS'is a'
p2489
aVragam
p2490
aa(lp2491
Vsenavati
p2492
aVragam in
p2493
aVmusic
p2494
aa(lp2495
Vmelakarta
p2496
aS'a type of'
p2497
aVragam
p2498
aa(lp2499
g2496
aS'a type of'
p2500
aVsystem
p2501
aa(lp2502
Vmelakarta
p2503
aS'a type of'
p2504
aVragam
p2505
aa(lp2506
Vmelakarta
p2507
aS'a type of'
p2508
aVscale
p2509
aa(lp2510
Vvenkatamakhin
p2511
aVcompile
p2512
aVoriginal list
p2513
aa(lp2514
Vjanya
p2515
aS'a type of'
p2516
aVragam
p2517
aa(lp2518
Vsenavati
p2519
aVhave
p2520
aVminor ragam
p2521
aa(lp2522
Vmararanjani
p2523
aVragam in
p2524
aVmusic
p2525
aa(lp2526
Vmararanjani
p2527
aS'is a'
p2528
aVragam
p2529
aa(lp2530
Vmelakarta
p2531
aS'a type of'
p2532
aVsystem
p2533
aa(lp2534
Vmelakarta
p2535
aS'a type of'
p2536
aVragam
p2537
aa(lp2538
Vhindolam
p2539
aVragam in
p2540
aVmusic
p2541
aa(lp2542
Vhindolam
p2543
aS'is a'
p2544
aVragam
p2545
aa(lp2546
Vjanya
p2547
aS'a type of'
p2548
aVragam
p2549
aa(lp2550
Vhindolam
p2551
aVnot contain
p2552
aVpanchamam
p2553
aa(lp2554
Vhindolam
p2555
ag2552
aVrishabham
p2556
aa(lp2557
Vhindolam
p2558
aS'is a'
p2559
aVragam
p2560
aa(lp2561
Vhindolam
p2562
aS'is a'
p2563
aVsymmetric ragam
p2564
aa(lp2565
Vmelakarta
p2566
aS'a type of'
p2567
aVragam
p2568
aa(lp2569
Vhindolam
p2570
aS'is a'
p2571
aVmelakarta ragam
p2572
aa(lp2573
Vjanya
p2574
aS'a type of'
p2575
aVragam
p2576
aa(lp2577
Vmridangam
p2578
aS'a type of'
p2579
aVplayer
p2580
aa(lp2581
Vmridangam
p2582
aS'a type of'
p2583
aVartiste
p2584
aa(lp2585
Vshuddha saveri
p2586
aS'is a'
p2587
aVragam
p2588
aa(lp2589
Vshuddha saveri
p2590
aVragam in
p2591
aVmusic
p2592
aa(lp2593
Vjanya
p2594
aS'a type of'
p2595
aVragam
p2596
aa(lp2597
Vshuddha saveri
p2598
aS'is a'
p2599
aVragam
p2600
aa(lp2601
Vshuddha saveri
p2602
aS'is a'
p2603
aVsymmetric ragam
p2604
aa(lp2605
Vshuddha saveri
p2606
aVnot contain
p2607
aVnishadam
p2608
aa(lp2609
Vshuddha saveri
p2610
ag2607
aVgandharam
p2611
aa(lp2612
Vmuthuswami dikshitar
p2613
aVset
p2614
aVguha
p2615
aa(lp2616
Vmelakarta
p2617
aS'a type of'
p2618
aVsystem
p2619
aa(lp2620
Vmelakarta
p2621
aS'a type of'
p2622
aVragam
p2623
aa(lp2624
Vjanya
p2625
aS'a type of'
p2626
aVragam
p2627
aa(lp2628
Vranjani
p2629
aVbear to
p2630
aVmeenakshi
p2631
aa(lp2632
Vranjani
p2633
aVbear to
p2634
aVn._balasubramanian
p2635
aa(lp2636
Vranjani
p2637
aVbegin
p2638
aVmusic career
p2639
aa(lp2640
Vranjani
p2641
aVaccompany
p2642
aVvarious artist
p2643
aa(lp2644
Vranjani
p2645
aVreceive
p2646
aVmultiple award
p2647
aa(lp2648
Vranjani
p2649
ag2646
aVrecognition
p2650
aa(lp2651
Vranjani
p2652
aVhave
p2653
aVvarious album
p2654
aa(lp2655
Vmuttuthandavar
p2656
aVpoet 's
p2657
aVprominent saivite
p2658
aa(lp2659
Vmuttuthandavar
p2660
aS'is a'
p2661
aVpoet
p2662
aa(lp2663
Vmuttuthandavar
p2664
aVbase in
p2665
aVtemple town
p2666
aa(lp2667
Vmuttuthandavar
p2668
aVbear in
p2669
aVtown
p2670
aa(lp2671
Vmridangam
p2672
aS'is a'
p2673
aVmusic
p2674
aa(lp2675
Vdhananjayans
p2676
aVleave
p2677
aVkalakshetra
p2678
aa(lp2679
Vdhananjayans
p2680
aVbuild
p2681
aVcareer
p2682
aa(lp2683
Vdhananjayans
p2684
aVstart
p2685
aVschool own bharata their dance kalanjali
p2686
aa(lp2687
Vdwaram bhavanarayana rao
p2688
aS'is a'
p2689
aVviolinist
p2690
aa(lp2691
Vdwaram bhavanarayana rao
p2692
aS'is a'
p2693
aVfamous violinist
p2694
aa(lp2695
Vdwaram bhavanarayana rao
p2696
aS'is a'
p2697
aVson
p2698
aa(lp2699
Vdwaram bhavanarayana rao
p2700
aVson of
p2701
aVlegendary padmasri_dwaram_venkataswamy_naidu
p2702
aa(lp2703
Vmalayamarutam
p2704
aVragam in
p2705
aVmusic
p2706
aa(lp2707
Vmalayamarutam
p2708
aS'is a'
p2709
aVragam
p2710
aa(lp2711
Vjanya
p2712
aS'a type of'
p2713
aVragam
p2714
aa(lp2715
Vmalayamarutam
p2716
aVnot contain
p2717
aVmadhyamam
p2718
aa(lp2719
Vmalayamarutam
p2720
aS'is a'
p2721
aVragam
p2722
aa(lp2723
Vmalayamarutam
p2724
aS'is a'
p2725
aVsymmetric ragam
p2726
aa(lp2727
Vmalayamarutam
p2728
aS'is a'
p2729
aVscale
p2730
aa(lp2731
Vmalayamarutam
p2732
aS'is a'
p2733
aVplease scale
p2734
aa(lp2735
Vmalayamarutam
p2736
aVhave
p2737
aVfew composition
p2738
aa(lp2739
Vsvaramelakalanidhi
p2740
aVintroduce
p2741
aVconcept
p2742
aa(lp2743
Vsvaramelakalanidhi
p2744
aVrationalize
p2745
aVinterval
p2746
aa(lp2747
Vsvaramelakalanidhi
p2748
ag2745
aVscale
p2749
aa(lp2750
Vsvaramelakalanidhi
p2751
aVbring
p2752
aVtheory
p2753
aa(lp2754
Vabhirami anthadhi
p2755
aS'is a'
p2756
aVcollection
p2757
aa(lp2758
Vabhirami anthadhi
p2759
aVcollection of
p2760
aVpoem
p2761
aa(lp2762
Vsarangapani
p2763
aS'is a'
p2764
aVminister_of_education
p2765
aa(lp2766
Vmelakarta
p2767
aS'a type of'
p2768
aVragam
p2769
aa(lp2770
g2767
aS'a type of'
p2771
aVsystem
p2772
aa(lp2773
Vmelakarta
p2774
aS'a type of'
p2775
aVragam
p2776
aa(lp2777
Vmelakarta
p2778
aS'a type of'
p2779
aVscale
p2780
aa(lp2781
Vvenkatamakhin
p2782
aVcompile
p2783
aVoriginal list
p2784
aa(lp2785
Vjanya
p2786
aS'a type of'
p2787
aVragam
p2788
aa(lp2789
Vsuryakantam
p2790
aVhave
p2791
aVjanya ragam
p2792
aa(lp2793
Vvijaya dasa
p2794
aVbear in
p2795
aVfamily
p2796
aa(lp2797
Vvijaya dasa
p2798
aVbear in
p2799
aVtaluk
p2800
aa(lp2801
Vvijaya dasa
p2802
aVbear in
p2803
aVcheekalaparvi
p2804
aa(lp2805
Vkalpanaswaram
p2806
aVknow as
p2807
aVswarakalpana
p2808
aa(lp2809
Vtanam
p2810
aVof
p2811
aVimportant form
p2812
aa(lp2813
Vtanam
p2814
aVintegral to
p2815
aVragam-tanam-pallavi
p2816
aa(lp2817
Vkalpanaswaram
p2818
aVfollow
p2819
aVniraval
p2820
aa(lp2821
Vmadhyamavati
p2822
aVraga in
p2823
aVmusic
p2824
aa(lp2825
Vmadhyamavati
p2826
aS'is a'
p2827
aVraga
p2828
aa(lp2829
Vjanya
p2830
aS'a type of'
p2831
aVraga
p2832
aa(lp2833
Vmadhyamavati
p2834
aVnot contain
p2835
aVdhaivatam
p2836
aa(lp2837
Vmadhyamavati
p2838
ag2835
aVgandharam
p2839
aa(lp2840
Vmadhyamavati
p2841
aS'is a'
p2842
aVragam
p2843
aa(lp2844
Vmadhyamavati
p2845
aS'is a'
p2846
aVsymmetric ragam
p2847
aa(lp2848
Vmadhuvanti
p2849
aS'is a'
p2850
aVname
p2851
aa(lp2852
Vmadhuvanti
p2853
aVname of
p2854
aVraga
p2855
aa(lp2856
Vmadhuvanti
p2857
aVthaat
p2858
aVtodi
p2859
aa(lp2860
Vmadhuvanti
p2861
aVexpress
p2862
aVloving sentiment
p2863
aa(lp2864
Vjanya
p2865
aS'a type of'
p2866
aVraga
p2867
aa(lp2868
Vmadhuvanti
p2869
aS'is a'
p2870
aVraga
p2871
aa(lp2872
Vmadhuvanti
p2873
aS'is a'
p2874
aVjanya raga
p2875
aa(lp2876
Vmadhuvanti
p2877
aVraga of
p2878
aVdharmavati
p2879
aa(lp2880
Vmadhuvanti
p2881
aVraga of
p2882
aVth melakarta_of_carnatic_music
p2883
aa(lp2884
Vmadhuvanti
p2885
aS'is a'
p2886
aVmelodious raga
p2887
aa(lp2888
Vmadhuvanti
p2889
aS'is a'
p2890
aVraga
p2891
aa(lp2892
Vchingleput ranganathan
p2893
aS'is a'
p2894
aVvocalist
p2895
aa(lp2896
Vchingleput ranganathan
p2897
aVvocalist 's
p2898
aVclassical carnatic
p2899
aa(lp2900
Vkudamaloor janardanan
p2901
aVflautist of
p2902
aVmusic tradition
p2903
aa(lp2904
Vkudamaloor janardanan
p2905
aS'is a'
p2906
aVflautist
p2907
aa(lp2908
Vkudamaloor janardanan
p2909
aS'is a'
p2910
aVindian flautist
p2911
aa(lp2912
Vkudamaloor janardanan
p2913
aVbear into
p2914
aVmusical family
p2915
aa(lp2916
Vkudamaloor janardanan
p2917
aVbear in
p2918
aVkerala
p2919
aa(lp2920
Vkudamaloor janardanan
p2921
aVbear in
p2922
aVindia
p2923
aa(lp2924
Vcharukesi
p2925
aS'is a'
p2926
aVkritus
p2927
aa(lp2928
Vcharukesi
p2929
aS'is a'
p2930
aVmain kritus
p2931
aa(lp2932
Vcharukesi
p2933
aVlast for
p2934
aV12
p2935
aa(lp2936
Vghatam
p2937
aS'is a'
p2938
aVflute
p2939
aa(lp2940
Vghatam
p2941
aS'is a'
p2942
aVsecond flute
p2943
aa(lp2944
Vmridangam
p2945
aS'a type of'
p2946
aVplayer
p2947
aa(lp2948
Varunachala kavi
p2949
aS'is a'
p2950
aVpoet
p2951
aa(lp2952
Varunachala kavi
p2953
aS'is a'
p2954
aVcomposer
p2955
aa(lp2956
Varunachala kavi
p2957
aVpoet 's
p2958
aVtamil
p2959
aa(lp2960
Varunachala kavi
p2961
aVcomposer of
p2962
aVmusic
p2963
aa(lp2964
Vgiriraja kavi
p2965
aVinfluence
p2966
aVformative year
p2967
aa(lp2968
Vgiriraja kavi
p2969
aVplay
p2970
aVmajor role
p2971
aa(lp2972
Vtyagaraja
p2973
aVabjure
p2974
aVposition
p2975
aa(lp2976
Vmelakarta
p2977
aS'a type of'
p2978
aVsystem
p2979
aa(lp2980
Vdivyamani
p2981
aVragam in
p2982
aVragam system
p2983
aa(lp2984
Vdivyamani
p2985
aS'is a'
p2986
aVragam
p2987
aa(lp2988
Vmelakarta
p2989
aS'a type of'
p2990
aVragam
p2991
aa(lp2992
Vjanya
p2993
aS'a type of'
p2994
aVragam
p2995
aa(lp2996
Vdivyamani
p2997
aVhave
p2998
aVminor ragam
p2999
aa(lp3000
Vudayaravichandrika
p3001
aS'is a'
p3002
aVragam
p3003
aa(lp3004
Vudayaravichandrika
p3005
aVragam in
p3006
aVmusic
p3007
aa(lp3008
Vjanya
p3009
aS'a type of'
p3010
aVragam
p3011
aa(lp3012
Vudayaravichandrika
p3013
aS'is a'
p3014
aVragam
p3015
aa(lp3016
Vudayaravichandrika
p3017
aS'is a'
p3018
aVsymmetric ragam
p3019
aa(lp3020
Vudayaravichandrika
p3021
aVnot contain
p3022
aVdhaivatam
p3023
aa(lp3024
Vudayaravichandrika
p3025
ag3022
aVrishabham
p3026
aa(lp3027
Vgayathri venkataraghavan
p3028
aS'is a'
p3029
aVvocalist
p3030
aa(lp3031
Vgayathri venkataraghavan
p3032
aVvocalist 's
p3033
aVindian carnatic
p3034
aa(lp3035
Vjanya
p3036
aS'a type of'
p3037
aVragam
p3038
aa(lp3039
Vmelakarta
p3040
aS'a type of'
p3041
aVscale
p3042
aa(lp3043
Vjhalavarali
p3044
aS'a type of'
p3045
aVragam
p3046
aa(lp3047
Vjanya
p3048
aS'a type of'
p3049
aVscale
p3050
aa(lp3051
Vvarali
p3052
aVdue to
p3053
aVvakra prayoga
p3054
aa(lp3055
Vvarali
p3056
aS'is a'
p3057
aVasymmetric ragam
p3058
aa(lp3059
Vvarali
p3060
aS'is a'
p3061
aVragam
p3062
aa(lp3063
Vvenu
p3064
aS'a type of'
p3065
aVplayer
p3066
aa(lp3067
Vveenai dhanammal
p3068
aVgrandmother 's
p3069
aVbrindas
p3070
aa(lp3071
Vveenai dhanammal
p3072
aS'is a'
p3073
aVgrandmother
p3074
aa(lp3075
Vmuthuswami dikshitar
p3076
aVcompose while
p3077
aVtyagaraja
p3078
aa(lp3079
Vmuthuswami dikshitar
p3080
aVcompose in
p3081
aVtelugu
p3082
aa(lp3083
Vpantula rama
p3084
aVbear into
p3085
aVfamily
p3086
aa(lp3087
Vpantula rama
p3088
aVbear with
p3089
aVlineage
p3090
aa(lp3091
Vpallavi
p3092
aS'a type of'
p3093
aVperform
p3094
aa(lp3095
Vvyjayanthimala
p3096
aVintroduce in
p3097
aVfilm
p3098
aa(lp3099
Vmridangam
p3100
aS'a type of'
p3101
aVplayer
p3102
aa(lp3103
Vgingger shankar
p3104
aS'is a'
p3105
aVsinger
p3106
aa(lp3107
Vgingger shankar
p3108
aS'is a'
p3109
aVindian singer
p3110
aa(lp3111
Vgingger shankar
p3112
aS'is a'
p3113
aVamerican singer
p3114
aa(lp3115
Vmelakarta
p3116
aS'a type of'
p3117
aVragam
p3118
aa(lp3119
g3116
aS'a type of'
p3120
aVsystem
p3121
aa(lp3122
Vmelakarta
p3123
aS'a type of'
p3124
aVragam
p3125
aa(lp3126
Vkonerirajapuram vaidyanatha ayyar
p3127
aS'is a'
p3128
aVcarnatic vocalist
p3129
aa(lp3130
Vkonerirajapuram vaidyanatha ayyar
p3131
aS'is a'
p3132
aVvocalist
p3133
aa(lp3134
Vkonerirajapuram vaidyanatha ayyar
p3135
aVvocalist from
p3136
aVindian state
p3137
aa(lp3138
Vkonerirajapuram vaidyanatha ayyar
p3139
aS'is a'
p3140
aVcolossus
p3141
aa(lp3142
Vchembai
p3143
aVconduct
p3144
aVfestival
p3145
aa(lp3146
Vsusheela raman
p3147
aS'is a'
p3148
aVbritish musician
p3149
aa(lp3150
Vsusheela raman
p3151
aS'is a'
p3152
aVmusician
p3153
aa(lp3154
Vsusheela raman
p3155
aS'is a'
p3156
aVacclaimed musician
p3157
aa(lp3158
Vsusheela raman
p3159
aS'is a'
p3160
aVindian musician
p3161
aa(lp3162
Vkalpanaswaram
p3163
aVperform in
p3164
aVcarnatic concert
p3165
aa(lp3166
Vtanam
p3167
aS'a type of'
p3168
aVsinging
p3169
aa(lp3170
Vsarasangi
p3171
aVragam in
p3172
aVmusic
p3173
aa(lp3174
Vsarasangi
p3175
aS'is a'
p3176
aVragam
p3177
aa(lp3178
Vmelakarta
p3179
aS'a type of'
p3180
aVragam
p3181
aa(lp3182
g3179
aS'a type of'
p3183
aVsystem
p3184
aa(lp3185
Vmelakarta
p3186
aS'a type of'
p3187
aVragam
p3188
aa(lp3189
Vsarasangi
p3190
aS'is a'
p3191
aVmelakarta ragam
p3192
aa(lp3193
Vsarasangi
p3194
aS'is a'
p3195
aVragam
p3196
aa(lp3197
Vsarasangi
p3198
aS'is a'
p3199
aVsampurna ragam
p3200
aa(lp3201
Vmelakarta
p3202
aS'a type of'
p3203
aVscale
p3204
aa(lp3205
Vjanya
p3206
aS'a type of'
p3207
aVragam
p3208
aa(lp3209
Vsarasangi
p3210
aVhave
p3211
aVminor ragam
p3212
aa(lp3213
Vsaramati
p3214
aVragam in
p3215
aVmusic
p3216
aa(lp3217
Vsaramati
p3218
aS'is a'
p3219
aVragam
p3220
aa(lp3221
Vjanya
p3222
aS'a type of'
p3223
aVragam
p3224
aa(lp3225
Vmelakarta
p3226
aS'a type of'
p3227
aVscale
p3228
aa(lp3229
Vnatabhairavi
p3230
aS'a type of'
p3231
aVragam
p3232
aa(lp3233
Vjanya
p3234
aS'a type of'
p3235
aVscale
p3236
aa(lp3237
Vsaramati
p3238
aVnot contain
p3239
aVrishabham
p3240
aa(lp3241
Vsaramati
p3242
ag3239
aVpanchamam
p3243
aa(lp3244
Vsaramati
p3245
aS'is a'
p3246
aVasymmetric ragam
p3247
aa(lp3248
Vsaramati
p3249
aS'is a'
p3250
aVragam
p3251
aa(lp3252
Vhindolam
p3253
aS'a type of'
p3254
aVscale
p3255
aa(lp3256
Vnatabhairavi
p3257
aS'a type of'
p3258
aVcombination
p3259
aa(lp3260
Vdhanyasi
p3261
aS'is a'
p3262
aVragam
p3263
aa(lp3264
Vdhanyasi
p3265
aVragam in
p3266
aVmusic
p3267
aa(lp3268
Vjanya
p3269
aS'a type of'
p3270
aVragam
p3271
aa(lp3272
Vmelakarta
p3273
aS'a type of'
p3274
aVscale
p3275
aa(lp3276
Vhanumatodi
p3277
aS'a type of'
p3278
aVragam
p3279
aa(lp3280
Vjanya
p3281
aS'a type of'
p3282
aVscale
p3283
aa(lp3284
Vdhanyasi
p3285
aS'is a'
p3286
aVshuddha combination
p3287
aa(lp3288
Vhanumatodi
p3289
aS'a type of'
p3290
aVscale
p3291
aa(lp3292
Vdhanyasi
p3293
aS'a type of'
p3294
aVcombination
p3295
aa(lp3296
Vdhanyasi
p3297
aS'is a'
p3298
aVasymmetric ragam
p3299
aa(lp3300
Vdhanyasi
p3301
aS'is a'
p3302
aVragam
p3303
aa(lp3304
Vdhanyasi
p3305
aVnot contain
p3306
aVdhaivatam
p3307
aa(lp3308
Vdhanyasi
p3309
ag3306
aVrishabham
p3310
aa(lp3311
Vmysore manjunath
p3312
aS'is a'
p3313
aVviolinist
p3314
aa(lp3315
Vmysore manjunath
p3316
aS'is a'
p3317
aVindian violinist
p3318
aa(lp3319
Vmysore manjunath
p3320
aVof
p3321
aVbrother duo
p3322
aa(lp3323
Vranjani
p3324
aS'is a'
p3325
aVraga
p3326
aa(lp3327
Vranjani
p3328
aS'is a'
p3329
aVcarnatic raga
p3330
aa(lp3331
Vmridangam
p3332
aS'a type of'
p3333
aVartist
p3334
aa(lp3335
Vmorsing
p3336
aS'a type of'
p3337
aVartist
p3338
aa(lp3339
Vpapanasam sivan
p3340
aVreceive
p3341
aVaward
p3342
aa(lp3343
Vrithvik raja
p3344
aS'is a'
p3345
aVmusician
p3346
aa(lp3347
Vrithvik raja
p3348
aS'is a'
p3349
aVcarnatic musician
p3350
aa(lp3351
Vrithvik raja
p3352
aVmusician from
p3353
aVindia
p3354
aa(lp3355
Vrithvik raja
p3356
aVbear in
p3357
aVchennai
p3358
aa(lp3359
Vabhogi
p3360
aVraga in
p3361
aVmusic
p3362
aa(lp3363
Vabhogi
p3364
aVadapt to
p3365
aVmusic
p3366
aa(lp3367
Vabhogi
p3368
aS'is a'
p3369
aVraga
p3370
aa(lp3371
Vabhogi
p3372
aVborrow from
p3373
aVmusic
p3374
aa(lp3375
Vabhogi
p3376
aS'is a'
p3377
aVsymmetric scale
p3378
aa(lp3379
Vabhogi
p3380
aS'is a'
p3381
aVpentatonic scale
p3382
aa(lp3383
Vabhogi
p3384
aS'is a'
p3385
aVscale
p3386
aa(lp3387
Vabhogi
p3388
aVnot contain
p3389
aVpanchamam
p3390
aa(lp3391
Vabhogi
p3392
ag3389
aVnishadam
p3393
aa(lp3394
Vabhogi
p3395
aS'is a'
p3396
aVscale
p3397
aa(lp3398
Vabhogi
p3399
aVuse for
p3400
aVcomposition
p3401
aa(lp3402
Vabhogi
p3403
aVuse in
p3404
aVmedium
p3405
aa(lp3406
Vabhogi
p3407
aS'a type of'
p3408
aVraga
p3409
aa(lp3410
Vugabhoga
p3411
aVlead to
p3412
aVfreestyle rendering
p3413
aa(lp3414
g3411
aVlead without
p3415
aVlyric
p3416
aa(lp3417
Vramapriya
p3418
aS'is a'
p3419
aVragam
p3420
aa(lp3421
Vramapriya
p3422
aVragam in
p3423
aVmusic
p3424
aa(lp3425
Vmelakarta
p3426
aS'a type of'
p3427
aVragam
p3428
aa(lp3429
g3426
aS'a type of'
p3430
aVsystem
p3431
aa(lp3432
Vmelakarta
p3433
aS'a type of'
p3434
aVragam
p3435
aa(lp3436
Vmelakarta
p3437
aS'a type of'
p3438
aVscale
p3439
aa(lp3440
Vjanya
p3441
aS'a type of'
p3442
aVragam
p3443
aa(lp3444
Vramapriya
p3445
aVhave
p3446
aVminor ragam
p3447
aa(lp3448
Vrupavati
p3449
aVragam in
p3450
aVmusic
p3451
aa(lp3452
Vrupavati
p3453
aS'is a'
p3454
aVragam
p3455
aa(lp3456
Vmelakarta
p3457
aS'a type of'
p3458
aVragam
p3459
aa(lp3460
g3457
aS'a type of'
p3461
aVsystem
p3462
aa(lp3463
Vmelakarta
p3464
aS'a type of'
p3465
aVragam
p3466
aa(lp3467
Vmelakarta
p3468
aS'a type of'
p3469
aVscale
p3470
aa(lp3471
Vrupavati
p3472
aVgive to
p3473
aVth melakarta
p3474
aa(lp3475
Vrupavati
p3476
aVgive in
p3477
aVlist
p3478
aa(lp3479
Vvenkatamakhin
p3480
aVcompile
p3481
ag3478
aa(lp3482
Vrupavati
p3483
aS'is a'
p3484
aVname
p3485
aa(lp3486
Vrupavati
p3487
aS'is a'
p3488
aVoriginal name
p3489
aa(lp3490
Vjanya
p3491
aS'a type of'
p3492
aVragam
p3493
aa(lp3494
Vrupavati
p3495
aVhave
p3496
aVminor ragam
p3497
aa(lp3498
Vmelakarta
p3499
aS'a type of'
p3500
aVragam
p3501
aa(lp3502
Vshadvidamargini
p3503
aVragam in
p3504
aVmusic
p3505
aa(lp3506
Vshadvidamargini
p3507
aS'is a'
p3508
aVragam
p3509
aa(lp3510
Vmelakarta
p3511
aS'a type of'
p3512
aVragam
p3513
aa(lp3514
g3511
aS'a type of'
p3515
aVsystem
p3516
aa(lp3517
Vmelakarta
p3518
aS'a type of'
p3519
aVragam
p3520
aa(lp3521
Vmelakarta
p3522
aS'a type of'
p3523
aVscale
p3524
aa(lp3525
Vjanya
p3526
aS'a type of'
p3527
aVragam
p3528
aa(lp3529
Vshadvidamargini
p3530
aVhave
p3531
aVminor ragam
p3532
aa(lp3533
Vmelakarta
p3534
aS'a type of'
p3535
aVsystem
p3536
aa(lp3537
Vmelakarta
p3538
aS'a type of'
p3539
aVragam
p3540
aa(lp3541
Vmelakarta
p3542
aS'a type of'
p3543
aVragam
p3544
aa(lp3545
Vvenkatamakhin
p3546
aVcompile
p3547
aVoriginal list
p3548
aa(lp3549
Vjanya
p3550
aS'a type of'
p3551
aVragam
p3552
aa(lp3553
Vsuvarnangi
p3554
aS'is a'
p3555
aVragam
p3556
aa(lp3557
Vsuvarnangi
p3558
aVragam in
p3559
aVmusic
p3560
aa(lp3561
Vmelakarta
p3562
aS'a type of'
p3563
aVragam
p3564
aa(lp3565
g3562
aS'a type of'
p3566
aVsystem
p3567
aa(lp3568
Vmelakarta
p3569
aS'a type of'
p3570
aVragam
p3571
aa(lp3572
Vjanya
p3573
aS'a type of'
p3574
aVragam
p3575
aa(lp3576
Vsuvarnangi
p3577
aVhave
p3578
aVminor ragam
p3579
aa(lp3580
Vvani sateesh
p3581
aVbear in
p3582
aVkarnataka
p3583
aa(lp3584
Vvani sateesh
p3585
aVbear in
p3586
aVbangalore
p3587
aa(lp3588
Vdakshinamurthy pillai
p3589
aVlive to
p3590
aV1937
p3591
aa(lp3592
Vdakshinamurthy pillai
p3593
aVlive during
p3594
aV1875
p3595
aa(lp3596
Vchenda
p3597
aVsuspend from
p3598
aVdrummer neck
p3599
aa(lp3600
Vdevoleena bhattacharjee
p3601
aVplay
p3602
aVrole
p3603
aa(lp3604
Vbhupalam
p3605
aS'is a'
p3606
aVragam
p3607
aa(lp3608
Vbhupalam
p3609
aVragam in
p3610
aVmusic
p3611
aa(lp3612
Vjanya
p3613
aS'a type of'
p3614
aVragam
p3615
aa(lp3616
Vbhupalam
p3617
aS'is a'
p3618
aVragam
p3619
aa(lp3620
Vbhupalam
p3621
aS'is a'
p3622
aVsymmetric ragam
p3623
aa(lp3624
Vbhupalam
p3625
aVnot contain
p3626
aVnishadham
p3627
aa(lp3628
Vbhupalam
p3629
ag3626
aVmadhyamam
p3630
aa(lp3631
Vakshipthika
p3632
aVpart of
p3633
aValapana
p3634
aa(lp3635
Vakshipthika
p3636
aS'is a'
p3637
aVintroductory part
p3638
aa(lp3639
Vakshipthika
p3640
aS'is a'
p3641
aVpart
p3642
aa(lp3643
Vakshipthika
p3644
aS'is a'
p3645
aVfirst part
p3646
aa(lp3647
Vakshipthika
p3648
aVpart of
p3649
ag3634
aa(lp3650
Vakshipthika
p3651
aVintroduction to
p3652
aVraagam
p3653
aa(lp3654
Vakshipthika
p3655
aS'is a'
p3656
aVintroduction
p3657
aa(lp3658
Vasaveri
p3659
aVragam in
p3660
aVmusic
p3661
aa(lp3662
Vasaveri
p3663
aS'is a'
p3664
aVragam
p3665
aa(lp3666
Vjanya
p3667
aS'a type of'
p3668
aVragam
p3669
aa(lp3670
Vmelakarta
p3671
aS'a type of'
p3672
aVscale
p3673
aa(lp3674
Vhanumatodi
p3675
aS'a type of'
p3676
aVragam
p3677
aa(lp3678
Vasaveri
p3679
aVmention in
p3680
aVsangita_ratnakara
p3681
aa(lp3682
Vasaveri
p3683
aS'is a'
p3684
aVancient ragam
p3685
aa(lp3686
Vasaveri
p3687
aS'is a'
p3688
aVragam
p3689
aa(lp3690
Vasaveri
p3691
aVresemble
p3692
aVkomal_asavari
p3693
aa(lp3694
Vasaveri
p3695
aVnot contain
p3696
aVnishadam
p3697
aa(lp3698
Vasaveri
p3699
ag3696
aVgandharam
p3700
aa(lp3701
Vasaveri
p3702
aS'is a'
p3703
aVasymmetric ragam
p3704
aa(lp3705
Vasaveri
p3706
aS'is a'
p3707
aVragam
p3708
aa(lp3709
Vsthai
p3710
aVrefer to
p3711
aVoctave
p3712
aa(lp3713
Vsthai
p3714
aVrefer in
p3715
aVmusic
p3716
aa(lp3717
Vsthai
p3718
aVrefer in
p3719
aVlanguage
p3720
aa(lp3721
Vmelakarta
p3722
aS'a type of'
p3723
aVragam
p3724
aa(lp3725
Valapana
p3726
aS'is a'
p3727
aVpreface
p3728
aa(lp3729
Valapana
p3730
aVpreface to
p3731
aVsong
p3732
aa(lp3733
Vkalpanaswaram
p3734
aVmean
p3735
aVimagined swaram
p3736
aa(lp3737
Vtanam
p3738
aS'is a'
p3739
aV/ improvisation
p3740
aa(lp3741
Vtanam
p3742
aS'is a'
p3743
aVrhythmic improvisation
p3744
aa(lp3745
Vtanam
p3746
aS'is a'
p3747
aVrhythm improvisation
p3748
aa(lp3749
Vtanam
p3750
aS'is a'
p3751
aVimprovisation
p3752
aa(lp3753
Vtanam
p3754
aVimprovisation of
p3755
aVragam
p3756
aa(lp3757
Vtanam
p3758
aVline 's
p3759
aVpallavi
p3760
aa(lp3761
Vtanam
p3762
aS'is a'
p3763
aVline
p3764
aa(lp3765
Vviruttam
p3766
aS'is a'
p3767
aVdevotional sung
p3768
aa(lp3769
Vviruttam
p3770
aS'is a'
p3771
aVverse
p3772
aa(lp3773
Vviruttam
p3774
aS'is a'
p3775
aVphrase sung
p3776
aa(lp3777
Vviruttam
p3778
aS'is a'
p3779
aVsung
p3780
aa(lp3781
Vviruttam
p3782
aS'is a'
p3783
aVdevotional verse
p3784
aa(lp3785
Vjanya
p3786
aS'a type of'
p3787
aVragam
p3788
aa(lp3789
Vsthai
p3790
aVrefer to
p3791
aVoctave
p3792
aa(lp3793
Vmelakarta
p3794
aS'a type of'
p3795
aVragam
p3796
aa(lp3797
Vjanya
p3798
aS'a type of'
p3799
aVragam
p3800
aa(lp3801
Vjanya
p3802
aS'a type of'
p3803
aVragam
p3804
aa(lp3805
Vmelakarta
p3806
aS'a type of'
p3807
aVragam
p3808
aa(lp3809
Vjanya
p3810
aS'a type of'
p3811
aVragam
p3812
aa(lp3813
Vjanya
p3814
aS'a type of'
p3815
aVragam
p3816
aa(lp3817
Vjanya
p3818
aS'a type of'
p3819
aVragam
p3820
aa(lp3821
Vpallavi
p3822
aS'is a'
p3823
aVverse
p3824
aa(lp3825
Vpallavi
p3826
aS'is a'
p3827
aVfirst verse
p3828
aa(lp3829
Vpallavi
p3830
aVverse in
p3831
aVcomposition
p3832
aa(lp3833
Vanupallavi
p3834
aVfollow
p3835
aVpallavus
p3836
aa(lp3837
Vanupallavi
p3838
aS'is a'
p3839
aVverse
p3840
aa(lp3841
Vanupallavi
p3842
aS'is a'
p3843
aVoptional verse
p3844
aa(lp3845
Vcharanam
p3846
aVfollow
p3847
aVanupallavus
p3848
aa(lp3849
g3846
ag3847
aVpallavus
p3850
aa(lp3851
Vjanya
p3852
aS'a type of'
p3853
aVragam
p3854
aa(lp3855
Vmelakarta
p3856
aS'a type of'
p3857
aVscale
p3858
aa(lp3859
Vharikambhoji
p3860
aS'a type of'
p3861
aVragam
p3862
aa(lp3863
Vjanya
p3864
aS'a type of'
p3865
aVscale
p3866
aa(lp3867
Vlalgudi vijayalakshmi
p3868
aS'is a'
p3869
aVviolinist
p3870
aa(lp3871
Vlalgudi vijayalakshmi
p3872
aVviolinist 's
p3873
aVwell-known carnatic
p3874
aa(lp3875
Vlalgudi vijayalakshmi
p3876
aVbear to
p3877
aVlalgudi_jayaraman
p3878
aa(lp3879
Vlalgudi vijayalakshmi
p3880
aVbear to
p3881
aVviolin maestro
p3882
aa(lp3883
Vlalgudi vijayalakshmi
p3884
aVbear in
p3885
aVchennai
p3886
aa(lp3887
Vlalgudi vijayalakshmi
p3888
aVdebut in
p3889
aV1979
p3890
aa(lp3891
Vsangeetha kalasarathy
p3892
aS'is a'
p3893
aVtitle
p3894
aa(lp3895
Vsangeetha kalasarathy
p3896
aVaward by
p3897
aVexpert
p3898
aa(lp3899
Vjalarnavam
p3900
aS'is a'
p3901
aVragam
p3902
aa(lp3903
Vjalarnavam
p3904
aVragam in
p3905
aVmusic
p3906
aa(lp3907
Vmelakarta
p3908
aS'a type of'
p3909
aVsystem
p3910
aa(lp3911
Vmelakarta
p3912
aS'a type of'
p3913
aVragam
p3914
aa(lp3915
Vjanya
p3916
aS'a type of'
p3917
aVragam
p3918
aa(lp3919
Vjalarnavam
p3920
aVhave
p3921
aVminor ragam
p3922
aa(lp3923
Vnatabhairavi
p3924
aVragam in
p3925
aVmusic
p3926
aa(lp3927
Vnatabhairavi
p3928
aS'is a'
p3929
aVragam
p3930
aa(lp3931
Vmelakarta
p3932
aS'a type of'
p3933
aVsystem
p3934
aa(lp3935
g3932
aS'a type of'
p3936
aVragam
p3937
aa(lp3938
Vnatabhairavi
p3939
aVcorrespond to
p3940
aVthaat
p3941
aa(lp3942
Vnatabhairavi
p3943
aVbe
p3944
aVragam
p3945
aa(lp3946
Vvenkatamakhin
p3947
aVcompile
p3948
aVoriginal list
p3949
aa(lp3950
Vmuthuswami dikshitar
p3951
ag987
aVcomposition sri_neelotpalanayike
p3952
aa(lp3953
Vvenkatamakhin
p3954
aS'is a'
p3955
aVson
p3956
aa(lp3957
Vvenkatamakhin
p3958
aVson of
p3959
aVkannada_brahmin
p3960
aa(lp3961
Vvenkatamakhin
p3962
aVson of
p3963
aVgovinda_dikshita
p3964
aa(lp3965
Vvenkatamakhin
p3966
aVreceive
p3967
aVformal training
p3968
aa(lp3969
Vmelakarta
p3970
aS'a type of'
p3971
aVragam
p3972
aa(lp3973
g3970
aS'a type of'
p3974
aVsystem
p3975
aa(lp3976
Vmelakarta
p3977
aS'a type of'
p3978
aVragam
p3979
aa(lp3980
Vmelakarta
p3981
aS'a type of'
p3982
aVscale
p3983
aa(lp3984
Vjanya
p3985
aS'a type of'
p3986
aVragam
p3987
aa(lp3988
Vshamalangi
p3989
aVhave
p3990
aVcouple
p3991
aa(lp3992
Vsivamani
p3993
aS'is a'
p3994
aVson
p3995
aa(lp3996
Vsivamani
p3997
aVson of
p3998
aVs._m._anandan
p3999
aa(lp4000
Vsivamani
p4001
aVshift to
p4002
aVmumbai
p4003
aa(lp4004
Vsivamani
p4005
aVstart
p4006
aVhis career
p4007
aa(lp4008
Vsivamani
p4009
aVcollaborate with
p4010
aVseveral musician
p4011
aa(lp4012
Vsivamani
p4013
aVplay
p4014
aVdrum
p4015
aa(lp4016
Vsivamani
p4017
aVhail from
p4018
aVtamil_nadu
p4019
aa(lp4020
Vsivamani
p4021
aVperform in
p4022
aVdubai
p4023
aa(lp4024
Vsivamani
p4025
aS'is a'
p4026
aVrecipient
p4027
aa(lp4028
Vsivamani
p4029
aVrecipient of
p4030
aVaward
p4031
aa(lp4032
Vmridangam
p4033
aS'a type of'
p4034
aVplayer
p4035
aa(lp4036
Vkalpanaswaram
p4037
aVkalpanaswaram of
p4038
aVraga
p4039
aa(lp4040
Vniraval
p4041
aS'a type of'
p4042
aVkalpanaswaram
p4043
aa(lp4044
Vrama ravi
p4045
aS'is a'
p4046
aVrecipient
p4047
aa(lp4048
Vrama ravi
p4049
aS'is a'
p4050
aVcarnatic vocalist
p4051
aa(lp4052
Vrama ravi
p4053
aS'is a'
p4054
aVcarnatic recipient
p4055
aa(lp4056
Vrama ravi
p4057
aS'is a'
p4058
aVvocalist
p4059
aa(lp4060
Vrama ravi
p4061
aVvocalist of
p4062
aVaward
p4063
aa(lp4064
Vrama ravi
p4065
aVbear to
p4066
aVm.r._subramania_iyer
p4067
aa(lp4068
Vrama ravi
p4069
aVbear to
p4070
aVthulasi
p4071
aa(lp4072
Vrama ravi
p4073
aVbear on
p4074
aV12_february_1943
p4075
aa(lp4076
Vrama ravi
p4077
aVbear in
p4078
aVchennai
p4079
aa(lp4080
Vjanya
p4081
aS'a type of'
p4082
aVragam
p4083
aa(lp4084
Vvyasatirtha
p4085
aVnot have
p4086
aVtime
p4087
aa(lp4088
Vvyasatirtha
p4089
aVstudy for
p4090
aVseveral year
p4091
aa(lp4092
Vvyasatirtha
p4093
aVsee
p4094
aVtime
p4095
aa(lp4096
Vvyasatirtha
p4097
aVfounder of
p4098
aVsystem
p4099
aa(lp4100
Vvyasatirtha
p4101
aS'is a'
p4102
aVsecond founder
p4103
aa(lp4104
Vvyasatirtha
p4105
aS'is a'
p4106
aVfounder
p4107
aa(lp4108
Vvyasatirtha
p4109
aVpsalmist in
p4110
aVkannada
p4111
aa(lp4112
Vvyasatirtha
p4113
aVcompose
p4114
aVmany song
p4115
aa(lp4116
Vvyasatirtha
p4117
aS'is a'
p4118
aVpsalmist
p4119
aa(lp4120
Vvyasatirtha
p4121
aVup to
p4122
aVdate
p4123
aa(lp4124
Vvyasatirtha
p4125
aVundertake
p4126
aVexamination
p4127
aa(lp4128
Vnamanarayani
p4129
aS'is a'
p4130
aVragam
p4131
aa(lp4132
Vnamanarayani
p4133
aVragam in
p4134
aVmusic
p4135
aa(lp4136
Vmelakarta
p4137
aS'a type of'
p4138
aVsystem
p4139
aa(lp4140
Vmelakarta
p4141
aS'a type of'
p4142
aVragam
p4143
aa(lp4144
Vnamanarayani
p4145
aVhave
p4146
aVfew scale
p4147
aa(lp4148
Vdevagandhari
p4149
aVraga in
p4150
aVindian music
p4151
aa(lp4152
Vdevagandhari
p4153
aS'is a'
p4154
aVraga
p4155
aa(lp4156
Varabhi
p4157
aVraga to
p4158
aVone
p4159
aa(lp4160
Varabhi
p4161
aS'is a'
p4162
aVclosest raga
p4163
aa(lp4164
Varabhi
p4165
aS'is a'
p4166
aVraga
p4167
aa(lp4168
Vdevagandhari
p4169
aS'is a'
p4170
aVraginus
p4171
aa(lp4172
Vdevagandhari
p4173
aVraginus of
p4174
aVmalkaunsa
p4175
aa(lp4176
Vvenu
p4177
aVassociate with
p4178
aVgod krishna
p4179
aa(lp4180
Vkanjira
p4181
aS'a type of'
p4182
aVperformer
p4183
aa(lp4184
Vthavil
p4185
aVconsist of
p4186
aVcylindrical shell
p4187
aa(lp4188
Vjanya
p4189
aS'a type of'
p4190
aVraga
p4191
aa(lp4192
Vmelakarta
p4193
aS'a type of'
p4194
aVraga
p4195
aa(lp4196
Vgangeyabhushani
p4197
aS'is a'
p4198
aVragam
p4199
aa(lp4200
Vgangeyabhushani
p4201
aVragam in
p4202
aVmusic
p4203
aa(lp4204
Vmelakarta
p4205
aS'a type of'
p4206
aVsystem
p4207
aa(lp4208
Vmelakarta
p4209
aS'a type of'
p4210
aVragam
p4211
aa(lp4212
Vgangeyabhushani
p4213
aVhave
p4214
aVjanya
p4215
aa(lp4216
g4215
aVassociate with
p4217
aVit
p4218
aa(lp4219
Vmelakarta
p4220
aS'a type of'
p4221
aVsystem
p4222
aa(lp4223
Vmelakarta
p4224
aS'a type of'
p4225
aVragam
p4226
aa(lp4227
Vjanya
p4228
aS'a type of'
p4229
aVragam
p4230
aa(lp4231
Vjanya
p4232
aS'a type of'
p4233
aVragam
p4234
aa(lp4235
Vjanya
p4236
aVjanya of
p4237
aVmelakarta th natabhairavi
p4238
aa(lp4239
Vsaraswati veena
p4240
aVdevelop from
p4241
aVkinnari_veena
p4242
aa(lp4243
Vkonnakol
p4244
aS'a type of'
p4245
aVuseful
p4246
aa(lp4247
Vkonnakol
p4248
aS'a type of'
p4249
aVvirtuoso
p4250
aa(lp4251
Vkonnakol
p4252
aS'a type of'
p4253
aVsinging
p4254
aa(lp4255
Vnandini muthuswamy
p4256
aS'is a'
p4257
aVviolinist
p4258
aa(lp4259
Vnandini muthuswamy
p4260
aS'is a'
p4261
aVcarnatic violinist
p4262
aa(lp4263
Vnandini muthuswamy
p4264
aVviolinist from
p4265
aVsouth_india
p4266
aa(lp4267
Vmridangam
p4268
aS'a type of'
p4269
aVplayer
p4270
aa(lp4271
Vrasikapriya
p4272
aS'is a'
p4273
aVragam
p4274
aa(lp4275
Vrasikapriya
p4276
aVragam in
p4277
aVmusic
p4278
aa(lp4279
Vmelakarta
p4280
aS'a type of'
p4281
aVsystem
p4282
aa(lp4283
g4280
aS'a type of'
p4284
aVragam
p4285
aa(lp4286
Vmelakarta
p4287
aS'a type of'
p4288
aVragam
p4289
aa(lp4290
Vjanya
p4291
aS'a type of'
p4292
aVragam
p4293
aa(lp4294
Vrasikapriya
p4295
aVhave
p4296
aVminor ragam
p4297
aa(lp4298
Vmridangam
p4299
aS'a type of'
p4300
aVartiste
p4301
aa(lp4302
Vdarbari kanada
p4303
aVresemble
p4304
aVragam
p4305
aa(lp4306
Vvarnam
p4307
aVvarnam 's
p4308
aVtana
p4309
aa(lp4310
Vabheri
p4311
aVraga in
p4312
aVmusic
p4313
aa(lp4314
Vabheri
p4315
aS'is a'
p4316
aVraga
p4317
aa(lp4318
Vkharaharapriya
p4319
aVraga 's
p4320
aVmelakarta
p4321
aa(lp4322
Vkharaharapriya
p4323
aVnd in
p4324
aVraga system
p4325
aa(lp4326
Vkharaharapriya
p4327
aS'is a'
p4328
aVraga
p4329
aa(lp4330
Vkharaharapriya
p4331
aS'is a'
p4332
aVnd
p4333
aa(lp4334
Vabheri
p4335
aS'is a'
p4336
aVraga
p4337
aa(lp4338
Vabheri
p4339
aS'is a'
p4340
aVaudava-sampoorna raga
p4341
aa(lp4342
Vmuthuswami dikshitar
p4343
aVcompose
p4344
aVveenabheri
p4345
aa(lp4346
Vgambhiranata
p4347
aVraga in
p4348
aVmusic
p4349
aa(lp4350
Vgambhiranata
p4351
aS'is a'
p4352
aVraga
p4353
aa(lp4354
Vjanya
p4355
aS'a type of'
p4356
aVraga
p4357
aa(lp4358
Vgambhiranata
p4359
aVknow as
p4360
aVshuddha_nata
p4361
aa(lp4362
Vgambhiranata
p4363
aVnot contain
p4364
aVdhaivatam
p4365
aa(lp4366
Vgambhiranata
p4367
ag4364
aVrishabham
p4368
aa(lp4369
Vgambhiranata
p4370
aS'is a'
p4371
aVsymmetric raga
p4372
aa(lp4373
Vgambhiranata
p4374
aS'is a'
p4375
aVraga
p4376
aa(lp4377
Vsalagam
p4378
aS'is a'
p4379
aVragam
p4380
aa(lp4381
Vsalagam
p4382
aVragam in
p4383
aVmusic
p4384
aa(lp4385
Vmelakarta
p4386
aS'a type of'
p4387
aVragam
p4388
aa(lp4389
g4386
aS'a type of'
p4390
aVsystem
p4391
aa(lp4392
Vmelakarta
p4393
aS'a type of'
p4394
aVragam
p4395
aa(lp4396
Vsalagam
p4397
aS'is a'
p4398
aVmelakarta ragam
p4399
aa(lp4400
Vsalagam
p4401
aS'is a'
p4402
aVragam
p4403
aa(lp4404
Vkanakangi
p4405
aS'is a'
p4406
aVmelakarta
p4407
aa(lp4408
Vkanakangi
p4409
aS'is a'
p4410
aVfirst melakarta
p4411
aa(lp4412
Vjanya
p4413
aS'a type of'
p4414
aVragam
p4415
aa(lp4416
Vsalagam
p4417
aVhave
p4418
aVminor ragam
p4419
aa(lp4420
Vkalyanavasantam
p4421
aS'is a'
p4422
aVragam
p4423
aa(lp4424
Vkalyanavasantam
p4425
aVragam in
p4426
aVmusic
p4427
aa(lp4428
Vmelakarta
p4429
aS'a type of'
p4430
aVscale
p4431
aa(lp4432
Vjanya
p4433
aS'a type of'
p4434
aVragam
p4435
aa(lp4436
Vkeeravani
p4437
aS'a type of'
p4438
aVragam
p4439
aa(lp4440
Vjanya
p4441
aS'a type of'
p4442
aVscale
p4443
aa(lp4444
Vkeeravani
p4445
aS'a type of'
p4446
aVcombination
p4447
aa(lp4448
Vkalyanavasantam
p4449
aS'is a'
p4450
aVasymmetric ragam
p4451
aa(lp4452
Vkalyanavasantam
p4453
aS'is a'
p4454
aVragam
p4455
aa(lp4456
Vkalyanavasantam
p4457
aVnot contain
p4458
aVpanchamam
p4459
aa(lp4460
Vkalyanavasantam
p4461
ag4458
aVrishabham
p4462
aa(lp4463
Vgraha bhedam
p4464
aVapply on
p4465
aVragam
p4466
aa(lp4467
Vgraha bhedam
p4468
aVyield
p4469
aVragam
p4470
aa(lp4471
Vvarunapriya
p4472
aS'is a'
p4473
aVderivative
p4474
aa(lp4475
Vvarunapriya
p4476
aS'is a'
p4477
aVvice-versa
p4478
aa(lp4479
Vvarunapriya
p4480
aVderivative of
p4481
aVragavardhini
p4482
aa(lp4483
Vvarunapriya
p4484
aVderivative 's
p4485
aVgraha bhedam
p4486
aa(lp4487
Vmararanjani
p4488
aVderivative of
p4489
aVvanaspati
p4490
aa(lp4491
Vmararanjani
p4492
aVderivative 's
p4493
aVgraha bhedam
p4494
aa(lp4495
Vmararanjani
p4496
aS'is a'
p4497
aVderivative
p4498
aa(lp4499
Vmararanjani
p4500
aS'is a'
p4501
aVvice-versa
p4502
aa(lp4503
Vkantamani
p4504
aVderivative of
p4505
aVmanavati
p4506
aa(lp4507
Vkantamani
p4508
aVderivative 's
p4509
aVgraha bhedam
p4510
aa(lp4511
Vkantamani
p4512
aS'is a'
p4513
aVderivative
p4514
aa(lp4515
Vkantamani
p4516
aS'is a'
p4517
aVvice-versa
p4518
aa(lp4519
Vrishabhapriya
p4520
aS'is a'
p4521
aVderivative
p4522
aa(lp4523
Vrishabhapriya
p4524
aS'is a'
p4525
aVvice-versa
p4526
aa(lp4527
Vrishabhapriya
p4528
aVderivative of
p4529
aVkokilapriya
p4530
aa(lp4531
Vrishabhapriya
p4532
aVderivative 's
p4533
aVgraha bhedam
p4534
aa(lp4535
Vdhatuvardani
p4536
aS'is a'
p4537
aVderivative
p4538
aa(lp4539
Vdhatuvardani
p4540
aS'is a'
p4541
aVvice-versa
p4542
aa(lp4543
Vdhatuvardani
p4544
aVderivative of
p4545
aVgayakapriya
p4546
aa(lp4547
Vdhatuvardani
p4548
aVderivative 's
p4549
aVgraha bhedam
p4550
aa(lp4551
Vgavambhodi
p4552
aS'is a'
p4553
aVderivative
p4554
aa(lp4555
Vgavambhodi
p4556
aS'is a'
p4557
aVvice-versa
p4558
aa(lp4559
Vgavambhodi
p4560
aVderivative of
p4561
aVhatakambari
p4562
aa(lp4563
Vgavambhodi
p4564
aVderivative 's
p4565
aVgraha bhedam
p4566
aa(lp4567
Vneetimati
p4568
aVderivative of
p4569
aVgangeyabhooshani
p4570
aa(lp4571
Vneetimati
p4572
aS'is a'
p4573
aVgraha derivative
p4574
aa(lp4575
Vneetimati
p4576
aS'is a'
p4577
aVderivative
p4578
aa(lp4579
Vneetimati
p4580
aS'is a'
p4581
aVvice-versa
p4582
aa(lp4583
Vneetimati
p4584
aS'is a'
p4585
aVbhedam derivative
p4586
aa(lp4587
Vshubhapantuvarali
p4588
aVderivative of
p4589
aVchalanata
p4590
aa(lp4591
Vshubhapantuvarali
p4592
aS'is a'
p4593
aVgraha derivative
p4594
aa(lp4595
Vshubhapantuvarali
p4596
aS'is a'
p4597
aVderivative
p4598
aa(lp4599
Vshubhapantuvarali
p4600
aS'is a'
p4601
aVvice-versa
p4602
aa(lp4603
Vshubhapantuvarali
p4604
aS'is a'
p4605
aVbhedam derivative
p4606
aa(lp4607
Vjanya
p4608
aS'a type of'
p4609
aVragam
p4610
aa(lp4611
Valapana
p4612
aS'is a'
p4613
aVform
p4614
aa(lp4615
Valapana
p4616
aVform of
p4617
aVmelodic improvisation
p4618
aa(lp4619
Valapana
p4620
aVdevelop
p4621
aVraga
p4622
aa(lp4623
Valapana
p4624
aVmean
p4625
aVcommunicate
p4626
aa(lp4627
Valapana
p4628
aVprecede
p4629
aVsong
p4630
aa(lp4631
Valapana
p4632
aVrender with
p4633
aVgradual increase
p4634
aa(lp4635
Valapana
p4636
aVrender in
p4637
aVdifferent speed
p4638
aa(lp4639
Valapana
p4640
aVtake
p4641
aVcenter stage
p4642
aa(lp4643
Vchembai
p4644
aVstay at
p4645
aVtheir house
p4646
aa(lp4647
Vmridangam
p4648
aS'a type of'
p4649
aVpractice
p4650
aa(lp4651
Vvyasatirtha
p4652
aVcompose
p4653
aVit
p4654
aa(lp4655
Verode nagaraj
p4656
aVplayer of
p4657
aVinstrument
p4658
aa(lp4659
Verode nagaraj
p4660
aS'is a'
p4661
aVplayer
p4662
aa(lp4663
Verode nagaraj
p4664
aS'is a'
p4665
aVprofessional player
p4666
aa(lp4667
Vkharaharapriya
p4668
aS'is a'
p4669
aVragam
p4670
aa(lp4671
Vkharaharapriya
p4672
aVragam in
p4673
aVmusic
p4674
aa(lp4675
Vmelakarta
p4676
aS'a type of'
p4677
aVsystem
p4678
aa(lp4679
g4676
aS'a type of'
p4680
aVragam
p4681
aa(lp4682
Vkharaharapriya
p4683
aVbring
p4684
aVrasam
p4685
aa(lp4686
Vkharaharapriya
p4687
ag4684
aVdistinct melody
p4688
aa(lp4689
Vkharaharapriya
p4690
aVinvoke
p4691
aVpathos
p4692
aa(lp4693
Vmelakarta
p4694
aS'a type of'
p4695
aVscale
p4696
aa(lp4697
Vjanya
p4698
aS'a type of'
p4699
aVragam
p4700
aa(lp4701
Vjanya
p4702
aS'a type of'
p4703
aVragam
p4704
aa(lp4705
Vjanya
p4706
aS'a type of'
p4707
aVragam
p4708
aa(lp4709
Vmridangam
p4710
aS'a type of'
p4711
aVplayer
p4712
aa(lp4713
Vmridangam
p4714
aVmridangam from
p4715
aVmridanga father vidwan muthukulam_s._kumara_pillai
p4716
aa(lp4717
Vmridangam
p4718
aS'a type of'
p4719
aVdepartment
p4720
aa(lp4721
Vratnangi
p4722
aVragam in
p4723
aVmusic
p4724
aa(lp4725
Vratnangi
p4726
aS'is a'
p4727
aVragam
p4728
aa(lp4729
Vmelakarta
p4730
aS'a type of'
p4731
aVragam
p4732
aa(lp4733
g4730
aS'a type of'
p4734
aVsystem
p4735
aa(lp4736
Vmelakarta
p4737
aS'a type of'
p4738
aVragam
p4739
aa(lp4740
Vmelakarta
p4741
aS'a type of'
p4742
aVscale
p4743
aa(lp4744
Vvenkatamakhin
p4745
aVcompile
p4746
aVoriginal list
p4747
aa(lp4748
Vratnangi
p4749
aVhave
p4750
aVminor ragam
p4751
aa(lp4752
Vjanya
p4753
aS'a type of'
p4754
aVragam
p4755
aa(lp4756
Vjanya
p4757
aS'a type of'
p4758
aVraga
p4759
aa(lp4760
Vnattakurinji
p4761
aS'is a'
p4762
aVraga
p4763
aa(lp4764
Vnattakurinji
p4765
aS'is a'
p4766
aVjanya raga
p4767
aa(lp4768
Vnattakurinji
p4769
aVraga of
p4770
aV26
p4771
aa(lp4772
Vmelakarta
p4773
aS'a type of'
p4774
aVharikambhojus
p4775
aa(lp4776
Vjanya
p4777
aS'a type of'
p4778
aVraga
p4779
aa(lp4780
Vpurandara dasa
p4781
aVsystematize
p4782
aVmethod
p4783
aa(lp4784
Vpurandara dasa
p4785
aS'is a'
p4786
aVfirst composer
p4787
aa(lp4788
Vpurandara dasa
p4789
aS'is a'
p4790
aVcomposer
p4791
aa(lp4792
Vpurandara dasa
p4793
aVinclude
p4794
aVcomment
p4795
aa(lp4796
Vpurandara dasa
p4797
aS'is a'
p4798
aVvaggeyakara
p4799
aa(lp4800
Vpurandara dasa
p4801
aVhave
p4802
aVgreat influence
p4803
aa(lp4804
Vpurandara dasa
p4805
aVexplain
p4806
aVessence
p4807
aa(lp4808
Vpurandara dasa
p4809
aVfight
p4810
aVevil
p4811
aa(lp4812
Vpurandara dasa
p4813
aVmake
p4814
aVforceful expression
p4815
aa(lp4816
Vpurandara dasa
p4817
aVexpress
p4818
aVtheir feeling
p4819
aa(lp4820
Vpurandara dasa
p4821
ag4818
aVtheir feeling
p4822
aa(lp4823
Vnatakapriya
p4824
aS'is a'
p4825
aVragam
p4826
aa(lp4827
Vnatakapriya
p4828
aVragam in
p4829
aVmusic
p4830
aa(lp4831
Vmelakarta
p4832
aS'a type of'
p4833
aVsystem
p4834
aa(lp4835
g4832
aS'a type of'
p4836
aVragam
p4837
aa(lp4838
Vmelakarta
p4839
aS'a type of'
p4840
aVragam
p4841
aa(lp4842
Vmelakarta
p4843
aS'a type of'
p4844
aVragam
p4845
aa(lp4846
Vnatakapriya
p4847
aVequivalent of
p4848
aVshadvidamargini
p4849
aa(lp4850
Vnatakapriya
p4851
aS'is a'
p4852
aVequivalent
p4853
aa(lp4854
Vnatakapriya
p4855
aS'is a'
p4856
aVmadhyamam equivalent
p4857
aa(lp4858
Vnatakapriya
p4859
aS'is a'
p4860
aVshuddha equivalent
p4861
aa(lp4862
Vvenkatamakhin
p4863
aVcompile
p4864
aVoriginal list
p4865
aa(lp4866
Vjanya
p4867
aS'a type of'
p4868
aVragam
p4869
aa(lp4870
Vtiruvottriyur tyagayyar
p4871
aS'is a'
p4872
aVcarnatic composer
p4873
aa(lp4874
Vtiruvottriyur tyagayyar
p4875
aS'is a'
p4876
aVmusic composer
p4877
aa(lp4878
Vtiruvottriyur tyagayyar
p4879
aS'is a'
p4880
aVcomposer
p4881
aa(lp4882
Vmysore vasudevachar
p4883
aVadmirer of
p4884
aVhis music
p4885
aa(lp4886
Vmysore vasudevachar
p4887
aS'is a'
p4888
aVgreat admirer
p4889
aa(lp4890
Vmysore vasudevachar
p4891
aS'is a'
p4892
aVadmirer
p4893
aa(lp4894
Vsucharitra
p4895
aVragam in
p4896
aVmusic
p4897
aa(lp4898
Vsucharitra
p4899
aS'is a'
p4900
aVragam
p4901
aa(lp4902
Vmelakarta
p4903
aS'a type of'
p4904
aVragam
p4905
aa(lp4906
g4903
aS'a type of'
p4907
aVsystem
p4908
aa(lp4909
Vsucharitra
p4910
aVbe
p4911
aVmelakarta ragam
p4912
aa(lp4913
Vmelakarta
p4914
aS'a type of'
p4915
aVragam
p4916
aa(lp4917
Vsucharitra
p4918
aS'is a'
p4919
aVsampoorna ragam
p4920
aa(lp4921
Vsucharitra
p4922
aS'is a'
p4923
aVragam
p4924
aa(lp4925
Vmelakarta
p4926
aS'a type of'
p4927
aVscale
p4928
aa(lp4929
Vsucharitra
p4930
aVhave
p4931
aVjanya ragam
p4932
aa(lp4933
Vjanya
p4934
aS'a type of'
p4935
aVragam
p4936
aa(lp4937
Vmelakarta
p4938
aS'a type of'
p4939
aVragam
p4940
aa(lp4941
Vannamacharya
p4942
aVof
p4943
aVth century
p4944
aa(lp4945
Vannamacharya
p4946
aVregard as
p4947
aVfirst vaggeyakara
p4948
aa(lp4949
Vmridangam
p4950
aS'a type of'
p4951
aVplayer
p4952
aa(lp4953
Vmelakarta
p4954
aS'a type of'
p4955
aVraga
p4956
aa(lp4957
Vmelakarta
p4958
aS'a type of'
p4959
aVraga
p4960
aa(lp4961
Vmelakarta
p4962
aS'a type of'
p4963
aVraga
p4964
aa(lp4965
Vcharulatha mani
p4966
aVhave
p4967
aVhuge fan
p4968
aa(lp4969
Vcharulatha mani
p4970
aS'is a'
p4971
aVmusic vocalist
p4972
aa(lp4973
Vcharulatha mani
p4974
aS'is a'
p4975
aVvocalist
p4976
aa(lp4977
Vcharulatha mani
p4978
aS'is a'
p4979
aVlead vocalist
p4980
aa(lp4981
Vcharulatha mani
p4982
aS'is a'
p4983
aVcarnatic vocalist
p4984
aa(lp4985
Vcharulatha mani
p4986
aVperform over
p4987
aVindia
p4988
aa(lp4989
Vcharulatha mani
p4990
aVperform in
p4991
aVmajor sabha
p4992
aa(lp4993
Vavaneeswaram s r vinu
p4994
aVbear to
p4995
aVsahithi_devi
p4996
aa(lp4997
Vavaneeswaram s r vinu
p4998
aVbear to
p4999
aVramachandran avaneeswaram
p5000
aa(lp5001
Vavaneeswaram s r vinu
p5002
aVbear in
p5003
aVtrivandrum
p5004
aa(lp5005
Vavaneeswaram s r vinu
p5006
aVbear in
p5007
aVkerala
p5008
aa(lp5009
Vtyagaraja
p5010
aVfollow in
p5011
aVsong
p5012
aa(lp5013
Vkokilapriya
p5014
aS'is a'
p5015
aVragam
p5016
aa(lp5017
Vkokilapriya
p5018
aVragam in
p5019
aVmusic
p5020
aa(lp5021
Vmelakarta
p5022
aS'a type of'
p5023
aVsystem
p5024
aa(lp5025
Vmelakarta
p5026
aS'a type of'
p5027
aVragam
p5028
aa(lp5029
Vvenkatamakhin
p5030
aVcompile
p5031
aVoriginal list
p5032
aa(lp5033
Vjanya
p5034
aS'a type of'
p5035
aVragam
p5036
aa(lp5037
Vkokilapriya
p5038
aVhave
p5039
aVminor ragam
p5040
aa(lp5041
Vmuthuswami dikshitar
p5042
ag987
aVcomposition kodandarama
p5043
aa(lp5044
Vtyagaraja aradhana
p5045
aVfestival 's
p5046
aVannual carnatic
p5047
aa(lp5048
Vtyagaraja aradhana
p5049
aVhold in
p5050
aVjanuary
p5051
aa(lp5052
Vtyagaraja aradhana
p5053
aVhold in
p5054
aVfebruary
p5055
aa(lp5056
Vtyagaraja aradhana
p5057
aS'is a'
p5058
aVfestival
p5059
aa(lp5060
Vtyagaraja aradhana
p5061
aS'is a'
p5062
aVmusic festival
p5063
aa(lp5064
Vnadaswaram
p5065
aS'a type of'
p5066
aVperformance
p5067
aa(lp5068
Vcleveland thyagaraja aradhana
p5069
aVbe in
p5070
aVus
p5071
aa(lp5072
Vcleveland thyagaraja aradhana
p5073
aVhold in
p5074
aVcleveland
p5075
aa(lp5076
Vcleveland thyagaraja aradhana
p5077
aVhold in
p5078
aVohio
p5079
aa(lp5080
Vneetimati
p5081
aS'is a'
p5082
aVragam
p5083
aa(lp5084
Vneetimati
p5085
aVragam in
p5086
aVmusic
p5087
aa(lp5088
Vmelakarta
p5089
aS'a type of'
p5090
aVragam
p5091
aa(lp5092
g5089
aS'a type of'
p5093
aVsystem
p5094
aa(lp5095
Vmelakarta
p5096
aS'a type of'
p5097
aVragam
p5098
aa(lp5099
Vmelakarta
p5100
aS'a type of'
p5101
aVragam
p5102
aa(lp5103
Vneetimati
p5104
aVhave
p5105
aVjanya ragam
p5106
aa(lp5107
Vjanya
p5108
aS'a type of'
p5109
aVragam
p5110
aa(lp5111
Vnaganandini
p5112
aVragam in
p5113
aVmusic
p5114
aa(lp5115
Vnaganandini
p5116
aS'is a'
p5117
aVragam
p5118
aa(lp5119
Vmelakarta
p5120
aS'a type of'
p5121
aVsystem
p5122
aa(lp5123
Vmelakarta
p5124
aS'a type of'
p5125
aVragam
p5126
aa(lp5127
Vchitrambari
p5128
aS'is a'
p5129
aVth melakarta
p5130
aa(lp5131
Vchitrambari
p5132
aS'is a'
p5133
aVmelakarta
p5134
aa(lp5135
Vjanya
p5136
aS'a type of'
p5137
aVragam
p5138
aa(lp5139
Vnaganandini
p5140
aVhave
p5141
aVminor ragam
p5142
aa(lp5143
Vchowdiah
p5144
aVbear on
p5145
aVbank
p5146
aa(lp5147
Vchowdiah
p5148
aVbear near
p5149
aVmysore
p5150
aa(lp5151
Vchowdiah
p5152
aVbear in
p5153
aVvillage
p5154
aa(lp5155
Vchowdiah
p5156
aVrealize
p5157
aVshortcoming
p5158
aa(lp5159
Vchowdiah
p5160
aVincrease
p5161
aVsound
p5162
aa(lp5163
Vchowdiah
p5164
aVbring about
p5165
aVrevolution
p5166
aa(lp5167
Vchowdiah
p5168
aVbecome
p5169
aVgreat violinist
p5170
aa(lp5171
Vchowdiah
p5172
aVhave
p5173
aVmany disciple
p5174
aa(lp5175
Vchowdiah
p5176
aVdesign
p5177
aVseven-stringed violin
p5178
aa(lp5179
Vchowdiah
p5180
aVcompose
p5181
aVmany varna
p5182
aa(lp5183
Vnavagraha kritis
p5184
aS'is a'
p5185
aVset
p5186
aa(lp5187
Vnavagraha kritis
p5188
aVset of
p5189
aV9
p5190
aa(lp5191
Vtanarupi
p5192
aS'is a'
p5193
aVragam
p5194
aa(lp5195
Vtanarupi
p5196
aVragam in
p5197
aVmusic
p5198
aa(lp5199
Vmelakarta
p5200
aS'a type of'
p5201
aVragam
p5202
aa(lp5203
g5200
aS'a type of'
p5204
aVsystem
p5205
aa(lp5206
Vmelakarta
p5207
aS'a type of'
p5208
aVragam
p5209
aa(lp5210
Vmelakarta
p5211
aS'a type of'
p5212
aVragam
p5213
aa(lp5214
Vvenkatamakhin
p5215
aVcompile
p5216
aVoriginal list
p5217
aa(lp5218
Vjanya
p5219
aVassociate with
p5220
aVit
p5221
aa(lp5222
Vtanarupi
p5223
aVhave
p5224
ag5219
aa(lp5225
Vnavaragamalika
p5226
aS'is a'
p5227
aVcomposition
p5228
aa(lp5229
Vnavaragamalika
p5230
aVcomposition in
p5231
aVcarnatic music
p5232
aa(lp5233
Vnavaragamalika
p5234
aVuse
p5235
aVcollection
p5236
aa(lp5237
Vnavaragamalika
p5238
aS'is a'
p5239
aVsandhus
p5240
aa(lp5241
Vnavaragamalika
p5242
aVsandhus of
p5243
aVtwo
p5244
aa(lp5245
Vsahityam
p5246
aVsahityam of
p5247
aVsong
p5248
aa(lp5249
Vtyagaraja
p5250
aVfind
p5251
aVnaradeeyam
p5252
aa(lp5253
Vtyagaraja
p5254
aVson of
p5255
aVhis parent
p5256
aa(lp5257
Vtyagaraja
p5258
aS'is a'
p5259
aVthird son
p5260
aa(lp5261
Vtyagaraja
p5262
aS'is a'
p5263
aVson
p5264
aa(lp5265
Vtyagaraja
p5266
aVbegin
p5267
aVmusical training
p5268
aa(lp5269
Vtyagaraja
p5270
aVperform at
p5271
aVhis house
p5272
aa(lp5273
Vtyagaraja
p5274
aVsing
p5275
aVendaro_mahaanubhavulu
p5276
aa(lp5277
Vtyagaraja
p5278
aVattend
p5279
aVroyal court
p5280
aa(lp5281
Vharidasa
p5282
aS'a type of'
p5283
aVmovement
p5284
aa(lp5285
Vvyasatirtha
p5286
aVassociate with
p5287
aVempire
p5288
aa(lp5289
Vjanya
p5290
aS'a type of'
p5291
aVragam
p5292
aa(lp5293
Vannamacharya
p5294
aVlive until
p5295
aVphalguna bahula dvadashi
p5296
aa(lp5297
Vannamacharya
p5298
aVlive for
p5299
aV95
p5300
aa(lp5301
Vannamacharya
p5302
aVlive in
p5303
aVyear dhundhubhi
p5304
aa(lp5305
Vannamacharya
p5306
aVconsider
p5307
aVhis composition
p5308
aa(lp5309
Vshanmukhapriya
p5310
aS'is a'
p5311
aVragam
p5312
aa(lp5313
Vshanmukhapriya
p5314
aVragam in
p5315
aVmusic
p5316
aa(lp5317
Vmelakarta
p5318
aS'a type of'
p5319
aVragam
p5320
aa(lp5321
g5318
aS'a type of'
p5322
aVsystem
p5323
aa(lp5324
Vmelakarta
p5325
aS'a type of'
p5326
aVragam
p5327
aa(lp5328
Vmelakarta
p5329
aS'a type of'
p5330
aVscale
p5331
aa(lp5332
Vjanya
p5333
aS'a type of'
p5334
aVragam
p5335
aa(lp5336
Vshanmukhapriya
p5337
aVhave
p5338
aVminor ragam
p5339
aa(lp5340
Vmridangam
p5341
aS'a type of'
p5342
aVplayer
p5343
aa(lp5344
Vtiger varadachariar
p5345
aVvocalist 's
p5346
aVfamous carnatic
p5347
aa(lp5348
Vtiger varadachariar
p5349
aS'is a'
p5350
aVmusic vocalist
p5351
aa(lp5352
Vtiger varadachariar
p5353
aS'is a'
p5354
aVvocalist
p5355
aa(lp5356
Vtiger varadachariar
p5357
aVhail from
p5358
aVindian state
p5359
aa(lp5360
Vtiger varadachariar
p5361
aVhail from
p5362
aVmusical family
p5363
aa(lp5364
Vmuthuswami dikshitar
p5365
aVcompose
p5366
aVplain note
p5367
aa(lp5368
Vmuthuswami dikshitar
p5369
aVaid
p5370
aVhis master
p5371
aa(lp5372
Vgopalakrishna bharathi
p5373
aVcompose
p5374
aVseveral kritis
p5375
aa(lp5376
Vtyagaraja
p5377
aVcompose
p5378
aVsong
p5379
aa(lp5380
Vnasikabhushani
p5381
aS'is a'
p5382
aVragam
p5383
aa(lp5384
Vnasikabhushani
p5385
aVragam in
p5386
aVmusic
p5387
aa(lp5388
Vmelakarta
p5389
aS'a type of'
p5390
aVsystem
p5391
aa(lp5392
Vnasikabhushani
p5393
aS'is a'
p5394
aVmelakarta ragam
p5395
aa(lp5396
Vnasikabhushani
p5397
aS'is a'
p5398
aVragam
p5399
aa(lp5400
Vmelakarta
p5401
aS'a type of'
p5402
aVragam
p5403
aa(lp5404
Vmelakarta
p5405
aS'a type of'
p5406
aVragam
p5407
aa(lp5408
Vjanya
p5409
aS'a type of'
p5410
aVragam
p5411
aa(lp5412
Vnasikabhushani
p5413
aVhave
p5414
aVcouple
p5415
aa(lp5416
Vveene sheshanna
p5417
aVbear in
p5418
aVmysore
p5419
aa(lp5420
Vveene sheshanna
p5421
aVbear in
p5422
aVfamily
p5423
aa(lp5424
Vveene sheshanna
p5425
aVbear in
p5426
aV1852
p5427
aa(lp5428
Vmuthuswami dikshitar
p5429
aS'is a'
p5430
aVsouth composer
p5431
aa(lp5432
Vmuthuswami dikshitar
p5433
aS'is a'
p5434
aVindian composer
p5435
aa(lp5436
Vmuthuswami dikshitar
p5437
aS'is a'
p5438
aVindian poet
p5439
aa(lp5440
Vmuthuswami dikshitar
p5441
aS'is a'
p5442
aVcomposer
p5443
aa(lp5444
Vmuthuswami dikshitar
p5445
aS'is a'
p5446
aVpoet
p5447
aa(lp5448
Vmuthuswami dikshitar
p5449
aS'is a'
p5450
aVsouth poet
p5451
aa(lp5452
Vmuthuswami dikshitar
p5453
aVof
p5454
aVmusical_trinity_of_carnatic music
p5455
aa(lp5456
Vmuthuswami dikshitar
p5457
aVcompose
p5458
aVmany kritis
p5459
aa(lp5460
Vmuthuswami dikshitar
p5461
aVcompose
p5462
aV13
p5463
aa(lp5464
Vrevathy krishna
p5465
aS'is a'
p5466
aVdaughter
p5467
aa(lp5468
Vrevathy krishna
p5469
aVbear as
p5470
aVrevathy_chelvakumar
p5471
aa(lp5472
Vrevathy krishna
p5473
aVdaughter of
p5474
aVchelvakumar
p5475
aa(lp5476
Vrevathy krishna
p5477
aVdaughter of
p5478
aVlakshmi
p5479
aa(lp5480
Vvyjayanthimala
p5481
aVof
p5482
aVbiggest star
p5483
aa(lp5484
Vvyjayanthimala
p5485
aS'is a'
p5486
aVaccomplished dancer
p5487
aa(lp5488
Vvyjayanthimala
p5489
aS'is a'
p5490
aVdancer
p5491
aa(lp5492
Vvyjayanthimala
p5493
aVappear in
p5494
aVseries
p5495
aa(lp5496
Vvyjayanthimala
p5497
aVof
p5498
aVoldest golfer
p5499
aa(lp5500
Vvyjayanthimala
p5501
aS'is a'
p5502
aVgolfer
p5503
aa(lp5504
Vvyjayanthimala
p5505
aS'is a'
p5506
aVavid golfer
p5507
aa(lp5508
Vvyjayanthimala
p5509
aVdo
p5510
aVguest appearance
p5511
aa(lp5512
Vvyjayanthimala
p5513
aVact with
p5514
aVpradeep_kumar
p5515
aa(lp5516
Vvyjayanthimala
p5517
aVact in
p5518
aVopus nagin
p5519
aa(lp5520
Vvyjayanthimala
p5521
aVact in
p5522
aV1954
p5523
aa(lp5524
Vvyjayanthimala
p5525
aVdebut through
p5526
aVfilm
p5527
aa(lp5528
Vvyjayanthimala
p5529
aVdebut in
p5530
aVcinema
p5531
aa(lp5532
Vvyjayanthimala
p5533
aVact in
p5534
aV1955
p5535
aa(lp5536
Vvyjayanthimala
p5537
aVact in
p5538
aVfilm
p5539
aa(lp5540
Vvyjayanthimala
p5541
aVimbue
p5542
aVchandramukhi
p5543
aa(lp5544
Vvyjayanthimala
p5545
aVplay
p5546
aVgirl
p5547
aa(lp5548
Vvyjayanthimala
p5549
aS'is a'
p5550
aVkus gorus
p5551
aa(lp5552
Vvyjayanthimala
p5553
aS'is a'
p5554
aVaverage gorus
p5555
aa(lp5556
Vvyjayanthimala
p5557
aS'is a'
p5558
aVgaon gorus
p5559
aa(lp5560
Vvyjayanthimala
p5561
aS'is a'
p5562
aVyour gorus
p5563
aa(lp5564
Vvyjayanthimala
p5565
aS'is a'
p5566
aVpetulant gorus
p5567
aa(lp5568
Vvyjayanthimala
p5569
aVplay
p5570
aVlover
p5571
aa(lp5572
Vvyjayanthimala
p5573
aVplay
p5574
aVdevendra
p5575
aa(lp5576
Vvyjayanthimala
p5577
aS'is a'
p5578
aVteam
p5579
aa(lp5580
Vvyjayanthimala
p5581
aVteam 's
p5582
aVdev_anand
p5583
aa(lp5584
Vvyjayanthimala
p5585
aVreunite with
p5586
aVdilip_kumar
p5587
aa(lp5588
Vvyjayanthimala
p5589
aVreunite for
p5590
aVfourth time
p5591
aa(lp5592
Vvyjayanthimala
p5593
aVreunite in
p5594
aV1959
p5595
aa(lp5596
Vvyjayanthimala
p5597
aVsign
p5598
aVdilip_kumar
p5599
aa(lp5600
Vvyjayanthimala
p5601
ag5598
aVsuccessful re-entry
p5602
aa(lp5603
Vvyjayanthimala
p5604
aVwear in
p5605
aVscene
p5606
aa(lp5607
Vvyjayanthimala
p5608
aVaward with
p5609
aVfilmfare award
p5610
aa(lp5611
Vvyjayanthimala
p5612
aVaward for
p5613
aVher performance
p5614
aa(lp5615
Vvyjayanthimala
p5616
aVnot accept
p5617
aVrole
p5618
aa(lp5619
Vvyjayanthimala
p5620
aVre-attain
p5621
aVher success
p5622
aa(lp5623
Vvyjayanthimala
p5624
aVstar in
p5625
aV1966
p5626
aa(lp5627
Vvyjayanthimala
p5628
aVstar in
p5629
aVdo ki dilon dastaan
p5630
aa(lp5631
Vvyjayanthimala
p5632
aVsign after
p5633
aVbox flop
p5634
aa(lp5635
Vvyjayanthimala
p5636
aVrajendra_kumar in
p5637
aVswashbuckler ruritanian romance suraj
p5638
aa(lp5639
Vvyjayanthimala
p5640
aVstar follow
p5641
aVsuraj
p5642
aa(lp5643
Vvyjayanthimala
p5644
aVstar in
p5645
aVhistorical film amrapali
p5646
aa(lp5647
Vvyjayanthimala
p5648
aVturn
p5649
aVfamous role
p5650
aa(lp5651
Vvyjayanthimala
p5652
aS'is a'
p5653
aVsubject
p5654
aa(lp5655
Vvyjayanthimala
p5656
aVsubject of
p5657
aVmany controversy
p5658
aa(lp5659
Vvyjayanthimala
p5660
aVinvolve with
p5661
aVkapoor
p5662
aa(lp5663
Vvyjayanthimala
p5664
aVmarry
p5665
aVhe
p5666
aa(lp5667
Vvyjayanthimala
p5668
aVmarry
p5669
aVchamanlal_bali
p5670
aa(lp5671
Vvivadi
p5672
aS'a type of'
p5673
aVswaram
p5674
aa(lp5675
Vvivadi
p5676
aS'a type of'
p5677
aVswaram
p5678
aa(lp5679
Vchitrambari
p5680
aS'is a'
p5681
aVragam
p5682
aa(lp5683
Vchitrambari
p5684
aVragam in
p5685
aVmusic
p5686
aa(lp5687
Vmelakarta
p5688
aS'a type of'
p5689
aVsystem
p5690
aa(lp5691
Vmelakarta
p5692
aS'a type of'
p5693
aVragam
p5694
aa(lp5695
Vjanya
p5696
aS'a type of'
p5697
aVragam
p5698
aa(lp5699
Vchitrambari
p5700
aVhave
p5701
aVjanya ragam
p5702
aa(lp5703
Vjanya
p5704
aS'a type of'
p5705
aVragam
p5706
aa(lp5707
Vchitrambari
p5708
aS'is a'
p5709
aVother melakarta
p5710
aa(lp5711
Vchitrambari
p5712
aS'is a'
p5713
aVmelakarta
p5714
aa(lp5715
Vchitta swara
p5716
aVset of
p5717
aVsolfa passage
p5718
aa(lp5719
Vharikambhoji
p5720
aS'a type of'
p5721
aVragam
p5722
aa(lp5723
Vjanya
p5724
aS'a type of'
p5725
aVragam
p5726
aa(lp5727
Vmelakarta
p5728
aS'a type of'
p5729
aVscale
p5730
aa(lp5731
Vjanya
p5732
aS'a type of'
p5733
aVscale
p5734
aa(lp5735
Vmadhyamavati
p5736
aS'a type of'
p5737
aVcombination
p5738
aa(lp5739
Vharikambhoji
p5740
aS'a type of'
p5741
aVscale
p5742
aa(lp5743
Vkedaragaula
p5744
aS'is a'
p5745
aVasymmetric ragam
p5746
aa(lp5747
Vkedaragaula
p5748
aS'is a'
p5749
aVragam
p5750
aa(lp5751
Vkedaragaula
p5752
aVnot contain
p5753
aVdhaivatam
p5754
aa(lp5755
Vkedaragaula
p5756
ag5753
aVgandharam
p5757
aa(lp5758
Vjanya
p5759
aS'a type of'
p5760
aVscale
p5761
aa(lp5762
Vsaveri
p5763
aS'a type of'
p5764
aVcombination
p5765
aa(lp5766
Vharikambhoji
p5767
aS'a type of'
p5768
aVscale
p5769
aa(lp5770
Vsaveri
p5771
aS'is a'
p5772
aVshuddha combination
p5773
aa(lp5774
Vyadukulakamboji
p5775
aS'is a'
p5776
aVasymmetric ragam
p5777
aa(lp5778
Vyadukulakamboji
p5779
aS'is a'
p5780
aVragam
p5781
aa(lp5782
Vyadukulakamboji
p5783
aVnot contain
p5784
aVnishadam
p5785
aa(lp5786
Vyadukulakamboji
p5787
ag5784
aVgandharam
p5788
aa(lp5789
Vkalakshetra
p5790
aS'is a'
p5791
aVinstitution
p5792
aa(lp5793
Vkalakshetra
p5794
aS'is a'
p5795
aVart institution
p5796
aa(lp5797
Vkalakshetra
p5798
aS'is a'
p5799
aVnoted institution
p5800
aa(lp5801
Vkalakshetra
p5802
aVinstitution in
p5803
aVchennai
p5804
aa(lp5805
Vchembai
p5806
aVmake
p5807
aVit
p5808
aa(lp5809
Vchembai
p5810
ag5807
aVpractice
p5811
aa(lp5812
Vchembai
p5813
aVsing at
p5814
aVfestival
p5815
aa(lp5816
Vchembai
p5817
aVattend
p5818
aVmusic festival
p5819
aa(lp5820
Vchembai
p5821
ag5818
aVhe
p5822
aa(lp5823
Vchembai
p5824
aVpersuade
p5825
aVartist
p5826
aa(lp5827
Vchembai
p5828
aVknow over
p5829
aVwider area
p5830
aa(lp5831
Vchembai
p5832
aVsecure
p5833
aVsimilar opportunity
p5834
aa(lp5835
Vchembai
p5836
aVrequest
p5837
aVlyer
p5838
aa(lp5839
Vchembai
p5840
aVgo to
p5841
aVernakulam
p5842
aa(lp5843
Vchembai
p5844
aVhear about
p5845
aVsreelasree_ambalavana_desikar
p5846
aa(lp5847
Vviruttam
p5848
aS'a type of'
p5849
aVform
p5850
aa(lp5851
Vchembai
p5852
aVrender
p5853
aVverse kanduka
p5854
aa(lp5855
Vchembai
p5856
aVprompt about
p5857
aVraga
p5858
aa(lp5859
Vchembai
p5860
aVbecome
p5861
aVgood friend
p5862
aa(lp5863
Vchembai
p5864
aVmeet
p5865
aVhe
p5866
aa(lp5867
Vchembai
p5868
aVperform with
p5869
aVchowdiah
p5870
aa(lp5871
Vchembai
p5872
aVperform in
p5873
aVjagannatha_bhakta_sabha
p5874
aa(lp5875
Vchembai
p5876
aVintroduce
p5877
aVyoung palghat_mani_iyer
p5878
aa(lp5879
Vnilavizhi
p5880
aVname for
p5881
aVgirl
p5882
aa(lp5883
Vnilavizhi
p5884
aS'is a'
p5885
aVname
p5886
aa(lp5887
Vjanya
p5888
aS'a type of'
p5889
aVragam
p5890
aa(lp5891
Vmelakarta
p5892
aS'a type of'
p5893
aVscale
p5894
aa(lp5895
Vjanya
p5896
aS'a type of'
p5897
aVscale
p5898
aa(lp5899
Vmohanam
p5900
aS'a type of'
p5901
aVscale
p5902
aa(lp5903
Vgarudadhvani
p5904
aVnot contain
p5905
aVnishadham
p5906
aa(lp5907
Vgarudadhvani
p5908
ag5905
aVmadhyamam
p5909
aa(lp5910
Vgarudadhvani
p5911
aS'is a'
p5912
aVasymmetric ragam
p5913
aa(lp5914
Vgarudadhvani
p5915
aS'is a'
p5916
aVragam
p5917
aa(lp5918
Vneelakanta sivan
p5919
aS'is a'
p5920
aVcomposer
p5921
aa(lp5922
Vneelakanta sivan
p5923
aVcomposer of
p5924
aVmusic
p5925
aa(lp5926
Vsubbarama dikshitar
p5927
aS'is a'
p5928
aVcarnatic composer
p5929
aa(lp5930
Vsubbarama dikshitar
p5931
aS'is a'
p5932
aVmusic composer
p5933
aa(lp5934
Vsubbarama dikshitar
p5935
aS'is a'
p5936
aVcomposer
p5937
aa(lp5938
Vsubbarama dikshitar
p5939
aVdie at
p5940
aVyoung age
p5941
aa(lp5942
Vseetha doraiswamy
p5943
aS'is a'
p5944
aVmulti-instrumentalist
p5945
aa(lp5946
Vseetha doraiswamy
p5947
aVmulti-instrumentalist 's
p5948
aVrenowned carnatic
p5949
aa(lp5950
Vseetha doraiswamy
p5951
aVknow as
p5952
aVmadisaar_maami
p5953
aa(lp5954
Vchakkani rajamargamu
p5955
aS'is a'
p5956
aVkritus
p5957
aa(lp5958
Vchakkani rajamargamu
p5959
aVkritus 's
p5960
aVtelugu
p5961
aa(lp5962
Vchakkani rajamargamu
p5963
aVkritus in
p5964
aVmusic tradition
p5965
aa(lp5966
Vtyagaraja
p5967
aVcompose
p5968
aVit
p5969
aa(lp5970
Vjanya
p5971
aS'a type of'
p5972
aVjatus
p5973
aa(lp5974
Vnadaswaram
p5975
aVcontain
p5976
aVthree
p5977
aa(lp5978
Vharikambhoji
p5979
aVragam in
p5980
aVmusic
p5981
aa(lp5982
Vharikambhoji
p5983
aS'is a'
p5984
aVragam
p5985
aa(lp5986
Vmelakarta
p5987
aS'a type of'
p5988
aVsystem
p5989
aa(lp5990
Vmohanam
p5991
aS'a type of'
p5992
aVscale
p5993
aa(lp5994
Vjanya
p5995
aVjanya of
p5996
aVragam
p5997
aa(lp5998
Vmridangam
p5999
aS'a type of'
p6000
aVplaying
p6001
aa(lp6002
Vcharanam
p6003
aVin
p6004
aVmusic
p6005
aa(lp6006
Vcharanam
p6007
aS'is a'
p6008
aVsection
p6009
aa(lp6010
Vcharanam
p6011
aS'is a'
p6012
aVend section
p6013
aa(lp6014
Vcharanam
p6015
aVsing after
p6016
aVanupallavus
p6017
aa(lp6018
Vcharanam
p6019
aVsection of
p6020
aVcomposition
p6021
aa(lp6022
Varabhi
p6023
aVback to
p6024
aV7
p6025
aa(lp6026
Varabhi
p6027
aS'is a'
p6028
aVraga
p6029
aa(lp6030
Vmelakarta
p6031
aS'a type of'
p6032
aVname
p6033
aa(lp6034
Vsanjukta panigrahi
p6035
aVdancer of
p6036
aVindia
p6037
aa(lp6038
Vsanjukta panigrahi
p6039
aS'is a'
p6040
aVdancer
p6041
aa(lp6042
Vkeeravani
p6043
aVragam in
p6044
aVmusic
p6045
aa(lp6046
Vkeeravani
p6047
aS'is a'
p6048
aVragam
p6049
aa(lp6050
Vmelakarta
p6051
aS'a type of'
p6052
aVsystem
p6053
aa(lp6054
Vmelakarta
p6055
aS'a type of'
p6056
aVragam
p6057
aa(lp6058
Vmelakarta
p6059
aS'a type of'
p6060
aVragam
p6061
aa(lp6062
Vjanya
p6063
aS'a type of'
p6064
aVragam
p6065
aa(lp6066
Vkeeravani
p6067
aVhave
p6068
aVjanya ragam
p6069
aa(lp6070
Vjanya
p6071
aS'a type of'
p6072
aVragam
p6073
aa(lp6074
Vchenda
p6075
aVsuspend from
p6076
aVdrummer neck
p6077
aa(lp6078
Vchenda
p6079
aVhave
p6080
aVtwo
p6081
aa(lp6082
Vchenda
p6083
ag6080
aVleft side
p6084
aa(lp6085
Vchenda
p6086
aVplay as
p6087
aVaccompaniment
p6088
aa(lp6089
Vchenda
p6090
aVplay in
p6091
aVtemple festival
p6092
aa(lp6093
Vchenda
p6094
aVinstrument in
p6095
aVform
p6096
aa(lp6097
Vchenda
p6098
aS'is a'
p6099
aVinstrument
p6100
aa(lp6101
Vchenda
p6102
aS'is a'
p6103
aVmusical instrument
p6104
aa(lp6105
Vchenda
p6106
aS'is a'
p6107
aVunavoidable instrument
p6108
aa(lp6109
Vchenda
p6110
aVuse for
p6111
aVdifferent purpose
p6112
aa(lp6113
Vuruttu chenda
p6114
aVplay
p6115
aVvariation
p6116
aa(lp6117
Vhamsanandi
p6118
aS'is a'
p6119
aVragam
p6120
aa(lp6121
Vhamsanandi
p6122
aVragam in
p6123
aVmusic
p6124
aa(lp6125
Vhamsanandi
p6126
aS'is a'
p6127
aVjanya ragam
p6128
aa(lp6129
Vhamsanandi
p6130
aS'is a'
p6131
aVragam
p6132
aa(lp6133
Vgamanashrama
p6134
aS'is a'
p6135
aVragam
p6136
aa(lp6137
Vhamsanandi
p6138
aVragam of
p6139
aVgamanashrama
p6140
aa(lp6141
Vhamsanandi
p6142
aVragam 's
p6143
aVrd melakarta
p6144
aa(lp6145
Vjanya
p6146
aS'a type of'
p6147
aVragam
p6148
aa(lp6149
Vgamanashrama
p6150
aVragam of
p6151
aVgamanashrama
p6152
aa(lp6153
Vgamanashrama
p6154
aVragam 's
p6155
aVrd melakarta
p6156
aa(lp6157
Vhamsanandi
p6158
aS'is a'
p6159
aVsymmetric scale
p6160
aa(lp6161
Vhamsanandi
p6162
aS'is a'
p6163
aVscale
p6164
aa(lp6165
Vhamsanandi
p6166
aVnot contain
p6167
aVpanchamam
p6168
aa(lp6169
Vhamsanandi
p6170
aS'is a'
p6171
aVevening ragam
p6172
aa(lp6173
Vhamsanandi
p6174
aS'is a'
p6175
aVragam
p6176
aa(lp6177
Vcharukesi
p6178
aS'is a'
p6179
aVraga
p6180
aa(lp6181
Vcharukesi
p6182
aVraga in
p6183
aVmusic
p6184
aa(lp6185
Vmelakarta
p6186
aS'a type of'
p6187
aVsystem
p6188
aa(lp6189
Vcharukesi
p6190
aVincite
p6191
aVfeeling
p6192
aa(lp6193
Vjanya
p6194
aS'a type of'
p6195
aVragam
p6196
aa(lp6197
Vvarnam
p6198
aVfavorite of
p6199
aVmaharajapuram_santhanam
p6200
aa(lp6201
Vcharukesi
p6202
aVin
p6203
aVfilm song
p6204
aa(lp6205
Vcharukesi
p6206
ag6203
aVindian movie
p6207
aa(lp6208
Vsikkil gurucharan
p6209
aVstudent of
p6210
aVvidya_mandir_senior_secondary_school
p6211
aa(lp6212
Vsikkil gurucharan
p6213
aS'is a'
p6214
aVstudent
p6215
aa(lp6216
Vsikkil gurucharan
p6217
aVbe among
p6218
aVyoung musician
p6219
aa(lp6220
Vprapancham sitaram
p6221
aS'is a'
p6222
aVusual occurrence
p6223
aa(lp6224
Valapana
p6225
aS'a type of'
p6226
aVswara
p6227
aa(lp6228
Vtanam
p6229
aVplay on
p6230
aVveena
p6231
aa(lp6232
Vtyagaraja
p6233
aVtake
p6234
aVmusical challenge
p6235
aa(lp6236
Vtyagaraja
p6237
aVlose
p6238
aVcharacter
p6239
aa(lp6240
Vtyagaraja
p6241
aVavoid in
p6242
aVone
p6243
aa(lp6244
Vtyagaraja
p6245
aVpraise
p6246
aVramachandra
p6247
aa(lp6248
Vtyagaraja
p6249
ag6246
aVone
p6250
aa(lp6251
Vpancharatna kriti
p6252
aVcompose in
p6253
aVtelugu
p6254
aa(lp6255
Vpancharatna kriti
p6256
aVset to
p6257
aVraga
p6258
aa(lp6259
Vtyagaraja
p6260
aVsing
p6261
aVgreatness
p6262
aa(lp6263
Vendaro mahanubhavulu
p6264
aVbe
p6265
aVone
p6266
aa(lp6267
Vtyagaraja
p6268
aVdescribe
p6269
aVgreatness
p6270
aa(lp6271
Vmangalam muthuswamy
p6272
aVof
p6273
aVnotable vainika
p6274
aa(lp6275
Vmridangam
p6276
aS'a type of'
p6277
aVlesson
p6278
aa(lp6279
Vmridangam
p6280
aS'a type of'
p6281
aVlesson
p6282
aa(lp6283
Vmridangam
p6284
aS'a type of'
p6285
aVclass
p6286
aa(lp6287
g6284
aS'a type of'
p6288
aVartist
p6289
aa(lp6290
Vkatcheri
p6291
aS'a type of'
p6292
aVbroadcast
p6293
aa(lp6294
Vlatangi
p6295
aS'is a'
p6296
aVragam
p6297
aa(lp6298
Vlatangi
p6299
aVragam in
p6300
aVmusic
p6301
aa(lp6302
Vmelakarta
p6303
aS'a type of'
p6304
aVsystem
p6305
aa(lp6306
Vmelakarta
p6307
aS'a type of'
p6308
aVragam
p6309
aa(lp6310
Vjanya
p6311
aS'a type of'
p6312
aVragam
p6313
aa(lp6314
Vlatangi
p6315
aVhave
p6316
aVminor ragam
p6317
aa(lp6318
Vtyagaraja
p6319
aVteach
p6320
aVhis son
p6321
aa(lp6322
Vkoteeswara iyer
p6323
aVcomposer of
p6324
aVmusic
p6325
aa(lp6326
Vkoteeswara iyer
p6327
aS'is a'
p6328
aVcomposer
p6329
aa(lp6330
Vkoteeswara iyer
p6331
aVstudy
p6332
aVmusic
p6333
aa(lp6334
Vmohanakalyani
p6335
aS'is a'
p6336
aVragam
p6337
aa(lp6338
Vmohanakalyani
p6339
aVragam in
p6340
aVmusic
p6341
aa(lp6342
Vjanya
p6343
aS'a type of'
p6344
aVragam
p6345
aa(lp6346
Vmelakarta
p6347
aS'a type of'
p6348
aVscale
p6349
aa(lp6350
Vjanya
p6351
aS'a type of'
p6352
aVscale
p6353
aa(lp6354
Vmohanam
p6355
aS'a type of'
p6356
aVcombination
p6357
aa(lp6358
Vmohanakalyani
p6359
aVnot contain
p6360
aVnishadham
p6361
aa(lp6362
Vmohanakalyani
p6363
ag6360
aVmadhyamam
p6364
aa(lp6365
Vmohanakalyani
p6366
aS'is a'
p6367
aVasymmetric ragam
p6368
aa(lp6369
Vmohanakalyani
p6370
aS'is a'
p6371
aVragam
p6372
aa(lp6373
Vgopala dasa
p6374
aVbear to
p6375
aVmurariraya
p6376
aa(lp6377
Vgopala dasa
p6378
aVbear to
p6379
aVvenkamma
p6380
aa(lp6381
Vgopala dasa
p6382
aVbear as
p6383
aVbhaganna
p6384
aa(lp6385
Vgopala dasa
p6386
aVbear in
p6387
aVdistrict
p6388
aa(lp6389
Vgopala dasa
p6390
aVbear in
p6391
aVmosarakallu
p6392
aa(lp6393
Vgopala dasa
p6394
aVcompose
p6395
aVnumerous song
p6396
aa.