(dp0
S'hindustani_singers'
p1
(lp2
S'vocalist'
p3
aS'singer'
p4
asS'hindustani_ragas'
p5
(lp6
S'raga'
p7
aS'raaga'
p8
aS'raag'
p9
aS'rag'
p10
aS'scale'
p11
asS'hindustani_instrumentalists'
p12
(lp13
S'instrumentalist'
p14
aS'player'
p15
aS'violonist'
p16
asS'hindustani_musicians'
p17
cnumpy.core.multiarray
_reconstruct
p18
(cnumpy
ndarray
p19
(I0
tp20
S'b'
p21
tp22
Rp23
(I1
(I7
tp24
cnumpy
dtype
p25
(S'S15'
p26
I0
I1
tp27
Rp28
(I3
S'|'
p29
NNNI15
I1
I0
tp30
bI00
S'vocalist\x00\x00\x00\x00\x00\x00\x00singer\x00\x00\x00\x00\x00\x00\x00\x00\x00composer\x00\x00\x00\x00\x00\x00\x00poet\x00\x00\x00\x00\x00\x00\x00\x00\x00\x00\x00instrumentalistplayer\x00\x00\x00\x00\x00\x00\x00\x00\x00violonist\x00\x00\x00\x00\x00\x00'
p31
tp32
bsS'hindustani_composers'
p33
(lp34
S'composer'
p35
aS'poet'
p36
as.