(dp1
Vcontent
p2
V<div dir="ltr" style="text-align: left;" trbidi="on"><div style="font-family: Georgia,&quot;Times New Roman&quot;,serif; text-align: justify;"><b>By V Ramnarayan</b><br />\u000a<br />\u000a<div style="text-align: right;"><b><span style="font-family: Georgia,&quot;Times New Roman&quot;,serif;"><span style="font-family: Georgia,&quot;Times New Roman&quot;,serif;">(Continued from blogpost dated <a href="http://srutimag.blogspot.in/2012/06/another-treat-at-gharana-festival.html" target="_blank">28 June 2012</a>)</span></span> </b></div></div><div style="font-family: Georgia,&quot;Times New Roman&quot;,serif; text-align: justify;"><br />\u000a</div><div class="separator" style="clear: both; font-family: Georgia,&quot;Times New Roman&quot;,serif; text-align: justify;"><a href="http://3.bp.blogspot.com/-rwitqYojZw8/T-2Hc7rYhdI/AAAAAAAAAp8/fBXMSpLhB0c/s1600/kk1.jpg" imageanchor="1" style="clear: right; float: right; margin-bottom: 1em; margin-left: 1em;"><img border="0" height="320" src="http://3.bp.blogspot.com/-rwitqYojZw8/T-2Hc7rYhdI/AAAAAAAAAp8/fBXMSpLhB0c/s320/kk1.jpg" width="213" /></a></div><div style="text-align: justify;"><span style="font-family: Georgia,&quot;Times New Roman&quot;,serif;">Presenting three entirely different styles of singing within the same gharana on three consecutive days, the Gharana festival this year was a brilliant coup by Prakriti Foundation.</span></div><div style="text-align: justify;"><br />\u000a<span style="font-family: Georgia,&quot;Times New Roman&quot;,serif;">After Vinayak Torvi\u2019s strong, deep voice filled the Kalakshetra auditorium on Wednesday, the audience would have been forgiven for expecting a bit of a dilution in the auditory experience yesterday.</span></div><div style="text-align: justify;"><br />\u000a<span style="font-family: Georgia,&quot;Times New Roman&quot;,serif;">Vocalist Kaivalya Kumar Gurav obviously had other ideas. His thorough enjoyment of his music, his unconscious abhinaya to suit the mood of the song, and his superb body language resembling a seated dancer, added a tremendous additional dimension to his own brand of the Kirana gharana. His sweet voice, sometimes reminiscent of Abdul Karim Khan\u2019s, could not have been more different from Torvi\u2019s deep bass, but it moved easily back and forth from meditative to lilting to piercingly plaintive.</span></div><div style="text-align: justify;"><br />\u000a<span style="font-family: Georgia,&quot;Times New Roman&quot;,serif;">A touch of folk especially in the excitingly high notes only served to enhance the classicism at the core of his musicianship in evidence yesterday.</span></div><div style="text-align: justify;"><br />\u000a<span style="font-family: Georgia,&quot;Times New Roman&quot;,serif;">Though I have left the details\u2014even raga names\u2014to the Sruti critic covering the festival, I cannot help mentioning here that the raga Gavati, with which Gurav opened the concert, is not often heard in Chennai, though the charismatic GN Balasubramanian brought it south more than a half century ago. (Last year, Uday Bhawalkar sang it at the Music Academy).</span></div><div style="text-align: justify;"><br />\u000a<span style="font-family: Georgia,&quot;Times New Roman&quot;,serif;">Kaivalya Kumar also purveyed a delicate jhoola which literally swayed the audience.</span></div><div style="text-align: justify;"><br />\u000a<span style="font-family: Georgia,&quot;Times New Roman&quot;,serif;">The music on offer was clearly idiosyncratic, but what delightful idiosyncrasies. Every phrase he uttered was a pure distillate of the raga, every curve, every rapid ascent firmly anchored in the sruti with the individual notes crystal clear, however complicated the chain of swaras.</span></div><div style="text-align: justify;"></div><div class="separator" style="clear: both; text-align: center;"><a href="http://3.bp.blogspot.com/-EN8aIoYgm-0/T-2QpgDOB9I/AAAAAAAAAqg/PJCDYi4_GQU/s1600/kk3.jpg" imageanchor="1" style="clear: left; float: left; margin-bottom: 1em; margin-right: 1em;"><img border="0" height="254" src="http://3.bp.blogspot.com/-EN8aIoYgm-0/T-2QpgDOB9I/AAAAAAAAAqg/PJCDYi4_GQU/s320/kk3.jpg" width="320" /></a></div><div style="text-align: justify;"><span style="font-family: Georgia,&quot;Times New Roman&quot;,serif;"></span><span style="font-family: Georgia,&quot;Times New Roman&quot;,serif;">When in contrast the singer held a single note in a single long breath, he did so in a mesmeric manifestation of his mastery of omkara.</span></div><div style="text-align: justify;"><br />\u000a<span style="font-family: Georgia,&quot;Times New Roman&quot;,serif;">Even the unusual combination of vowels he blended together to serve up incredibly fast taans was always in good taste and always musical.</span></div><div style="text-align: justify;"><br />\u000a<span style="font-family: Georgia,&quot;Times New Roman&quot;,serif;">From vilambit to drut, there was never a false note, nor a dull moment in a sometimes earthy, sometimes majestic, sometimes playful, sometimes soulful journey.</span></div><div style="text-align: justify;"><br />\u000a<span style="font-family: Georgia,&quot;Times New Roman&quot;,serif;">It was obvious that singing is child\u2019s play to Kaivalya Kumar, with complete mastery over the rules of the game refusing to obliterate the fun element.</span></div><div style="text-align: justify;"><br />\u000a<span style="font-family: Georgia,&quot;Times New Roman&quot;,serif;">It was priceless rasanubhava, in whose exploration the tabla (Shridhar Mandare) played an alert, sensitive part.</span><br />\u000a<br />\u000a<div style="text-align: right;"><span style="font-family: Georgia,&quot;Times New Roman&quot;,serif;"><b><span style="font-family: Georgia,&quot;Times New Roman&quot;,serif;">(Concluded)</span></b> </span></div></div></div>
p3
sVkind
p4
Vblogger#post
p5
sVlabels
p6
(lp7
VV Ramnarayan
p8
asVtitle
p9
VEssence of raga music
p10
sVurl
p11
Vhttp://srutimag.blogspot.com/2012/06/essence-of-raga-music.html
p12
sVauthor
p13
(dp14
Vurl
p15
Vhttp://www.blogger.com/profile/07438923380988482057
p16
sVimage
p17
(dp18
Vurl
p19
Vhttp://4.bp.blogspot.com/-BatgBQQxSS8/TsyaRVkALGI/AAAAAAAAADI/pLRMa46usw4/s45/Sruti%25252BLogo.jpg
p20
ssVdisplayName
p21
VSruti Magazine
p22
sVid
p23
V07438923380988482057
p24
ssVupdated
p25
V2012-08-07T11:43:15+05:30
p26
sVreplies
p27
(dp28
VtotalItems
p29
V0
sVselfLink
p30
Vhttps://www.googleapis.com/blogger/v3/blogs/4158155864744163029/posts/4547444065264238687/comments
p31
ssVblog
p32
(dp33
Vid
p34
V4158155864744163029
p35
ssVpublished
p36
V2012-06-29T16:19:00+05:30
p37
sVid
p38
V4547444065264238687
p39
sVselfLink
p40
Vhttps://www.googleapis.com/blogger/v3/blogs/4158155864744163029/posts/4547444065264238687
p41
s.