(dp1
Vcontent
p2
V<div dir="ltr" style="text-align: left;" trbidi="on">\u000a<!--[if gte mso 9]><xml>\u000a <w:WordDocument>\u000a  <w:View>Normal</w:View>\u000a  <w:Zoom>0</w:Zoom>\u000a  <w:DoNotOptimizeForBrowser/>\u000a </w:WordDocument>\u000a</xml><![endif]--><span style="font-size: small;"><span style="font-family: Georgia,&quot;Times New Roman&quot;,serif;"><b>By</b><b> S\u000aJanaki</b></span></span><br />\u000a<div class="body" style="text-align: justify;">\u000a<br /></div>\u000a<div class="body" style="text-align: justify;">\u000a<span style="font-family: Georgia,&quot;Times New Roman&quot;,serif;"><span style="font-size: small;"><i>29 April 2014</i>&nbsp; It was a riot of colours as young girls in\u000apavadais, teenagers in half-saris or salwar-kameez, and women draped in saris\u000astepped into the atrium of the Citi Centre mall on Radhakrishnan Road in\u000aMylapore, Chennai. They mingled with the shoppers and hung around the kiosks\u000aenjoying their ice-cream, or snacks and hot drinks, or simply window shopping.</span></span></div>\u000a<span style="font-family: Georgia,&quot;Times New Roman&quot;,serif;"><span style="font-size: small;">\u000a</span></span>\u000a<br />\u000a<div class="separator" style="clear: both; text-align: center;">\u000a<a href="http://2.bp.blogspot.com/-htrBzcjy1a4/U2yF0YeDsAI/AAAAAAAAEZI/Asm6bZeoN4s/s1600/abhai-flash+mob-4.jpg" imageanchor="1" style="clear: right; float: right; margin-bottom: 1em; margin-left: 1em;"><img border="0" src="http://2.bp.blogspot.com/-htrBzcjy1a4/U2yF0YeDsAI/AAAAAAAAEZI/Asm6bZeoN4s/s1600/abhai-flash+mob-4.jpg" height="240" width="320" /></a></div>\u000a<div class="body" style="text-align: justify;">\u000a<span style="font-family: Georgia,&quot;Times New Roman&quot;,serif;"><span style="font-size: small;"><span class="aqj">At\u000a5.30 pm</span> the music flowed in from the audio system\u000aplaced strategically near a kiosk, Taking the cue, a few senior dancers\u000acasually walked to the centre and broke into adavu movements. As the music\u000aplayed on, more and more dancers joined in groups of five or six.&nbsp;</span></span></div>\u000a<span style="font-family: Georgia,&quot;Times New Roman&quot;,serif;"><span style="font-size: small;">\u000a</span></span>\u000a<br />\u000a<div class="body" style="text-align: justify;">\u000a<span style="font-family: Georgia,&quot;Times New Roman&quot;,serif;"><span style="font-size: small;">In a jiffy, there were\u000aas many as 75 classical dancers on the floor. And what did these Bharatanatyam\u000adancers perform? The centuries old Ganesa kavuthvam. Shoppers crowded in, and\u000aspectators watched from every floor as they clicked on their cellphones,\u000atelevision cameras rolled and the event was even telecast live on NDTV.</span></span></div>\u000a<span style="font-family: Georgia,&quot;Times New Roman&quot;,serif;"><span style="font-size: small;">\u000a</span></span>\u000a<br />\u000a<div class="body" style="text-align: justify;">\u000a</div>\u000a<div class="body" style="text-align: justify;">\u000a<span style="font-family: Georgia,&quot;Times New Roman&quot;,serif;"><span style="font-size: small;">The flash mob was\u000aorganised by the Association of Bharatanatyam Artistes of India (ABHAI) to mark\u000aWorld Dance Day. It was a delight to watch young students dancing alongside\u000asenior artistes. At the end of the kavuthvam, the audience was asked to join\u000athe dance to instrumental music and many did so with enthusiasm. The artistes\u000ajoined hands with the audience and danced in circles, even as some of them\u000aperformed solos in perfect harmony. Holding a banner proclaiming \u2018Viswa Natya\u000aDinam\u2019 two ABHAI members danced their way through the crowd. And as the music\u000afaded away, the dancers struck poses and&nbsp;\u000athe crowd cheered. It was a joyous celebration. \u201cWe\u000awant classical dance to reach more people. We want to de-mystify it and share\u000aits celebration,\u201d said Chitra Visweswaran, president of ABHAI, minutes before\u000ashe was swept into the swirl of colour and movement.</span></span></div>\u000a<br />\u000a<div class="separator" style="clear: both; text-align: center;">\u000a<a href="http://2.bp.blogspot.com/-bj0d47bYNDc/U2yGCjaGiQI/AAAAAAAAEZQ/eRNbHa0hIdE/s1600/Abhai-flash+mob-1.jpg" imageanchor="1" style="clear: right; float: right; margin-bottom: 1em; margin-left: 1em;"><img border="0" src="http://2.bp.blogspot.com/-bj0d47bYNDc/U2yGCjaGiQI/AAAAAAAAEZQ/eRNbHa0hIdE/s1600/Abhai-flash+mob-1.jpg" height="240" width="320" /></a></div>\u000a<div style="text-align: justify;">\u000a<span style="font-family: Georgia,&quot;Times New Roman&quot;,serif;"><span style="font-size: small;">The objective of World Dance Day as\u000adeclared by the International Dance Council in 1982 is to reach out through\u000adance to places where it is not usually performed. At the end of the\u000apresentation at Citi Centre, the message had been successfully and artistically\u000acommunicated.</span></span></div>\u000a<br />\u000a<div class="body" style="text-align: justify;">\u000a<span style="font-family: Georgia,&quot;Times New Roman&quot;,serif;"><span style="font-size: small;">\u201cIt is the first time\u000aI am seeing a flash mob by so many classical dancers. It is beautiful to watch\u000athem,\u201d said an onlooker. \u201cIt is such a delight to watch so many of them in traditional\u000aattire in a swank mall, performing classical dance,\u201d said another.</span></span></div>\u000a<br />\u000a<div class="body" style="text-align: justify;">\u000a<span style="font-family: Georgia,&quot;Times New Roman&quot;,serif;"><span style="font-size: small;">\u201cIt was amazing to\u000adance in a mall to a mixed audience. I am happy to be a part of it,\u201d said a\u000ayoung dance student. \u201cWe demonstrated that classical disciplined dancing can\u000aalso give so much joy,\u201d said a senior dancer-teacher.</span></span></div>\u000a<br />\u000a<div class="MsoNormal" style="text-align: justify;">\u000a<span style="font-family: Georgia,&quot;Times New Roman&quot;,serif;"><span style="font-size: small;">How did it all happen? It was an instance of putting\u000asocial media and technology to good use. The idea of a flash mob mooted in a\u000acasual group conversation among dance lovers on Facebook was formally placed before\u000athe President of ABHAI by a board member of AAT. Enthused by the idea, the\u000acommittee swung into action&nbsp; and\u000ainitially thought of the Kapali temple in Mylapore as the venue, but younger\u000amembers came up with the idea of performing in a mall.</span></span></div>\u000a<div class="MsoNormal" style="text-align: justify;">\u000a<div class="separator" style="clear: both; text-align: center;">\u000a</div>\u000a<div class="separator" style="clear: both; text-align: center;">\u000a<object class="BLOGGER-youtube-video" classid="clsid:D27CDB6E-AE6D-11cf-96B8-444553540000" codebase="http://download.macromedia.com/pub/shockwave/cabs/flash/swflash.cab#version=6,0,40,0" data-thumbnail-src="https://ytimg.googleusercontent.com/vi/C17S1_jnnXI/0.jpg" height="266" width="320"><param name="movie" value="https://youtube.googleapis.com/v/C17S1_jnnXI&source=uds" /><param name="bgcolor" value="#FFFFFF" /><param name="allowFullScreen" value="true" /><embed width="320" height="266"  src="https://youtube.googleapis.com/v/C17S1_jnnXI&source=uds" type="application/x-shockwave-flash" allowfullscreen="true"></embed></object></div>\u000a</div>\u000a<span style="font-family: Georgia,&quot;Times New Roman&quot;,serif;"><span style="font-size: small;">\u000a</span></span>\u000a<br />\u000a<div class="body" style="text-align: justify;">\u000a<br />\u000a<span style="font-family: Georgia,&quot;Times New Roman&quot;,serif;"><span style="font-size: small;">With barely a few days\u000ato go, arrangements were stepped up. Emails were sent out, and the youtube link\u000aof the Ganesa kavuthvam was sent to the dancers who had registered so that they\u000acould learn the item. The entire group met just a couple of hours before the\u000aevent, when the ABHAI committee members tweaked the action into place. The\u000adancers then proceeded in small groups to the Chennai Citi Centre, and what\u000afollowed made everyone sit up and take note. The AAT crew led by its CEO\u000aRathish Babu and film director and producer Sharada Ramanathan played a major\u000arole in facilitating the action.</span></span></div>\u000a<br />\u000a<div class="body" style="text-align: justify;">\u000a<span style="font-family: Georgia,&quot;Times New Roman&quot;,serif;"><span style="font-size: small;">In the midst of\u000aelection fever, classical dance caught the attention of the media which\u000agenerally shies away from coverage of things classical! The flash mob made a\u000asplash.</span></span><br />\u000a<br />\u000a<br />\u000a<span style="font-family: Georgia,&quot;Times New Roman&quot;,serif;"><span style="font-size: small;"><a href="https://www.youtube.com/watch?v=nKHejck3VMw">https://www.youtube.com/watch?v=nKHejck3VMw</a></span></span></div>\u000a<span style="font-family: Georgia,&quot;Times New Roman&quot;,serif;"><span style="font-size: small;">\u000a</span></span>\u000a<br />\u000a<div class="body" style="text-align: justify;">\u000a<span style="font-family: Georgia,&quot;Times New Roman&quot;,serif;"></span>\u000a<a href="https://www.youtube.com/watch?v=k9os3P6GNak&amp;feature=youtu.be"><span style="font-family: Georgia,&quot;Times New Roman&quot;,serif;">https://www.youtube.com/watch?v=k9os3P6GNak&amp;feature=youtu.be</span></a></div>\u000a</div>\u000a
p3
sVkind
p4
Vblogger#post
p5
sVlabels
p6
(lp7
VS. Janaki
p8
asVtitle
p9
VIn step with the times
p10
sVurl
p11
Vhttp://srutimag.blogspot.com/2014/05/normal-0-in-step-with-times-s.html
p12
sVauthor
p13
(dp14
Vurl
p15
Vhttp://www.blogger.com/profile/07438923380988482057
p16
sVimage
p17
(dp18
Vurl
p19
Vhttp://4.bp.blogspot.com/-BatgBQQxSS8/TsyaRVkALGI/AAAAAAAAADI/pLRMa46usw4/s45/Sruti%25252BLogo.jpg
p20
ssVdisplayName
p21
VSruti Magazine
p22
sVid
p23
V07438923380988482057
p24
ssVupdated
p25
V2014-05-10T11:27:36+05:30
p26
sVreplies
p27
(dp28
VtotalItems
p29
V0
sVselfLink
p30
Vhttps://www.googleapis.com/blogger/v3/blogs/4158155864744163029/posts/2081146312303535568/comments
p31
ssVblog
p32
(dp33
Vid
p34
V4158155864744163029
p35
ssVpublished
p36
V2014-05-09T13:14:00+05:30
p37
sVid
p38
V2081146312303535568
p39
sVselfLink
p40
Vhttps://www.googleapis.com/blogger/v3/blogs/4158155864744163029/posts/2081146312303535568
p41
s.