(dp1
Vcontent
p2
V<div dir="ltr" style="text-align: left;" trbidi="on">\u000a<div style="text-align: justify;">\u000a<b><span style="font-family: Georgia,&quot;Times New Roman&quot;,serif;">By Samudri</span></b></div>\u000a<div style="text-align: justify;">\u000a<br /></div>\u000a<div class="separator" style="clear: both; text-align: center;">\u000a<a href="http://1.bp.blogspot.com/-qQReT6qbrb4/U0ZxaYidzUI/AAAAAAAAEVU/N2GZ4l8aA4I/s1600/Dr.+Vasantrao+Deshpande+Smruti+Samman.jpg" imageanchor="1" style="clear: right; float: right; margin-bottom: 1em; margin-left: 1em;"><img border="0" src="http://1.bp.blogspot.com/-qQReT6qbrb4/U0ZxaYidzUI/AAAAAAAAEVU/N2GZ4l8aA4I/s1600/Dr.+Vasantrao+Deshpande+Smruti+Samman.jpg" height="320" width="257" /></a></div>\u000a<div style="text-align: justify;">\u000a<span style="font-family: Georgia,&quot;Times New Roman&quot;,serif;">The Vasantrao Deshpande Smruti Puraskar was conferred on Deepak Raja during the Vasantotsava music festival organised on 19 January 2014 in Pune. The award is given by the Vasantrao Deshpande Pratishthan every year for outstanding contribution to scholarship in the performing arts. It was instituted in memory of Dr. Vasantrao Deshpande, popular and erudite vocalist on the concert platform and regional theatre.</span></div>\u000a<div style="text-align: justify;">\u000a<span style="font-family: Georgia,&quot;Times New Roman&quot;,serif;"><br />Deepak Raja received the award from the legend Vikku Vinayakram. The ghatam maestro gave a mind blowing performance before a 4000-strong crowd, which was also very appreciative of the awardee\u2019s acceptance speech.</span></div>\u000a<div style="text-align: justify;">\u000a<span style="font-family: Georgia,&quot;Times New Roman&quot;,serif;"><br />Deepak S. Raja, a columnist for <a href="http://www.sruti.com/" target="_blank"><i>Sruti,</i></a> is among the finest contemporary writers on Hindustani music. He is the author of several books on Hindustani music and frequently contributes papers to seminars and prestigious journals on music. This scholar is also a musician who plays the sitar and the surbahar. Well versed in the traditional concepts of Indian musicology, Deepak Raja brings to his writing a fresh perspective using the conceptual tools and analytical methods cultivated by his careers in media research, business journalism and financial accountancy.</span></div>\u000a</div>\u000a
p3
sVkind
p4
Vblogger#post
p5
sVlabels
p6
(lp7
VSamudri
p8
asVtitle
p9
VVasantrao Deshpande Award for Deepak Raja
p10
sVurl
p11
Vhttp://srutimag.blogspot.com/2014/04/vasantrao-deshpande-award-for-deepak.html
p12
sVauthor
p13
(dp14
Vurl
p15
Vhttp://www.blogger.com/profile/07438923380988482057
p16
sVimage
p17
(dp18
Vurl
p19
Vhttp://4.bp.blogspot.com/-BatgBQQxSS8/TsyaRVkALGI/AAAAAAAAADI/pLRMa46usw4/s45/Sruti%25252BLogo.jpg
p20
ssVdisplayName
p21
VSruti Magazine
p22
sVid
p23
V07438923380988482057
p24
ssVupdated
p25
V2014-04-10T15:55:30+05:30
p26
sVreplies
p27
(dp28
VtotalItems
p29
V1
sVselfLink
p30
Vhttps://www.googleapis.com/blogger/v3/blogs/4158155864744163029/posts/5793857949923820620/comments
p31
ssVblog
p32
(dp33
Vid
p34
V4158155864744163029
p35
ssVpublished
p36
V2014-04-10T15:55:00+05:30
p37
sVid
p38
V5793857949923820620
p39
sVselfLink
p40
Vhttps://www.googleapis.com/blogger/v3/blogs/4158155864744163029/posts/5793857949923820620
p41
s.