(dp1
Vcontent
p2
V<div dir="ltr" style="text-align: left;" trbidi="on">\u000a<div class="separator" style="clear: both; text-align: center;">\u000a<a href="http://2.bp.blogspot.com/-toCZMgNrqlk/UXuGlNwN4PI/AAAAAAAADXA/zcXSyjIr_v4/s1600/Padma+Bushan+Photo.JPG" imageanchor="1" style="clear: left; cssfloat: left; float: left; margin-bottom: 1em; margin-right: 1em;"><img border="0" height="212" lwa="true" src="http://2.bp.blogspot.com/-toCZMgNrqlk/UXuGlNwN4PI/AAAAAAAADXA/zcXSyjIr_v4/s320/Padma+Bushan+Photo.JPG" width="320" /></a></div>\u000a<div style="text-align: justify;">\u000a<span style="font-family: Georgia, &quot;Times New Roman&quot;, serif;">Saroja Vaidyanathan, senior Bharatanatyam exponent and teacher,&nbsp; received the Padma Bhushan award from the President of India, Pranab Mukherjee, on 20th April at the Rashtrapati Bhavan.</span></div>\u000a<div style="text-align: justify;">\u000a<br /></div>\u000a<div style="text-align: justify;">\u000a<span style="font-family: Georgia, &quot;Times New Roman&quot;, serif;">Saroja who learnt Bharatanatyam from Guru Lalitha at the Saraswati Gana Nilayam in Chennai, and later from natyacharya Kattumannarkoil Muthukumara Pillai, also studied Carnatic music under Prof. P. Sambamoorthy at Madras University, and obtained a D.Litt in dance from the Indira Kala Sangeet Viswavidyalaya, Khairagarh. She is the founder-director of Ganesa Natyalaya in Delhi, where she has trained a number of dancers.She has authored several books on dance and music including 'The Science of Bharatanatyam', 'Carnataka Sangeetham', 'Bharatanatyam: An In-depth Study', and 'Classical Dances of India'.</span></div>\u000a<div style="text-align: justify;">\u000a<br /></div>\u000a<div style="text-align: justify;">\u000a<span style="font-family: Georgia, &quot;Times New Roman&quot;, serif;">Saroja is the recipient of several honours including the Sahitya Kala Parishad Samman from the Government of Delhi, the Kalaimamani title from the Tamil Nadu Eyal Isai Nataka Manram, Padma Shri from the government of India, the Central Sangeet Natak Akademi award and the Kalidas Samman from the State Government of Madhya Pradesh.The Padma Bhushan is the latest feather in her cap.</span></div>\u000a</div>\u000a
p3
sVkind
p4
Vblogger#post
p5
sVlabels
p6
(lp7
VSruti
p8
asVtitle
p9
VSaroja Vaidyanathan receives Padma Bhushan
p10
sVurl
p11
Vhttp://srutimag.blogspot.com/2013/04/saroja-vaidyanathan-receives-padma.html
p12
sVauthor
p13
(dp14
Vurl
p15
Vhttp://www.blogger.com/profile/07438923380988482057
p16
sVimage
p17
(dp18
Vurl
p19
Vhttp://4.bp.blogspot.com/-BatgBQQxSS8/TsyaRVkALGI/AAAAAAAAADI/pLRMa46usw4/s45/Sruti%25252BLogo.jpg
p20
ssVdisplayName
p21
VSruti Magazine
p22
sVid
p23
V07438923380988482057
p24
ssVupdated
p25
V2013-04-27T13:35:51+05:30
p26
sVreplies
p27
(dp28
VtotalItems
p29
V0
sVselfLink
p30
Vhttps://www.googleapis.com/blogger/v3/blogs/4158155864744163029/posts/3090431278174027527/comments
p31
ssVblog
p32
(dp33
Vid
p34
V4158155864744163029
p35
ssVpublished
p36
V2013-04-27T13:35:00+05:30
p37
sVid
p38
V3090431278174027527
p39
sVselfLink
p40
Vhttps://www.googleapis.com/blogger/v3/blogs/4158155864744163029/posts/3090431278174027527
p41
s.