(dp1
Vcontent
p2
V<div dir="ltr" style="text-align: left;" trbidi="on">\u000a<div style="font-family: Georgia,&quot;Times New Roman&quot;,serif; text-align: justify;">\u000a<b>Song types: Varnam</b></div>\u000a<div style="font-family: Georgia,&quot;Times New Roman&quot;,serif; text-align: justify;">\u000a<br />Poochi Srinivasa Iyengar's <i>Ninnukori</i> in the raga Mohanam and two songs\u2014<i>Evvari bodhana</i> in Abhogi and <i>Era napai</i> in Todi\u2014by Patnam Subramania Iyer are perhaps the most well known varnams in Carnatic music. </div>\u000a<div style="font-family: Georgia,&quot;Times New Roman&quot;,serif; text-align: justify;">\u000a<br />The varnam is characterized by a preponderance of swara passages of the typical (jeeva and varja) phrases of the raga. It is an example of composed music which does not encourage manodharma.</div>\u000a<div style="font-family: Georgia,&quot;Times New Roman&quot;,serif; text-align: justify;">\u000a<br />Of the two types of varnams in vogue, tanavarnams are sung in music concerts and padavarnams are part of the Bharatanatyam repertoire. Traditionally, music concerts open with a tanavarnam. </div>\u000a<div style="font-family: Georgia,&quot;Times New Roman&quot;,serif; text-align: justify;">\u000a<br />A student of Carnatic music learns geetam, swarajati and jatiswaram before moving on to varnam.</div>\u000a<div style="font-family: Georgia,&quot;Times New Roman&quot;,serif; text-align: justify;">\u000a<br />A varnam is considered an ideal learning tool as it offers complex vocal exercises that can ensure understanding of the melody of a raga with all its swaras in their proper places and impart rhythm control. Its gamakas and phrases are regarded as truly demonstrative of the raga. </div>\u000a<div style="font-family: Georgia,&quot;Times New Roman&quot;,serif; text-align: justify;">\u000a<br />For didactic purposes, as well as in concerts sometimes, varnams are sung in single, double and triple speeds. In its vigour and pulse, the tanavarnam resembles tanam in ragam-tanam-pallavi.</div>\u000a<div style="font-family: Georgia,&quot;Times New Roman&quot;,serif; text-align: justify;">\u000a<br />Varnams are typically set in Adi tala (eight beats to a cycle) or Ata tala (14 beats to a cycle). </div>\u000a<div style="font-family: Georgia,&quot;Times New Roman&quot;,serif; text-align: justify;">\u000a<br />A tanavarnam is characterized by phrases containing long and short notes. </div>\u000a<div style="font-family: Georgia,&quot;Times New Roman&quot;,serif; text-align: justify;">\u000a<br />A pada varnam is the centrepiece of a dance performance, its most elaborate part. It is usually followed by a padam. Sringara is the dominant rasa of a padavarnam. The lyrics of the padavarnam give room for abhinaya or facial expressions and mudra or gestures.</div>\u000a<div style="font-family: Georgia,&quot;Times New Roman&quot;,serif; text-align: justify;">\u000a<br /><b>Some varnams in Adi tala:</b></div>\u000a<div style="font-family: Georgia,&quot;Times New Roman&quot;,serif; text-align: justify;">\u000a<br /><i>Sami ninne</i> in Sreeragam by Karur Devudu Iyer </div>\u000a<div style="font-family: Georgia,&quot;Times New Roman&quot;,serif; text-align: justify;">\u000a<br /><i>Valachi vachi,</i> a Navaragamalika (9 ragas) varnam</div>\u000a<div style="font-family: Georgia,&quot;Times New Roman&quot;,serif; text-align: justify;">\u000a<br /><b>Some Ata tala varnams:</b></div>\u000a<div style="font-family: Georgia,&quot;Times New Roman&quot;,serif; text-align: justify;">\u000a<br /><i>Viriboni</i> in Bhairavi by Pachimiriam Adiyappa, the first known varnam composer.&nbsp; (This varnam is considered a link between the tanavarnam model and padavarnam, with its romantic lyrics). </div>\u000a<div style="font-family: Georgia,&quot;Times New Roman&quot;,serif; text-align: justify;">\u000a<br /><i>Nera nammiti</i> in Kanada by Poochi Srinivasa Iyengar </div>\u000a<div style="font-family: Georgia,&quot;Times New Roman&quot;,serif; text-align: justify;">\u000a<br /><i>Chalamela</i> in Sankarabharanam by Swati Tirunal</div>\u000a<div style="font-family: Georgia,&quot;Times New Roman&quot;,serif; text-align: justify;">\u000a<br />The varnam has a first part or purvanga and a second part or uttaranga. In the second part, a single line is repeated after a series of graded swara patterns. The usage of the device of swarakshara here is common, with the opening line containing words which are swara syllables themselves.</div>\u000a<div style="font-family: Georgia,&quot;Times New Roman&quot;,serif; text-align: justify;">\u000a<br />(Recommended reading: <i>Sampradaya Sangita</i> by Dr. Lalita Ramakrishna published by Kalpatharu Research Academy, Bangalore; phone 26507464, email <a href="mailto:kalpatahru@vsnl.com">kalpatahru@vsnl.com</a>)</div>\u000a</div>\u000a
p3
sVkind
p4
Vblogger#post
p5
sVlabels
p6
(lp7
VV Ramnarayan
p8
asVtitle
p9
VPocket guidebook to Carnatic music
p10
sVurl
p11
Vhttp://srutimag.blogspot.com/2012/09/pocket-guidebook-to-carnatic-music_13.html
p12
sVauthor
p13
(dp14
Vurl
p15
Vhttp://www.blogger.com/profile/07438923380988482057
p16
sVimage
p17
(dp18
Vurl
p19
Vhttp://4.bp.blogspot.com/-BatgBQQxSS8/TsyaRVkALGI/AAAAAAAAADI/pLRMa46usw4/s45/Sruti%25252BLogo.jpg
p20
ssVdisplayName
p21
VSruti Magazine
p22
sVid
p23
V07438923380988482057
p24
ssVupdated
p25
V2012-09-15T09:18:55+05:30
p26
sVreplies
p27
(dp28
VtotalItems
p29
V0
sVselfLink
p30
Vhttps://www.googleapis.com/blogger/v3/blogs/4158155864744163029/posts/5612509395477000430/comments
p31
ssVblog
p32
(dp33
Vid
p34
V4158155864744163029
p35
ssVpublished
p36
V2012-09-13T11:29:00+05:30
p37
sVid
p38
V5612509395477000430
p39
sVselfLink
p40
Vhttps://www.googleapis.com/blogger/v3/blogs/4158155864744163029/posts/5612509395477000430
p41
s.