(dp1
Vcontent
p2
V<div dir="ltr" style="text-align: left;" trbidi="on"><div style="background: none repeat scroll 0% 0% white; line-height: 150%; text-align: justify;"><span style="color: #222222; font-family: &quot;Book Antiqua&quot;;"><b>By PNV Ram</b></span><br />\u000a<br />\u000a<span style="color: #222222; font-family: &quot;Book Antiqua&quot;;">As I ignore a light drizzle and set out on my morning walk, I see an intrepid muffler-clad warrior braving the bitter cold of November<span class="apple-converted-space">&nbsp;</span>Madras. The lady is well equipped for an Antarctic expedition, but of vital significance is the secure wrapping she has subjected her ears to, allowing no entry to the treacherous winter wind.</span></div><div style="background: none repeat scroll 0% 0% white; line-height: 150%; text-align: justify;"><br />\u000a</div><div class="separator" style="clear: both; text-align: center;"><a href="http://3.bp.blogspot.com/-rWjfbNzmj8Q/Ts3UFqZF4QI/AAAAAAAAADo/xXniY_mjeN0/s1600/HYF04TNSESHAGOPALAN_379011e.jpg" imageanchor="1" style="clear: right; float: right; margin-bottom: 1em; margin-left: 1em;"><img border="0" height="320" src="http://3.bp.blogspot.com/-rWjfbNzmj8Q/Ts3UFqZF4QI/AAAAAAAAADo/xXniY_mjeN0/s320/HYF04TNSESHAGOPALAN_379011e.jpg" width="283" /></a></div><div style="background: none repeat scroll 0% 0% white; line-height: 150%; text-align: justify;"><span style="color: #222222; font-family: &quot;Book Antiqua&quot;;">I immediately experience the familiar goosebumps of the seasoned concert-goer of the<span class="apple-converted-space">&nbsp;</span>Madras cutcheri season in withdrawal, someone whose poor time management skills have denied him the pleasures of month-long sabha-hopping for some Decembers running now. For who doesn\u2019t know that the time the Madrasi brings out his or her winter finery is the time the Seshagopalans and Unnikrishnans have to keep their fingers crossed and throats hot-water-gargled to do battle with their audience of mamas and mamis swathed in their warm woollens and swirling silks, and entice them away from their copies of \u2018Kutcheri Buzz\u2019, distributed by overzealous volunteers just before the start of the<span class="apple-converted-space">&nbsp;</span></span><span style="font-family: &quot;Book Antiqua&quot;;"><a href="http://chennaionline.com/columns/PeopleandPlaces/11story10.asp" target="_top"><span class="klink"><span style="color: windowtext; text-decoration: none;">concert</span></span></a></span><span style="color: #222222; font-family: &quot;Book Antiqua&quot;;">?</span></div><div style="background: none repeat scroll 0% 0% white; line-height: 150%; text-align: justify;"><br />\u000a</div><div style="background: none repeat scroll 0% 0% white; line-height: 150%; text-align: justify;"><span style="color: #222222; font-family: &quot;Book Antiqua&quot;;">It\u2019s early days yet for the migratory birds from all over the world to gather at the Vedanthangal bird sanctuary but it\u2019s the time of the year overseas Indians swoop down on<span class="apple-converted-space">&nbsp;</span>Madras. In the past, they came to listen and watch; today some of them come to sing and<span class="apple-converted-space">&nbsp;</span></span><span style="font-family: &quot;Book Antiqua&quot;;"><a href="http://chennaionline.com/columns/PeopleandPlaces/11story10.asp" target="_top"><span class="klink"><span style="color: windowtext; text-decoration: none;">dance</span></span></a></span><span class="apple-converted-space"><span style="color: #222222; font-family: &quot;Book Antiqua&quot;;">&nbsp;</span></span><span style="color: #222222; font-family: &quot;Book Antiqua&quot;;">as well. While the rest of sabhadom is in the throes of scheduling concerts featuring the top stars, Hamsadhwani of Indiranagar showcases NRI music talent!</span></div><div style="background: none repeat scroll 0% 0% white; line-height: 150%; text-align: justify;"><br />\u000a</div><div style="background: none repeat scroll 0% 0% white; line-height: 150%; text-align: justify;"><span style="color: #222222; font-family: &quot;Book Antiqua&quot;;">NRIs are not the only strange birds the season brings to<span class="apple-converted-space">&nbsp;</span>Madras. There is quite a sprinkling of foreign nationals dotting the scene, ranging from wide-eyed seekers of nirvana to serious scholars of<span class="apple-converted-space">&nbsp;</span></span><span style="font-family: &quot;Book Antiqua&quot;;"><a href="http://chennaionline.com/columns/PeopleandPlaces/11story10.asp" target="_top"><span class="klink"><span style="color: windowtext; text-decoration: none;">music</span></span></a></span><span class="apple-converted-space"><span style="color: #222222; font-family: &quot;Book Antiqua&quot;;">&nbsp;</span></span><span style="color: #222222; font-family: &quot;Book Antiqua&quot;;">and dance whose thoroughness and dedication can shame the best of local students. And if you read the programme cards carefully you will see that some of the morning lec-dem sessions are by experts from quite distant lands.</span></div><div style="background: none repeat scroll 0% 0% white; line-height: 150%; text-align: justify;"><br />\u000a</div><div style="background: none repeat scroll 0% 0% white; line-height: 150%; text-align: justify;"><span style="color: #222222; font-family: &quot;Book Antiqua&quot;;">Many great artistes of the past have passed on and we shall miss them sorely, and I don\u2019t mean the big stars of Carnatic music and dance alone. Many solid performers, composers and teachers who were an integral part of the<span class="apple-converted-space">&nbsp;</span></span><span style="font-family: &quot;Book Antiqua&quot;;"><a href="http://chennaionline.com/columns/PeopleandPlaces/11story10.asp" target="_top"><span class="klink"><span style="color: windowtext; text-decoration: none;">music scene</span></span></a></span><span class="apple-converted-space"><span style="color: #222222; font-family: &quot;Book Antiqua&quot;;">&nbsp;</span></span><span style="color: #222222; font-family: &quot;Book Antiqua&quot;;">have left us. We\u2019ll miss them.</span></div><div style="background: none repeat scroll 0% 0% white; line-height: 150%; text-align: justify;"><br />\u000a</div><div style="background: none repeat scroll 0% 0% white; line-height: 150%; text-align: justify;"><span style="color: #222222; font-family: &quot;Book Antiqua&quot;;">But this is no occasion for grief. It is celebration time. The usual excitement of anticipation catches up with you. The young tyros you watched make their spectacular debuts a couple of decades ago are today masters of their art, occupying centrestage where once was an earlier generation of stars. </span></div><div style="background: none repeat scroll 0% 0% white; line-height: 150%; text-align: justify;"><br />\u000a</div><div class="separator" style="clear: both; text-align: center;"><a href="http://2.bp.blogspot.com/-nLUpngU_hFo/Ts3UQERQN1I/AAAAAAAAADw/4rYXv_ZspRM/s1600/Srinivas.jpg" imageanchor="1" style="clear: left; float: left; margin-bottom: 1em; margin-right: 1em;"><img border="0" height="288" src="http://2.bp.blogspot.com/-nLUpngU_hFo/Ts3UQERQN1I/AAAAAAAAADw/4rYXv_ZspRM/s320/Srinivas.jpg" width="320" /></a></div><div style="background: none repeat scroll 0% 0% white; line-height: 150%; text-align: justify;"><span style="color: #222222; font-family: &quot;Book Antiqua&quot;;">The sensational teenager who took<span class="apple-converted-space">&nbsp;</span>Madras<span class="apple-converted-space">&nbsp;</span>by storm in the 1980s with his tiny mandolin. U Shrinivas, is today a seasoned veteran, while an earlier child<span class="apple-converted-space">&nbsp;</span></span><span style="font-family: &quot;Book Antiqua&quot;;"><a href="http://chennaionline.com/columns/PeopleandPlaces/11story10.asp" target="_top"><span class="klink"><span style="color: windowtext; text-decoration: none;">prodigy</span></span></a></span><span style="color: #222222; font-family: &quot;Book Antiqua&quot;;">, Ravikiran has mellowed with the years to deliver music of surpassing beauty with his \u2018chitravina\u2019. (Ravikiran will perform only once this season, at the Music Academy, thanks to some compelling commitments abroad). </span></div><div style="background: none repeat scroll 0% 0% white; line-height: 150%; text-align: justify;"><br />\u000a</div><div style="background: none repeat scroll 0% 0% white; line-height: 150%; text-align: justify;"><span style="color: #222222; font-family: &quot;Book Antiqua&quot;;">Another prodigy of a later vintage, Shashank, today explores brave new paths with the<span class="apple-converted-space">&nbsp;</span></span><span style="font-family: &quot;Book Antiqua&quot;;"><a href="http://chennaionline.com/columns/PeopleandPlaces/11story10.asp" target="_top"><span class="klink"><span style="color: windowtext; text-decoration: none;">flute</span></span></a></span><span style="color: #222222; font-family: &quot;Book Antiqua&quot;;">, deeply moving one moment and frenetically fast-paced the next. Will the new season throw up some exciting new talent offering similar magic, you wonder.</span><span style="color: #222222; font-family: &quot;Book Antiqua&quot;; font-size: 12pt;"></span><span style="color: #222222; font-family: &quot;Book Antiqua&quot;; font-size: 12pt;">&nbsp;</span></div><div style="background: none repeat scroll 0% 0% white; line-height: 150%; text-align: justify;"><br />\u000a</div><div style="background: none repeat scroll 0% 0% white; line-height: 150%; text-align: justify;"><span style="color: #222222; font-family: &quot;Book Antiqua&quot;; font-size: 12pt;">As always, there will be some variations of the theme, for those who seek a change from the standard cutcheri fare. That brilliant Carnatic violinist Sriram Parasuram will also perform Hindustani-Carnatic vocal jugalbandis with wife Anuradha Sriram. O S Arun will probably sing Tamil ghazals. A number of<span class="apple-converted-space">&nbsp;</span></span><span style="font-family: &quot;Book Antiqua&quot;; font-size: 12pt;"><a href="http://chennaionline.com/columns/PeopleandPlaces/11story10.asp" target="_top"><span class="klink"><span style="color: windowtext; text-decoration: none;">percussion</span></span></a></span><span class="apple-converted-space"><span style="color: #222222; font-family: &quot;Book Antiqua&quot;; font-size: 12pt;">&nbsp;</span></span><span style="color: #222222; font-family: &quot;Book Antiqua&quot;; font-size: 12pt;">ensembles will thrill lovers of rhythm, led by such laya wizards as Karaikudi Mani, Vinayakram, Tiruvarur Bhaktavatsalam and Karthick. For those harking back to the past, who knows, there may be a four-hour vocal concert or two-by the Malladi Brothers, TN Seshagopalan, or TM Krishna.</span></div></div>
p3
sVkind
p4
Vblogger#post
p5
sVlabels
p6
(lp7
VPNV Ram
p8
asVtitle
p9
VFamiliar goosebumps
p10
sVurl
p11
Vhttp://srutimag.blogspot.com/2011/11/familiar-goosebumps-by-pnv-ram.html
p12
sVauthor
p13
(dp14
Vurl
p15
Vhttp://www.blogger.com/profile/07438923380988482057
p16
sVimage
p17
(dp18
Vurl
p19
Vhttp://4.bp.blogspot.com/-BatgBQQxSS8/TsyaRVkALGI/AAAAAAAAADI/pLRMa46usw4/s45/Sruti%25252BLogo.jpg
p20
ssVdisplayName
p21
VSruti Magazine
p22
sVid
p23
V07438923380988482057
p24
ssVupdated
p25
V2011-11-24T12:27:27+05:30
p26
sVreplies
p27
(dp28
VtotalItems
p29
V0
sVselfLink
p30
Vhttps://www.googleapis.com/blogger/v3/blogs/4158155864744163029/posts/7616668716348054185/comments
p31
ssVblog
p32
(dp33
Vid
p34
V4158155864744163029
p35
ssVpublished
p36
V2011-11-24T10:51:00+05:30
p37
sVid
p38
V7616668716348054185
p39
sVselfLink
p40
Vhttps://www.googleapis.com/blogger/v3/blogs/4158155864744163029/posts/7616668716348054185
p41
s.