(dp1
Vcontent
p2
V<div dir="ltr" style="text-align: left;" trbidi="on"><div style="font-family: Georgia,'Times New Roman',serif; text-align: justify;"><b>By V Ramnarayan</b></div><div style="font-family: Georgia,'Times New Roman',serif; text-align: justify;"><br />\u000aThe first time I heard a Mehdi Hassan ghazal was in the voice of Mansur Ali Khan Pataudi. The former India captain and iconic batsman of the 1970s, my senior in the Hyderabad cricket team, had this habit of entering the dressing room with a song on his lips\u2014well, a thunderous rendering of his favourite tune of the day in a stentorian voice that set the windowpanes rattling. So it was that I was completely overcome by surprise when I first heard <em>Gulshan, gulshan, shola yeh gul ki</em> in Mehdi Hassan\u2019s gentle voice after being rocked by Tiger Pataudi\u2019s version.</div><div style="font-family: Georgia,'Times New Roman',serif; text-align: justify;"><br />\u000aBefore that, however, I had had my introduction to ghazals through Jagjit Singh, who regarded Mehdi Hassan as his guru. Jagjit Singh of that vintage was a revelation to someone like me, who until then knew film music and classical music, and nothing in between. He and his wife Chitra Singh delighted listeners with some excellent albums of poignant Urdu verses sung so sensitively, yet so strongly.</div><div style="font-family: Georgia,'Times New Roman',serif; text-align: justify;"><br />\u000aGulshan, gulshan and <em>Patta patta </em>were the first two ghazals to captivate me, particularly in how deceptively simple they were. They sounded so easy to the ear, but had so many subtle variations and so many delightful harkats that the ustad indulged in so effortlessly, but which were impossible of achievement to ordinary mortals.</div><div style="font-family: Georgia,'Times New Roman',serif; text-align: justify;"><br />\u000aMany more favourites followed: <em>Gulon mein rang bhare, </em>I understand was the song with which Mehdi Hassan began his career. A haunting number, it has a delicately tragic air about it.&nbsp;</div><div style="font-family: Georgia,'Times New Roman',serif; text-align: justify;"></div><div class="separator" style="clear: both; text-align: center;"><br />\u000a</div><object class="BLOGGER-youtube-video" classid="clsid:D27CDB6E-AE6D-11cf-96B8-444553540000" codebase="http://download.macromedia.com/pub/shockwave/cabs/flash/swflash.cab#version=6,0,40,0" data-thumbnail-src="http://3.gvt0.com/vi/V_3mLNLEQn8/0.jpg" height="266" width="320"><param name="movie" value="http://www.youtube.com/v/V_3mLNLEQn8&fs=1&source=uds" /><param name="bgcolor" value="#FFFFFF" /><param name="allowFullScreen" value="true" /><embed width="320" height="266"  src="http://www.youtube.com/v/V_3mLNLEQn8&fs=1&source=uds" type="application/x-shockwave-flash" allowfullscreen="true"></embed></object><br />\u000a<div style="font-family: Georgia,'Times New Roman',serif; text-align: justify;"><br />\u000a</div><div style="font-family: Georgia,'Times New Roman',serif; text-align: justify;">I did not chance to hear the all-time classic <em>Abke hum bichde </em>for many more years. The early versions of this song set in raga Bibhas were never equalled for poignancy or purity of sound even by Mehdi Hassan himself in subsequent performances or recordings.</div><div style="font-family: Georgia,'Times New Roman',serif; text-align: justify;"><br />\u000aTo me, Mehdi Hassan was at his simple, nuanced, natural, sophisticated best in <em>Dekh to dil ke jaanse uthta hai, Yeh dhuan sa kahan se uthta hai. </em>If that description sounds contradictory, try singing it. You\u2019ll see what I mean. Sheer genius\u2014all art and no artifice.</div><div style="font-family: Georgia,'Times New Roman',serif; text-align: justify;"><br />\u000a<a href="http://afterglowutkarsh.blogspot.in/2011/02/yeh-dhuan-sa-kahan-se-uthta-hai-mehdi.html">http://afterglowutkarsh.blogspot.in/2011/02/yeh-dhuan-sa-kahan-se-uthta-hai-mehdi.html</a></div><div style="font-family: Georgia,'Times New Roman',serif; text-align: justify;"><br />\u000aI am almost forgetting his songs in Punjabi and Bengali. His <em>Bulleya kee jaana main kaun </em>must quite simply be the best song ever sung in Punjabi. Forgive me for the exaggeration, the hyperbole. Just for today.</div><div style="font-family: Georgia,'Times New Roman',serif; text-align: justify;"><br />\u000a</div><div class="separator" style="clear: both; text-align: center;"><object class="BLOGGER-youtube-video" classid="clsid:D27CDB6E-AE6D-11cf-96B8-444553540000" codebase="http://download.macromedia.com/pub/shockwave/cabs/flash/swflash.cab#version=6,0,40,0" data-thumbnail-src="http://0.gvt0.com/vi/JMbqs2QbZZg/0.jpg" height="266" width="320"><param name="movie" value="http://www.youtube.com/v/JMbqs2QbZZg&fs=1&source=uds" /><param name="bgcolor" value="#FFFFFF" /><param name="allowFullScreen" value="true" /><embed width="320" height="266"  src="http://www.youtube.com/v/JMbqs2QbZZg&fs=1&source=uds" type="application/x-shockwave-flash" allowfullscreen="true"></embed></object></div><div style="font-family: Georgia,'Times New Roman',serif; text-align: justify;"><br />\u000a</div><div style="font-family: Georgia,'Times New Roman',serif; text-align: justify;">Mehdi Hassan\u2019s voice was stilled years ago by disease. Yet hope raged against hope in the bosoms of millions of fans that he would win his last battle. That was not to be. And never will come another like him.</div><div style="font-family: Georgia,'Times New Roman',serif; text-align: justify;"><br />\u000a</div><div class="separator" style="clear: both; text-align: center;"><object class="BLOGGER-youtube-video" classid="clsid:D27CDB6E-AE6D-11cf-96B8-444553540000" codebase="http://download.macromedia.com/pub/shockwave/cabs/flash/swflash.cab#version=6,0,40,0" data-thumbnail-src="http://3.gvt0.com/vi/2ZaHVRkxOdc/0.jpg" height="266" width="320"><param name="movie" value="http://www.youtube.com/v/2ZaHVRkxOdc&fs=1&source=uds" /><param name="bgcolor" value="#FFFFFF" /><param name="allowFullScreen" value="true" /><embed width="320" height="266"  src="http://www.youtube.com/v/2ZaHVRkxOdc&fs=1&source=uds" type="application/x-shockwave-flash" allowfullscreen="true"></embed></object></div><div style="font-family: Georgia,'Times New Roman',serif; text-align: justify;"><br />\u000a<em>Abke hum bichde to shayad kabhi khwabonmein \u2026 milenge.</em></div></div>
p3
sVkind
p4
Vblogger#post
p5
sVlabels
p6
(lp7
VV Ramnarayan
p8
asVtitle
p9
VYeh dhuan sa kahan se uthta hai?
p10
sVurl
p11
Vhttp://srutimag.blogspot.com/2012/06/yeh-dhuan-sa-kahan-se-uthta-hai_14.html
p12
sVauthor
p13
(dp14
Vurl
p15
Vhttp://www.blogger.com/profile/07438923380988482057
p16
sVimage
p17
(dp18
Vurl
p19
Vhttp://4.bp.blogspot.com/-BatgBQQxSS8/TsyaRVkALGI/AAAAAAAAADI/pLRMa46usw4/s45/Sruti%25252BLogo.jpg
p20
ssVdisplayName
p21
VSruti Magazine
p22
sVid
p23
V07438923380988482057
p24
ssVupdated
p25
V2012-07-03T10:48:19+05:30
p26
sVreplies
p27
(dp28
VtotalItems
p29
V1
sVselfLink
p30
Vhttps://www.googleapis.com/blogger/v3/blogs/4158155864744163029/posts/4718342972936500298/comments
p31
ssVblog
p32
(dp33
Vid
p34
V4158155864744163029
p35
ssVpublished
p36
V2012-06-14T10:00:00+05:30
p37
sVid
p38
V4718342972936500298
p39
sVselfLink
p40
Vhttps://www.googleapis.com/blogger/v3/blogs/4158155864744163029/posts/4718342972936500298
p41
s.