(dp1
Vcontent
p2
V<div dir="ltr" style="text-align: left;" trbidi="on">\u000a<div class="MsoPlainText">\u000a<span style="font-size: small;"><span style="font-family: Georgia,&quot;Times New Roman&quot;,serif;"><b>Trichur Brothers</b></span></span></div>\u000a<div class="MsoPlainText">\u000a<br /></div>\u000a<div class="separator" style="clear: both; text-align: center;">\u000a<a href="http://1.bp.blogspot.com/-c6ffCrAm2BM/UKpo9E8RebI/AAAAAAAACVo/wNQGCTA7F9Y/s1600/trichur+bros1.jpg" imageanchor="1" style="clear: left; float: left; margin-bottom: 1em; margin-right: 1em;"><img border="0" height="240" src="http://1.bp.blogspot.com/-c6ffCrAm2BM/UKpo9E8RebI/AAAAAAAACVo/wNQGCTA7F9Y/s320/trichur+bros1.jpg" width="320" /></a></div>\u000a<div class="MsoPlainText" style="text-align: justify;">\u000a<span style="font-size: small;"><span style="font-family: Georgia,&quot;Times New Roman&quot;,serif;">Srikrishna Mohan\u000aand Ramkumar Mohan have been prominent in the Carnatic music circuit in the\u000apast few years as a pair of vocalists with strong, expressive voices and a\u000apleasing delivery style. The sons of senior mridanga vidwan Trichur Mohan, the\u000ayoung siblings have impressed one and all with their extrovert presentation\u000ajuxtaposed by its emotive content and sensitivity to raga music.</span></span></div>\u000a<div class="MsoPlainText">\u000a<br /></div>\u000a<div class="MsoPlainText" style="text-align: justify;">\u000a<span style="font-size: small;"><span style="font-family: Georgia,&quot;Times New Roman&quot;,serif;">Belonging to a\u000atraditional business family from Thrissur, Kerala, the duo had their early lessons\u000ain Carnatic music from their father, a fact that should explain their\u000anoticeable strength in the rhythmic aspect of music. Now a fixture in the\u000aChennai music season, the brothers have exerted a charismatric appeal over\u000aaudiences, with their clean good looks, dignified stage presence and their\u000amaintenance of&nbsp; the integrity of their\u000apathantara. </span></span></div>\u000a<div class="MsoPlainText">\u000a<br /></div>\u000a<div class="MsoPlainText" style="text-align: justify;">\u000a<span style="font-size: small;"><span style="font-family: Georgia,&quot;Times New Roman&quot;,serif;">Srikrishna and\u000aRamkumar have trained under Srimati Balamani Eswar, Prof. Neyyattinkara\u000aMohanachandran&nbsp; for over a decade, and\u000anow PS Narayanaswami, the renowned Sangita Kala Acharya from the Semmangudi\u000aschool. The late TM Thyagarajan and Govindan Namboothiri have been their other\u000amentors.</span></span></div>\u000a<div class="MsoPlainText" style="text-align: justify;">\u000a<br /></div>\u000a<div class="MsoPlainText" style="text-align: justify;">\u000a<span style="font-size: small;"><span style="font-family: Georgia,&quot;Times New Roman&quot;,serif;">Popular\u000aperformers in India and abroad, both on stage and radio and television, the\u000ayoung vocalists have already won many an award. A four-and-a-half hour concert\u000aat Toronto at the tail-end of a tour of North America has been one of the\u000ahighlights of their travels abroad.</span></span></div>\u000a<div class="MsoPlainText" style="text-align: justify;">\u000a<br /></div>\u000a<div class="MsoPlainText" style="text-align: justify;">\u000a<span style="font-size: small;"><span style="font-family: Georgia,&quot;Times New Roman&quot;,serif;">The Trichur\u000aBrothers practise a special brand of raga alapana with both partners exchanging\u000aphrases long and short, in an equally distributed exploration of the ragas they\u000atake up. </span></span></div>\u000a<div class="MsoPlainText" style="text-align: justify;">\u000a<br /></div>\u000a<div class="MsoPlainText" style="text-align: justify;">\u000a<span style="font-size: small;"><span style="font-family: Georgia,&quot;Times New Roman&quot;,serif;">Along with\u000aTrichur R Mohan (mridangam), Vedanth Bharadwaj (acoustic guitar) and other\u000atalented musicians, the brothers have recently been performing in fusion\u000aconcerts. </span></span></div>\u000a<div class="MsoPlainText" style="text-align: justify;">\u000a<br /></div>\u000a<div class="MsoPlainText" style="text-align: justify;">\u000a<span style="font-size: small;"><span style="font-family: Georgia,&quot;Times New Roman&quot;,serif;">The Trichur\u000aBrothers are among the bright prospects in the Carnatic music scene, provided\u000athey continue to adhere to sound traditional values, even as they pursue\u000ainnovative goals.</span></span></div>\u000a</div>\u000a
p3
sVkind
p4
Vblogger#post
p5
sVlabels
p6
(lp7
VV Ramnarayan
p8
asVtitle
p9
VMusicians to watch
p10
sVurl
p11
Vhttp://srutimag.blogspot.com/2012/11/musicians-to-watch.html
p12
sVauthor
p13
(dp14
Vurl
p15
Vhttp://www.blogger.com/profile/07438923380988482057
p16
sVimage
p17
(dp18
Vurl
p19
Vhttp://4.bp.blogspot.com/-BatgBQQxSS8/TsyaRVkALGI/AAAAAAAAADI/pLRMa46usw4/s45/Sruti%25252BLogo.jpg
p20
ssVdisplayName
p21
VSruti Magazine
p22
sVid
p23
V07438923380988482057
p24
ssVupdated
p25
V2012-11-20T09:31:45+05:30
p26
sVreplies
p27
(dp28
VtotalItems
p29
V0
sVselfLink
p30
Vhttps://www.googleapis.com/blogger/v3/blogs/4158155864744163029/posts/6342560986430366655/comments
p31
ssVblog
p32
(dp33
Vid
p34
V4158155864744163029
p35
ssVpublished
p36
V2012-11-19T22:45:00+05:30
p37
sVid
p38
V6342560986430366655
p39
sVselfLink
p40
Vhttps://www.googleapis.com/blogger/v3/blogs/4158155864744163029/posts/6342560986430366655
p41
s.