(dp1
Vcontent
p2
V<div dir="ltr" style="text-align: left;" trbidi="on"><div style="font-family: Georgia,&quot;Times New Roman&quot;,serif; text-align: justify;"><b>By Bala Shankar</b><br />\u000a&nbsp;</div><div style="font-family: Georgia,&quot;Times New Roman&quot;,serif; text-align: justify;">The music season is slowly acquiring industrial proportions. Sponsorships of <!--[if gte mso 9]><xml>  <w:WordDocument>   <w:View>Normal</w:View>   <w:Zoom>0</w:Zoom>   <w:DoNotOptimizeForBrowser/>  </w:WordDocument> </xml><![endif]--><span style="font-family: &quot;Rupee Foradian&quot;; font-size: 12.0pt; mso-bidi-font-family: &quot;Times New Roman&quot;; mso-bidi-font-size: 11.0pt; mso-bidi-language: AR-SA; mso-fareast-font-family: Calibri; mso-fareast-language: EN-US;">`</span>10 lakh and <!--[if gte mso 9]><xml>  <w:WordDocument>   <w:View>Normal</w:View>   <w:Zoom>0</w:Zoom>   <w:DoNotOptimizeForBrowser/>  </w:WordDocument> </xml><![endif]--><span style="font-family: &quot;Rupee Foradian&quot;; font-size: 12.0pt; mso-bidi-font-family: &quot;Times New Roman&quot;; mso-bidi-font-size: 11.0pt; mso-bidi-language: AR-SA; mso-fareast-font-family: Calibri; mso-fareast-language: EN-US;">`</span>20 lakh are being bandied about. Banner makers are busier than ever. The media is in the thick of it. Sabhas are taking a cue from BCCI. CPL may follow IPL.<br />\u000a&nbsp;</div><div style="font-family: Georgia,&quot;Times New Roman&quot;,serif; text-align: justify;">It used to be a tough job to be a sabha organizer in the past. Making both ends meet was a challenge. This is no more the case. Nanganallur has 3 or 4 sabhas, every other suburb has its own and the Mylapore enclave has swollen money chests, according to the grapevine. A second tier sabha well known in its league, apparently budgets a <!--[if gte mso 9]><xml>  <w:WordDocument>   <w:View>Normal</w:View>   <w:Zoom>0</w:Zoom>   <w:DoNotOptimizeForBrowser/>  </w:WordDocument> </xml><![endif]--><span style="font-family: &quot;Rupee Foradian&quot;; font-size: 12.0pt; mso-bidi-font-family: &quot;Times New Roman&quot;; mso-bidi-font-size: 11.0pt; mso-bidi-language: AR-SA; mso-fareast-font-family: Calibri; mso-fareast-language: EN-US;">`</span>75 lakh festival every year and romps home with plenty. <br />\u000a&nbsp;</div><div style="font-family: Georgia,&quot;Times New Roman&quot;,serif; text-align: justify;">No one is complaining though, not even the rasikas who sometimes pay <!--[if gte mso 9]><xml>  <w:WordDocument>   <w:View>Normal</w:View>   <w:Zoom>0</w:Zoom>   <w:DoNotOptimizeForBrowser/>  </w:WordDocument> </xml><![endif]--><span style="font-family: &quot;Rupee Foradian&quot;; font-size: 12.0pt; mso-bidi-font-family: &quot;Times New Roman&quot;; mso-bidi-font-size: 11.0pt; mso-bidi-language: AR-SA; mso-fareast-font-family: Calibri; mso-fareast-language: EN-US;">`</span>500 for a concert, only to be told to squat on the stage that offers little room for lazy manoeuvres or an involuntary yawn. Artiste remuneration has leapfrogged and Carnatic music suddenly seems to be a viable first profession, even if it is only for a chosen few. <br />\u000a&nbsp;</div><div style="font-family: Georgia,&quot;Times New Roman&quot;,serif; text-align: justify;">As for the sabhas, the clamour for financial accountability is not far behind. Any organization which collects money from the public and sponsors owes it to them. How do we know for sure that the money is well spent? If you look at the condition of a few leading sabhas, not all is well on the expenditure side of the chart. Rasikas sometimes pay <!--[if gte mso 9]><xml>  <w:WordDocument>   <w:View>Normal</w:View>   <w:Zoom>0</w:Zoom>   <w:DoNotOptimizeForBrowser/>  </w:WordDocument> </xml><![endif]--><span style="font-family: &quot;Rupee Foradian&quot;; font-size: 12.0pt; mso-bidi-font-family: &quot;Times New Roman&quot;; mso-bidi-font-size: 11.0pt; mso-bidi-language: AR-SA; mso-fareast-font-family: Calibri; mso-fareast-language: EN-US;">`</span>500 and <!--[if gte mso 9]><xml>  <w:WordDocument>   <w:View>Normal</w:View>   <w:Zoom>0</w:Zoom>   <w:DoNotOptimizeForBrowser/>  </w:WordDocument> </xml><![endif]--><span style="font-family: &quot;Rupee Foradian&quot;; font-size: 12.0pt; mso-bidi-font-family: &quot;Times New Roman&quot;; mso-bidi-font-size: 11.0pt; mso-bidi-language: AR-SA; mso-fareast-font-family: Calibri; mso-fareast-language: EN-US;">`</span>1000 to listen to accompanying sounds of rainwater and bus horns, if they have a seat on land and not on water. Audio systems still bear the 1960 marks. A coat of paint and a visit by the decorator prior to the season are about the best spruce up you would come across. For a <!--[if gte mso 9]><xml>  <w:WordDocument>   <w:View>Normal</w:View>   <w:Zoom>0</w:Zoom>   <w:DoNotOptimizeForBrowser/>  </w:WordDocument> </xml><![endif]--><span style="font-family: &quot;Rupee Foradian&quot;; font-size: 12.0pt; mso-bidi-font-family: &quot;Times New Roman&quot;; mso-bidi-font-size: 11.0pt; mso-bidi-language: AR-SA; mso-fareast-font-family: Calibri; mso-fareast-language: EN-US;">`</span>50 ticket, you can enjoy the best seats in airconditioned comfort with Dolby digital effect and more, if you go to a cinema. Cinema and live music don\u2019t compare, but in audience experience terms, they can be made to. <br />\u000a&nbsp;</div><div style="font-family: Georgia,&quot;Times New Roman&quot;,serif; text-align: justify;">Not all artistes are well paid. The scales are so hush hush that neither the well paid nor the lowly paid want to talk about it. Rumours make the news here. Service industries have norms of what percentage of revenues goes towards remuneration, how much for upkeep of facilities and upgrades. Do sabhas have such norms? Barring a tiny crop of organizations, the accounts are not in the public domain. They need to be. The paying public and the artistic community deserve this courtesy. As individual sponsorships have given way to corporate support, this is even more imperative. This public scrutiny is a first step to better governance standards as well. Right now, the less said about it, the better, as sabhas are largely fiefdoms of families and coteries. They need to wake up sooner rather than later.</div></div>
p3
sVkind
p4
Vblogger#post
p5
sVlabels
p6
(lp7
VBala Shankar
p8
asVtitle
p9
VTowards transparency norms
p10
sVurl
p11
Vhttp://srutimag.blogspot.com/2012/02/towards-transparency-norms.html
p12
sVauthor
p13
(dp14
Vurl
p15
Vhttp://www.blogger.com/profile/07438923380988482057
p16
sVimage
p17
(dp18
Vurl
p19
Vhttp://4.bp.blogspot.com/-BatgBQQxSS8/TsyaRVkALGI/AAAAAAAAADI/pLRMa46usw4/s45/Sruti%25252BLogo.jpg
p20
ssVdisplayName
p21
VSruti Magazine
p22
sVid
p23
V07438923380988482057
p24
ssVupdated
p25
V2012-02-01T15:26:24+05:30
p26
sVreplies
p27
(dp28
VtotalItems
p29
V0
sVselfLink
p30
Vhttps://www.googleapis.com/blogger/v3/blogs/4158155864744163029/posts/7942443507467480011/comments
p31
ssVblog
p32
(dp33
Vid
p34
V4158155864744163029
p35
ssVpublished
p36
V2012-02-01T15:26:00+05:30
p37
sVid
p38
V7942443507467480011
p39
sVselfLink
p40
Vhttps://www.googleapis.com/blogger/v3/blogs/4158155864744163029/posts/7942443507467480011
p41
s.