(dp1
Vcontent
p2
V<div dir="ltr" style="text-align: left;" trbidi="on">\u000a<div style="text-align: justify;">\u000a<b><span style="font-family: Georgia, Times New Roman, serif;">Text of speech at 37th annual event of the Semmangudi Srinivasa Iyer Golden Jubilee Committee</span></b></div>\u000a<div style="text-align: justify;">\u000a<b><span style="font-family: Georgia, Times New Roman, serif;"><br /></span></b></div>\u000a<div style="text-align: justify;">\u000a<b><span style="font-family: Georgia, Times New Roman, serif;">By V Ramnarayan</span></b></div>\u000a<div style="text-align: justify;">\u000a<b><span style="font-family: Georgia, Times New Roman, serif;"><br /></span></b>\u000a</div>\u000a<div class="MsoBodyText3" style="text-indent: 0.5in;">\u000a<div class="separator" style="clear: both; text-align: center;">\u000a</div>\u000a<div class="separator" style="clear: both; text-align: center;">\u000a<a href="http://3.bp.blogspot.com/-NBFw-YjSzRc/UfIWZyX28rI/AAAAAAAADm8/1P6AttEdTpU/s1600/Semmangudi.jpg" imageanchor="1" style="clear: right; float: right; margin-bottom: 1em; margin-left: 1em;"><img border="0" height="320" src="http://3.bp.blogspot.com/-NBFw-YjSzRc/UfIWZyX28rI/AAAAAAAADm8/1P6AttEdTpU/s320/Semmangudi.jpg" width="243" /></a></div>\u000a<div style="text-align: justify;">\u000a<i><span style="font-family: Georgia, Times New Roman, serif;">(Some months\u000aago, we heard Trivandrum Seethalakshmi\u2014who now lives in Columbus, Ohio\u2014at this\u000avery venue. Her student Aparajita, who sang the prayer today, did her proud.\u000aCongratulations, Aparajita.<o:p></o:p></span></i></div>\u000a</div>\u000a<div class="MsoBodyText3" style="text-indent: 0.5in;">\u000a<div style="text-align: justify;">\u000a<i><span style="font-family: Georgia, Times New Roman, serif;"><br /></span></i></div>\u000a</div>\u000a<div class="MsoBodyText3" style="text-indent: 0.5in;">\u000a<div style="text-align: justify;">\u000a<i><span style="font-family: Georgia, Times New Roman, serif;">Most of you\u000apresent here probably know Semmangudi Srinivasa Iyer and his music better than\u000aI. But I have one advantage over all of you. I played cricket with Semmangudi\u2019s\u000ason Radhakrishnan who is present here. I remember a news report from 1967. The\u000aheadline said \u201cRadhakrishnan scores a century\u201d, and the opening sentence, \u201cS\u000aRadhakrishnan, son of Semmangudi Srinivasa Iyer, scored a hundred\u2026\u201d)<o:p></o:p></span></i></div>\u000a</div>\u000a<div class="MsoBodyText3" style="text-indent: 0.5in;">\u000a<div style="text-align: justify;">\u000a<span style="font-family: Georgia, Times New Roman, serif;"><br /></span></div>\u000a</div>\u000a<div class="MsoBodyText3" style="text-indent: 0.5in;">\u000a<div style="text-align: justify;">\u000a<span style="font-family: Georgia, Times New Roman, serif;">Smt Kalyani Sharma, Sri\u000aRamabhadran, Sri PS Narayanaswamy, Sri V Subrahmaniam, Sri Vasanth Kumar, Ladies and gentlemen,<o:p></o:p></span></div>\u000a</div>\u000a<div class="MsoNormal" style="mso-layout-grid-align: none; mso-margin-bottom-alt: auto; mso-margin-top-alt: auto; text-align: justify; text-autospace: none; text-indent: .5in;">\u000a<div style="text-align: justify;">\u000a<span style="font-family: Georgia, Times New Roman, serif;"><br /></span></div>\u000a</div>\u000a<div class="MsoNormal" style="mso-layout-grid-align: none; mso-margin-bottom-alt: auto; mso-margin-top-alt: auto; text-align: justify; text-autospace: none; text-indent: .5in;">\u000a<div style="text-align: justify;">\u000a<span style="font-family: Georgia, Times New Roman, serif;">He was the pitamaha, the\u000apatriarch of Carnatic music. His singing was powerful, deeply moving. His\u000aprofound scholarship never hampered his creative genius. <o:p></o:p></span></div>\u000a</div>\u000a<div class="MsoNormal" style="mso-layout-grid-align: none; mso-margin-bottom-alt: auto; mso-margin-top-alt: auto; text-align: justify; text-autospace: none; text-indent: .5in;">\u000a<div style="text-align: justify;">\u000a<span style="font-family: Georgia, Times New Roman, serif;"><br /></span></div>\u000a</div>\u000a<div class="MsoNormal" style="mso-layout-grid-align: none; mso-margin-bottom-alt: auto; mso-margin-top-alt: auto; text-align: justify; text-autospace: none; text-indent: .5in;">\u000a<div style="text-align: justify;">\u000a<span style="font-family: Georgia, Times New Roman, serif;">He was a star in the midst of\u000astars like Ariyakudi, Madurai Mani Iyer, Musiri and GNB. <o:p></o:p></span></div>\u000a</div>\u000a<div class="MsoNormal" style="mso-layout-grid-align: none; mso-margin-bottom-alt: auto; mso-margin-top-alt: auto; text-align: justify; text-autospace: none; text-indent: .5in;">\u000a<div style="text-align: justify;">\u000a<span style="font-family: Georgia, Times New Roman, serif;"><br /></span></div>\u000a</div>\u000a<div class="MsoNormal" style="mso-layout-grid-align: none; mso-margin-bottom-alt: auto; mso-margin-top-alt: auto; text-align: justify; text-autospace: none; text-indent: .5in;">\u000a<div style="text-align: justify;">\u000a<span style="font-family: Georgia, Times New Roman, serif;">He battled a gruff and nasal\u000avoice all his life and managed to produce grand music despite having to fight\u000athose wayward vocal chords every inch of the way.<o:p></o:p></span></div>\u000a</div>\u000a<div class="MsoNormal" style="mso-layout-grid-align: none; mso-margin-bottom-alt: auto; mso-margin-top-alt: auto; text-align: justify; text-autospace: none; text-indent: .5in;">\u000a<div style="text-align: justify;">\u000a<span style="font-family: Georgia, Times New Roman, serif;"><br /></span></div>\u000a</div>\u000a<div class="MsoNormal" style="mso-layout-grid-align: none; mso-margin-bottom-alt: auto; mso-margin-top-alt: auto; text-align: justify; text-autospace: none; text-indent: .5in;">\u000a<div style="text-align: justify;">\u000a<span style="font-family: Georgia, Times New Roman, serif;">Through that gruelling vocal\u000aodyssey, it often seemed he was pleading with God, even wrestling with Him as\u000ahe struggled to overcome his handicap.<o:p></o:p></span></div>\u000a</div>\u000a<div class="MsoNormal" style="mso-layout-grid-align: none; mso-margin-bottom-alt: auto; mso-margin-top-alt: auto; text-align: justify; text-autospace: none; text-indent: .5in;">\u000a<div style="text-align: justify;">\u000a<span style="font-family: Georgia, Times New Roman, serif;"><br /></span></div>\u000a</div>\u000a<div class="MsoNormal" style="mso-layout-grid-align: none; mso-margin-bottom-alt: auto; mso-margin-top-alt: auto; text-align: justify; text-autospace: none; text-indent: .5in;">\u000a<div style="text-align: justify;">\u000a<span style="font-family: Georgia, Times New Roman, serif;">It could not stop Semmangudi\u000aSrinivasa Iyer from becoming arguably the top Carnatic musician of the 20th\u000acentury.<o:p></o:p></span></div>\u000a</div>\u000a<div class="MsoNormal" style="mso-layout-grid-align: none; mso-margin-bottom-alt: auto; mso-margin-top-alt: auto; text-align: justify; text-autospace: none; text-indent: .5in;">\u000a<div style="text-align: justify;">\u000a<span style="font-family: Georgia, Times New Roman, serif;"><br /></span></div>\u000a</div>\u000a<div class="MsoNormal" style="mso-layout-grid-align: none; mso-margin-bottom-alt: auto; mso-margin-top-alt: auto; text-align: justify; text-autospace: none; text-indent: .5in;">\u000a<div style="text-align: justify;">\u000a<span style="font-family: Georgia, Times New Roman, serif;">Aeolus or SV Seshadri once\u000awrote in Shankar\u2019s Weekly:<o:p></o:p></span></div>\u000a</div>\u000a<div class="MsoNormal" style="mso-layout-grid-align: none; mso-margin-bottom-alt: auto; mso-margin-top-alt: auto; text-align: justify; text-autospace: none; text-indent: .5in;">\u000a<div style="text-align: justify;">\u000a<i><span style="font-family: Georgia, Times New Roman, serif;"><br /></span></i></div>\u000a</div>\u000a<div class="MsoNormal" style="mso-layout-grid-align: none; mso-margin-bottom-alt: auto; mso-margin-top-alt: auto; text-align: justify; text-autospace: none; text-indent: .5in;">\u000a<div style="text-align: justify;">\u000a<i><span style="font-family: Georgia, Times New Roman, serif;">Semmangudi\u2019s imagination\u000ais kriti-centred. The central piece of reality for him is the kriti, and all\u000aother components like raga prastara, niraval and swara go to reinforce and\u000aaugment the bhava of the kriti. They partake of the compactness and orderliness\u000aof the kriti. The mood of the raga is derived from the import of the song.<o:p></o:p></span></i></div>\u000a</div>\u000a<div class="MsoNormal" style="mso-layout-grid-align: none; mso-margin-bottom-alt: auto; mso-margin-top-alt: auto; text-align: justify; text-autospace: none; text-indent: .5in;">\u000a<div style="text-align: justify;">\u000a<i><span style="font-family: Georgia, Times New Roman, serif;"><br /></span></i></div>\u000a</div>\u000a<div class="MsoNormal" style="mso-layout-grid-align: none; mso-margin-bottom-alt: auto; mso-margin-top-alt: auto; text-align: justify; text-autospace: none; text-indent: .5in;">\u000a<div style="text-align: justify;">\u000a<i><span style="font-family: Georgia, Times New Roman, serif;">Semmangudi has no equal in\u000abringing out the bhava of a kriti. He communicates the feeling and emotion of\u000athe sahitya with an intensity that has the imprimatur of a personal faith. His\u000amusic is not merely brilliant but devout and moving. <o:p></o:p></span></i></div>\u000a</div>\u000a<div class="MsoNormal" style="mso-layout-grid-align: none; mso-margin-bottom-alt: auto; mso-margin-top-alt: auto; text-align: justify; text-autospace: none; text-indent: .5in;">\u000a<div style="text-align: justify;">\u000a<span style="font-family: Georgia, Times New Roman, serif;"><br /></span></div>\u000a</div>\u000a<div class="MsoNormal" style="mso-layout-grid-align: none; mso-margin-bottom-alt: auto; mso-margin-top-alt: auto; text-align: justify; text-autospace: none; text-indent: .5in;">\u000a<div style="text-align: justify;">\u000a<span style="font-family: Georgia, Times New Roman, serif;">We\u000aall know that Kalki Krishnamurti once accused Semmangudi of \u2018murdering\u2019 the text,\u000aas in the transformation of \u2018Siva, siva, siva enarada\u2019 to \u2018Jiva, jiva, jiva\u000aenarada\u2019. <o:p></o:p></span></div>\u000a</div>\u000a<div class="MsoNormal" style="mso-layout-grid-align: none; mso-margin-bottom-alt: auto; mso-margin-top-alt: auto; text-align: justify; text-autospace: none; text-indent: .5in;">\u000a<div style="text-align: justify;">\u000a<span style="font-family: Georgia, Times New Roman, serif;"><br /></span></div>\u000a</div>\u000a<div class="MsoNormal" style="mso-layout-grid-align: none; mso-margin-bottom-alt: auto; mso-margin-top-alt: auto; text-align: justify; text-autospace: none; text-indent: .5in;">\u000a<div style="text-align: justify;">\u000a<span style="font-family: Georgia, Times New Roman, serif;">Journalist\u000aGowri Ramnarayan wondered in an article:<b><i>&nbsp;</i></b></span></div>\u000a</div>\u000a<div class="MsoNormal" style="mso-layout-grid-align: none; mso-margin-bottom-alt: auto; mso-margin-top-alt: auto; text-align: justify; text-autospace: none; text-indent: .5in;">\u000a<div style="text-align: justify;">\u000a<span style="font-family: Georgia, Times New Roman, serif;"><i><br /></i></span></div>\u000a</div>\u000a<div class="MsoNormal" style="mso-layout-grid-align: none; mso-margin-bottom-alt: auto; mso-margin-top-alt: auto; text-align: justify; text-autospace: none; text-indent: .5in;">\u000a<div style="text-align: justify;">\u000a<span style="font-family: Georgia, Times New Roman, serif;"><i>This<b> </b>attitude to lyrics\u000awas surprising in one who spent years editing the compositions of Swati\u000aTirunal, who was in ecstasies over the diction of Muthuswami Dikshitar\u2019s\u000aNavavarana kritis. Syama Sastry\u2019s swarajatis bear the Semmangudi stamp, but the\u000aaccent is on ragabhava.<o:p></o:p></i></span></div>\u000a</div>\u000a<div class="MsoNormal" style="mso-layout-grid-align: none; mso-margin-bottom-alt: auto; mso-margin-top-alt: auto; text-align: justify; text-autospace: none; text-indent: .5in;">\u000a<div style="text-align: justify;">\u000a<span style="font-family: Georgia, Times New Roman, serif;"><br /></span></div>\u000a</div>\u000a<div class="MsoNormal" style="mso-layout-grid-align: none; mso-margin-bottom-alt: auto; mso-margin-top-alt: auto; text-align: justify; text-autospace: none; text-indent: .5in;">\u000a<div style="text-align: justify;">\u000a<span style="font-family: Georgia, Times New Roman, serif;">If Ariyakudi shaped the\u000astructure of the modern Carnatic music kutcheri, Semmangudi defined its grammar\u000aand aesthetics. There was no room for thrills and spills in it; crooning was\u000aanathema to him. The Semmangudi influence has been responsible for the dignity\u000aand majesty that true lovers of Carnatic music associate with it.<o:p></o:p></span></div>\u000a</div>\u000a<div class="MsoNormal" style="mso-layout-grid-align: none; mso-margin-bottom-alt: auto; mso-margin-top-alt: auto; text-align: justify; text-autospace: none; text-indent: .5in;">\u000a<div style="text-align: justify;">\u000a<span style="font-family: Georgia, Times New Roman, serif;"><br /></span></div>\u000a</div>\u000a<div class="MsoNormal" style="mso-layout-grid-align: none; mso-margin-bottom-alt: auto; mso-margin-top-alt: auto; text-align: justify; text-autospace: none; text-indent: .5in;">\u000a<div style="text-align: justify;">\u000a<span style="font-family: Georgia, Times New Roman, serif;">According to Semmangudi, his\u000afirst guru Sakharama Rao was a saint, \u201cthough a martinet\u201d when it came to\u000amatters musical.<o:p></o:p></span></div>\u000a</div>\u000a<div class="MsoNormal" style="mso-layout-grid-align: none; mso-margin-bottom-alt: auto; mso-margin-top-alt: auto; text-align: justify; text-autospace: none; text-indent: .5in;">\u000a<div style="text-align: justify;">\u000a<span style="font-family: Georgia, Times New Roman, serif;"><br /></span></div>\u000a</div>\u000a<div class="MsoNormal" style="mso-layout-grid-align: none; mso-margin-bottom-alt: auto; mso-margin-top-alt: auto; text-align: justify; text-autospace: none; text-indent: .5in;">\u000a<div style="text-align: justify;">\u000a<span style="font-family: Georgia, Times New Roman, serif;">Of Umayalpuram Swaminatha\u000aIyer of Tyagaraja\u2019s sishya parampara he said, \u201cHe made me realise that I stood\u000aon the shores of a limitless ocean.\u201d <o:p></o:p></span></div>\u000a</div>\u000a<div class="MsoNormal" style="mso-layout-grid-align: none; mso-margin-bottom-alt: auto; mso-margin-top-alt: auto; text-align: justify; text-autospace: none; text-indent: .5in;">\u000a<div style="text-align: justify;">\u000a<span style="font-family: Georgia, Times New Roman, serif;"><br /></span></div>\u000a</div>\u000a<div class="MsoNormal" style="mso-layout-grid-align: none; mso-margin-bottom-alt: auto; mso-margin-top-alt: auto; text-align: justify; text-autospace: none; text-indent: .5in;">\u000a<div style="text-align: justify;">\u000a<span style="font-family: Georgia, Times New Roman, serif;">When Srinivasan\u2019s adolescent\u000avoice broke, it turned so harsh that his uncle advised him to switch to playing\u000athe violin.<o:p></o:p></span></div>\u000a</div>\u000a<div class="MsoNormal" style="mso-layout-grid-align: none; mso-margin-bottom-alt: auto; mso-margin-top-alt: auto; text-align: justify; text-autospace: none; text-indent: .5in;">\u000a<div style="text-align: justify;">\u000a<span style="font-family: Georgia, Times New Roman, serif;"><br /></span></div>\u000a</div>\u000a<div class="MsoNormal" style="mso-layout-grid-align: none; mso-margin-bottom-alt: auto; mso-margin-top-alt: auto; text-align: justify; text-autospace: none; text-indent: .5in;">\u000a<div style="text-align: justify;">\u000a<span style="font-family: Georgia, Times New Roman, serif;">That did not deter the young\u000aman. He was determined to conquer his troublesome voice. He practised,\u000apractised and practised. In his senior years he was to advise young aspirants\u000ato practise, practise, practise.<o:p></o:p></span></div>\u000a</div>\u000a<div class="MsoBodyText2" style="text-indent: 0.5in;">\u000a<div style="text-align: justify;">\u000a<span style="font-family: Georgia, Times New Roman, serif;"><br /></span></div>\u000a</div>\u000a<div class="MsoBodyText2" style="text-indent: 0.5in;">\u000a<div style="text-align: justify;">\u000a<span style="font-family: Georgia, Times New Roman, serif;">Maharajapuram\u000aViswanatha Iyer treated him like a son and denied him nothing by way of musical\u000aexposure. The disciple imbibed much from Viswanatha Iyer while accompanying him\u000aon the concert platform, but eschewed his flashy ornamentation and his\u000apartiality to Hindustani raga-s.<o:p></o:p></span></div>\u000a</div>\u000a<div class="MsoNormal" style="mso-layout-grid-align: none; mso-margin-bottom-alt: auto; mso-margin-top-alt: auto; text-align: justify; text-autospace: none; text-indent: .5in;">\u000a<div style="text-align: justify;">\u000a<span style="font-family: Georgia, Times New Roman, serif;"><br /></span></div>\u000a</div>\u000a<div class="MsoNormal" style="mso-layout-grid-align: none; mso-margin-bottom-alt: auto; mso-margin-top-alt: auto; text-align: justify; text-autospace: none; text-indent: .5in;">\u000a<div style="text-align: justify;">\u000a<span style="font-family: Georgia, Times New Roman, serif;">Once he made his concert\u000adebut in 1926, Semmangudi gained much support from senior accompanists. \u201cGhatam\u000aKothandarama Iyer watched over my music and my conduct,\u201d he said. The venerable\u000aDakshinamurthy Pillai gave him his blessings.<o:p></o:p></span></div>\u000a</div>\u000a<div class="MsoNormal" style="mso-layout-grid-align: none; mso-margin-bottom-alt: auto; mso-margin-top-alt: auto; text-align: justify; text-autospace: none; text-indent: .5in;">\u000a<div style="text-align: justify;">\u000a<span style="font-family: Georgia, Times New Roman, serif;"><br /></span></div>\u000a</div>\u000a<div class="MsoNormal" style="mso-layout-grid-align: none; mso-margin-bottom-alt: auto; mso-margin-top-alt: auto; text-align: justify; text-autospace: none; text-indent: .5in;">\u000a<div style="text-align: justify;">\u000a<span style="font-family: Georgia, Times New Roman, serif;">His progress thereafter was\u000aphenomenal. At 39, he was the youngest Carnatic musician in history to be\u000acrowned Sangita Kalanidhi.<o:p></o:p></span></div>\u000a</div>\u000a<div class="MsoNormal" style="mso-layout-grid-align: none; mso-margin-bottom-alt: auto; mso-margin-top-alt: auto; text-align: justify; text-autospace: none; text-indent: .5in;">\u000a<div style="text-align: justify;">\u000a<span style="font-family: Georgia, Times New Roman, serif;"><br /></span></div>\u000a</div>\u000a<div class="MsoNormal" style="mso-layout-grid-align: none; mso-margin-bottom-alt: auto; mso-margin-top-alt: auto; text-align: justify; text-autospace: none; text-indent: .5in;">\u000a<div style="text-align: justify;">\u000a<span style="font-family: Georgia, Times New Roman, serif;">Semmangudi attributed much of\u000athe emotional depth and comprehensive understanding of every raga he explored\u000ato the great nagaswaram music he heard in his formative years from such giants\u000aas Mannargudi Chinna Pakkiria Pillai, Kumbakonam Sivakozhundu, T.N. Rajaratnam\u000aPillai, Veeruchami Pillai. (He related to an audience at Mylapore\u2019s R.R. Sabha\u000aone day in the 1990s the story of how he as a young man used to cross the river\u000ato listen to the magical, mesmerising nagaswaram of Chinna Pakkiri\u2014after the\u000apiper had imbibed more than the divine spirit. That evening, Semmangudi went on\u000ato decry the use of amplification for what was an instrumental ensemble\u000adesigned for the open air processions of temple rituals. Mikes were his pet\u000aaversion.<o:p></o:p></span></div>\u000a</div>\u000a<div class="MsoNormal" style="mso-layout-grid-align: none; mso-margin-bottom-alt: auto; mso-margin-top-alt: auto; text-align: justify; text-autospace: none; text-indent: .5in;">\u000a<div style="text-align: justify;">\u000a<span style="font-family: Georgia, Times New Roman, serif;"><br /></span></div>\u000a</div>\u000a<div class="MsoNormal" style="mso-layout-grid-align: none; mso-margin-bottom-alt: auto; mso-margin-top-alt: auto; text-align: justify; text-autospace: none; text-indent: .5in;">\u000a<div style="text-align: justify;">\u000a<span style="font-family: Georgia, Times New Roman, serif;">Speaking to Gowri, he once\u000arecalled those nagaswara vidwans\u2019 <i>\u201cmallari rhythms launching the night\u000aprocessions of the deity around the streets. Midnight in Terku Veedi would\u000abring melodies divine\u2014Todi, Bhairavi, Shanmukhapriya, Kedaragaula. Those\u000anocturnal revelations stayed with him. They were to invest his music with\u000adepth, grandeur and incandescence.\u201d<o:p></o:p></i></span></div>\u000a</div>\u000a<div class="MsoNormal" style="mso-layout-grid-align: none; mso-margin-bottom-alt: auto; mso-margin-top-alt: auto; text-align: justify; text-autospace: none; text-indent: .5in;">\u000a<div style="text-align: justify;">\u000a<span style="font-family: Georgia, Times New Roman, serif;"><br /></span></div>\u000a</div>\u000a<div class="MsoNormal" style="mso-layout-grid-align: none; mso-margin-bottom-alt: auto; mso-margin-top-alt: auto; text-align: justify; text-autospace: none; text-indent: .5in;">\u000a<div style="text-align: justify;">\u000a<span style="font-family: Georgia, Times New Roman, serif;">Harikesanallur Muthiah\u000aBhagavatar was responsible for Semmangudi being invited to Travancore to help\u000ahim edit, notate and publish the compositions of Swati Tirunal. Succeeding\u000aBhagavatar as Principal of the Swati Tirunal College of Music, Semmangudi made a\u000amonumental impact on the Carnatic music scene in Kerala.<o:p></o:p></span></div>\u000a</div>\u000a<div class="MsoNormal" style="mso-layout-grid-align: none; mso-margin-bottom-alt: auto; mso-margin-top-alt: auto; text-align: justify; text-autospace: none; text-indent: .5in;">\u000a<div style="text-align: justify;">\u000a<span style="font-family: Georgia, Times New Roman, serif;"><br /></span></div>\u000a</div>\u000a<div class="MsoNormal" style="mso-layout-grid-align: none; mso-margin-bottom-alt: auto; mso-margin-top-alt: auto; text-align: justify; text-autospace: none; text-indent: .5in;">\u000a<div style="text-align: justify;">\u000a<span style="font-family: Georgia, Times New Roman, serif;">According to an obituary\u000atribute in <i>Frontline </i>(21 November 2003):<o:p></o:p></span></div>\u000a</div>\u000a<div class="MsoNormal" style="mso-layout-grid-align: none; mso-margin-bottom-alt: auto; mso-margin-top-alt: auto; text-align: justify; text-autospace: none; text-indent: .5in;">\u000a<div style="text-align: justify;">\u000a<i><span style="font-family: Georgia, Times New Roman, serif;"><br /></span></i></div>\u000a</div>\u000a<div class="MsoNormal" style="mso-layout-grid-align: none; mso-margin-bottom-alt: auto; mso-margin-top-alt: auto; text-align: justify; text-autospace: none; text-indent: .5in;">\u000a<div style="text-align: justify;">\u000a<i><span style="font-family: Georgia, Times New Roman, serif;">Semmangudi was a generous\u000ateacher who trained three generations of sishya-s. Students who stayed at his\u000ahome, remember his marvellous alapana-s alone at night, usually after a\u000aconcert.<o:p></o:p></span></i></div>\u000a</div>\u000a<div class="MsoNormal" style="mso-layout-grid-align: none; mso-margin-bottom-alt: auto; mso-margin-top-alt: auto; text-align: justify; text-autospace: none; text-indent: .5in;">\u000a<div style="text-align: justify;">\u000a<i><span style="font-family: Georgia, Times New Roman, serif;"><br /></span></i></div>\u000a</div>\u000a<div class="MsoNormal" style="mso-layout-grid-align: none; mso-margin-bottom-alt: auto; mso-margin-top-alt: auto; text-align: justify; text-autospace: none; text-indent: .5in;">\u000a<div style="text-align: justify;">\u000a<i><span style="font-family: Georgia, Times New Roman, serif;">Such was Semmangudi\u2019s\u000aveneration for the art he practised that everything he presented on the stage\u000awas gold\u2014honed and burnished. Though his alapana and sloka singing showed he\u000acould do anything with raga-s, evoke any mood or effect he wanted, Semmangudi\u000adid not compose songs, or even set too many compositions to music. \u201cA lifetime\u000ais not enough to explore what we have inherited from our ancestors,\u201d he would\u000asay. There was little that he did not know about tala, but he thought indulging\u000ain showmanship for its own sake was in poor taste.<o:p></o:p></span></i></div>\u000a</div>\u000a<div class="MsoNormal" style="mso-layout-grid-align: none; mso-margin-bottom-alt: auto; mso-margin-top-alt: auto; text-align: justify; text-autospace: none; text-indent: .5in;">\u000a<div style="text-align: justify;">\u000a<i><span style="font-family: Georgia, Times New Roman, serif;"><br /></span></i></div>\u000a</div>\u000a<div class="MsoNormal" style="mso-layout-grid-align: none; mso-margin-bottom-alt: auto; mso-margin-top-alt: auto; text-align: justify; text-autospace: none; text-indent: .5in;">\u000a<div style="text-align: justify;">\u000a<i><span style="font-family: Georgia, Times New Roman, serif;">The teacher in him was ever\u000awilling to share his knowledge. He taught more by lapsing into self-forgetful\u000araga essays at unexpected moments at home. Fortunate disciples would listen\u000aentranced, knowing that they were getting their best lessons. The guru was\u000asinging for himself, without the pressures of pleasing an audience, or\u000aclassroom timetables. His voice performed miracles, because he became unaware\u000aof its recalcitrance that plagued him all his life, despite a throat surgery at\u000athe height of his career.<o:p></o:p></span></i></div>\u000a</div>\u000a<div class="MsoBodyText" style="text-indent: 0.5in;">\u000a<div style="text-align: justify;">\u000a<span style="font-family: Georgia, Times New Roman, serif;"><br /></span></div>\u000a</div>\u000a<div class="MsoBodyText" style="text-indent: 0.5in;">\u000a<div style="text-align: justify;">\u000a<span style="font-family: Georgia, Times New Roman, serif;">Aside:\u000a(Late in his life, Semmangudi adopted the likes of TM Krishna and RK Shriram\u000aKumar as his disciples. He sometimes called Krishna impatiently and asked,\u000a\u201cEnna, Krishnamacharyal, when are you coming to learn the kriti you wanted me\u000ato teach you?\u201d When Krishna chauffeured him around on occasion, he would\u000aplayfully ask, \u201cI hope this is air-con. I only travel by airconditioned cars.\u201d\u000aHe would then turn to Shriram Kumar and ask him, \u201cWhen are you buying a car?\u201d\u000aand proceed to dismiss his protests by saying, \u201cAren\u2019t you accompanying the\u000aBharat Ratna these days?\u201d)<o:p></o:p></span></div>\u000a</div>\u000a<div class="MsoBodyText" style="text-align: left; text-indent: 0.5in;">\u000a<div style="text-align: justify;">\u000a<span style="font-family: Georgia, Times New Roman, serif;"><br /></span></div>\u000a</div>\u000a<div class="MsoBodyText" style="text-align: left; text-indent: 0.5in;">\u000a<div style="text-align: justify;">\u000a<span style="font-family: Georgia, Times New Roman, serif;">To quote Gowri Ramnarayan again,<o:p></o:p></span></div>\u000a</div>\u000a<div class="MsoBodyText" style="text-align: left; text-indent: 0.5in;">\u000a<div style="text-align: justify;">\u000a<span style="font-family: Georgia, Times New Roman, serif;"><i><br /></i></span></div>\u000a</div>\u000a<div class="MsoBodyText" style="text-align: left; text-indent: 0.5in;">\u000a<div style="text-align: justify;">\u000a<span style="font-family: Georgia, Times New Roman, serif;"><i>Semmangudi\u2019s own style was\u000adistinct, with an originality firmly grounded in tradition. His school does not\u000apermit cloning. M.S. Subbulakshmi is the best exemplar of the kriti structure\u000athat his research and practise honed to perfection. In T.M. Thyagarajan we see\u000athe undeviating traditionality; violinist T.N. Krishnan combines the purity of\u000aragabhava with imagination; we have heard Kedaranathan render a Sankarabharanam\u000awith his guru\u2019s majestic sweetness; P.S. Narayanaswamy delivers enthralling\u000asarvalaghu swara-s in the Semmangudi mould; Seetha Rajan maintains his\u000aaesthetics. V. Subramaniam and Palai Ramachandran adhere to the master without\u000aimitation. It is also interesting to see how younger musicians like Sanjay\u000aSubrahmanyan and T.M. Krishna have adopted some of the veteran\u2019s techniques,\u000aespecially in swara singing.<o:p></o:p></i></span></div>\u000a</div>\u000a<div class="MsoNormal" style="mso-layout-grid-align: none; mso-margin-bottom-alt: auto; mso-margin-top-alt: auto; text-align: justify; text-autospace: none; text-indent: .5in;">\u000a<div style="text-align: justify;">\u000a<span style="font-family: Georgia, Times New Roman, serif;"><br /></span></div>\u000a</div>\u000a<div class="MsoNormal" style="mso-layout-grid-align: none; mso-margin-bottom-alt: auto; mso-margin-top-alt: auto; text-align: justify; text-autospace: none; text-indent: .5in;">\u000a<div style="text-align: justify;">\u000a<span style="font-family: Georgia, Times New Roman, serif;">Visitors to the Semmangudi\u000ahome were touched by his extraordinary ability to remember their kin. For\u000ainstance, by sheer coincidence, he happened to know both of this writer\u2019s\u000agrandfathers, one a lawyer in Madras, and the other a retired schoolmaster in\u000aTrivandrum, as well as other relatives, all of them solid middle class citizens\u000aof good repute, but no celebrities. He never forgot them. \u201cHow is your Mama, the railway officer? Didn\u2019t your Periappa teach\u000amusic in Tenkasi? I know your Thatha contributed to the inaugural edition of\u000athe Tamil lexicon. I also knew your other grandfather who tutored our Maharaja\u000ain Trivandrum.\u201d If all this was an effort to put you at ease, he did it\u000asubtly, weaving it in unobtrusively into the conversation.<o:p></o:p></span></div>\u000a</div>\u000a<div class="MsoBodyText2" style="text-indent: 0.5in;">\u000a<div style="text-align: justify;">\u000a<span style="font-family: Georgia, Times New Roman, serif;"><br /></span></div>\u000a</div>\u000a<div class="MsoBodyText2" style="text-indent: 0.5in;">\u000a<div style="text-align: justify;">\u000a<span style="font-family: Georgia, Times New Roman, serif;">In his final\u000ayears, death was frequently the subject of his comment, though it was usually\u000areferred to with a pinch of humour. He was greatly saddened by the departure of\u000amany of his friends, colleagues, admirers and accomplices in rummy, the card\u000agame, leaving him \u2018waitlisted\u2019 as he used to say. That he made friends for life\u000awas well known. These friendships embraced not only the likes of his disciple M.S.\u000aSubbulakshmi and her husband T. Sadasivam, but less known individuals as well.\u000aWhen one such lifelong friend, much younger than he, died in 2001, Semmangudi\u000ainsisted on climbing two flights of stairs to sit by him, lamenting the\u000aunfairness of his passing away, while he himself was still alive. At other\u000atimes, he was not averse to taking a swipe at Yama Dharma Raja. \u201cHe came for me\u000alast night, but took away my neighbour instead, confused by the old number-new\u000anumber muddle,\u201d was one of his classics.<o:p></o:p></span></div>\u000a</div>\u000a<div class="MsoNormal" style="mso-layout-grid-align: none; mso-margin-bottom-alt: auto; mso-margin-top-alt: auto; text-align: justify; text-autospace: none; text-indent: .5in;">\u000a<div style="text-align: justify;">\u000a<span style="font-family: Georgia, Times New Roman, serif;"><br /></span></div>\u000a</div>\u000a<div class="MsoNormal" style="mso-layout-grid-align: none; mso-margin-bottom-alt: auto; mso-margin-top-alt: auto; text-align: justify; text-autospace: none; text-indent: .5in;">\u000a<div style="text-align: justify;">\u000a<span style="font-family: Georgia, Times New Roman, serif;">Semmangudi once took a young\u000ajournalist through a walking tour of Tiruvaiyaru. In a rare confession to her,\u000ahe said, \u201cI have known heartbreak. Often my mind would resonate with a music\u000athat throat and voice were unable to express. What saved me from despair was\u000athe music of the great vidwans that I have absorbed with all my heart from\u000achildhood. I have tried my best to show you some glimpses of that light.\u201d <o:p></o:p></span></div>\u000a</div>\u000a<div class="MsoNormal" style="mso-layout-grid-align: none; mso-margin-bottom-alt: auto; mso-margin-top-alt: auto; text-align: justify; text-autospace: none; text-indent: .5in;">\u000a<div style="text-align: justify;">\u000a<span style="font-family: Georgia, Times New Roman, serif;"><br /></span></div>\u000a</div>\u000a<div class="MsoNormal" style="mso-layout-grid-align: none; mso-margin-bottom-alt: auto; mso-margin-top-alt: auto; text-align: justify; text-autospace: none; text-indent: .5in;">\u000a<div style="text-align: justify;">\u000a<span style="font-family: Georgia, Times New Roman, serif;">All through his life, and beyond\u000ait through the legacy he has left behind, Semmangudi has remained that beacon\u000alight for the world of Carnatic music and musicians. And his worthy disciples\u000aare keeping his bani alive, disseminating it with true devotion and\u000auncompromising fidelity to his principles.<o:p></o:p></span></div>\u000a</div>\u000a<div class="MsoNormal">\u000a<div style="text-align: justify;">\u000a<span style="font-family: Georgia, Times New Roman, serif;"><br /></span></div>\u000a</div>\u000a<div class="MsoNormal">\u000a<div style="text-align: justify;">\u000a<span style="font-family: Georgia, 'Times New Roman', serif;">I congratulate the Golden Jubilee\u000acelebrations committee and Sri Subramaniam on commemorating Semmangudi\u2019s\u000aanniversary in such an exemplary manner\u2014now for the 37</span><sup style="font-family: Georgia, 'Times New Roman', serif;">th</sup><span style="font-family: Georgia, 'Times New Roman', serif;"> year. My\u000aheartfelt felicitations to Smt Kalyani Sharma, by all accounts a role model\u000acarrying on her guru\u2019s legacy and spreading Carnatic music with devotion in\u000aMumbai for decades now. It has been a great honour to be here today and speak\u000aon the great Semmangudi Mama\u2014it is the equal of an opportunity to speak on Sir\u000aGarfield Sobers or Sir Don Bradman. Thank you so much.</span></div>\u000a</div>\u000a</div>\u000a
p3
sVkind
p4
Vblogger#post
p5
sVlabels
p6
(lp7
VV Ramnarayan
p8
asVtitle
p9
VThe Semmangudi legacy
p10
sVurl
p11
Vhttp://srutimag.blogspot.com/2013/07/the-semmangudi-legacy.html
p12
sVauthor
p13
(dp14
Vurl
p15
Vhttp://www.blogger.com/profile/07438923380988482057
p16
sVimage
p17
(dp18
Vurl
p19
Vhttp://4.bp.blogspot.com/-BatgBQQxSS8/TsyaRVkALGI/AAAAAAAAADI/pLRMa46usw4/s45/Sruti%25252BLogo.jpg
p20
ssVdisplayName
p21
VSruti Magazine
p22
sVid
p23
V07438923380988482057
p24
ssVupdated
p25
V2013-07-27T12:31:53+05:30
p26
sVreplies
p27
(dp28
VtotalItems
p29
V1
sVselfLink
p30
Vhttps://www.googleapis.com/blogger/v3/blogs/4158155864744163029/posts/4089408007921679234/comments
p31
ssVblog
p32
(dp33
Vid
p34
V4158155864744163029
p35
ssVpublished
p36
V2013-07-26T07:52:00+05:30
p37
sVid
p38
V4089408007921679234
p39
sVselfLink
p40
Vhttps://www.googleapis.com/blogger/v3/blogs/4158155864744163029/posts/4089408007921679234
p41
s.