(dp1
Vcontent
p2
V<div dir="ltr" style="text-align: left;" trbidi="on"><div style="font-family: Georgia,&quot;Times New Roman&quot;,serif; text-align: justify;"><!--[if gte mso 9]><xml>  <w:WordDocument>   <w:View>Normal</w:View>   <w:Zoom>0</w:Zoom>   <w:TrackMoves/>   <w:TrackFormatting/>   <w:PunctuationKerning/>   <w:ValidateAgainstSchemas/>   <w:SaveIfXMLInvalid>false</w:SaveIfXMLInvalid>   <w:IgnoreMixedContent>false</w:IgnoreMixedContent>   <w:AlwaysShowPlaceholderText>false</w:AlwaysShowPlaceholderText>   <w:DoNotPromoteQF/>   <w:LidThemeOther>EN-US</w:LidThemeOther>   <w:LidThemeAsian>X-NONE</w:LidThemeAsian>   <w:LidThemeComplexScript>X-NONE</w:LidThemeComplexScript>   <w:Compatibility>    <w:BreakWrappedTables/>    <w:SnapToGridInCell/>    <w:WrapTextWithPunct/>    <w:UseAsianBreakRules/>    <w:DontGrowAutofit/>    <w:SplitPgBreakAndParaMark/>    <w:DontVertAlignCellWithSp/>    <w:DontBreakConstrainedForcedTables/>    <w:DontVertAlignInTxbx/>    <w:Word11KerningPairs/>    <w:CachedColBalance/>   </w:Compatibility>   <m:mathPr>    <m:mathFont m:val="Cambria Math"/>    <m:brkBin m:val="before"/>    <m:brkBinSub m:val="--"/>    <m:smallFrac m:val="off"/>    <m:dispDef/>    <m:lMargin m:val="0"/>    <m:rMargin m:val="0"/>    <m:defJc m:val="centerGroup"/>    <m:wrapIndent m:val="1440"/>    <m:intLim m:val="subSup"/>    <m:naryLim m:val="undOvr"/>   </m:mathPr></w:WordDocument> </xml><![endif]--><!--[if gte mso 9]><xml>  <w:LatentStyles DefLockedState="false" DefUnhideWhenUsed="true"\u000a  DefSemiHidden="true" DefQFormat="false" DefPriority="99"\u000a  LatentStyleCount="267">   <w:LsdException Locked="false" Priority="0" SemiHidden="false"\u000a   UnhideWhenUsed="false" QFormat="true" Name="Normal"/>   <w:LsdException Locked="false" Priority="9" SemiHidden="false"\u000a   UnhideWhenUsed="false" QFormat="true" Name="heading 1"/>   <w:LsdException Locked="false" Priority="9" QFormat="true" Name="heading 2"/>   <w:LsdException Locked="false" Priority="9" QFormat="true" Name="heading 3"/>   <w:LsdException Locked="false" Priority="9" QFormat="true" Name="heading 4"/>   <w:LsdException Locked="false" Priority="9" QFormat="true" Name="heading 5"/>   <w:LsdException Locked="false" Priority="9" QFormat="true" Name="heading 6"/>   <w:LsdException Locked="false" Priority="9" QFormat="true" Name="heading 7"/>   <w:LsdException Locked="false" Priority="9" QFormat="true" Name="heading 8"/>   <w:LsdException Locked="false" Priority="9" QFormat="true" Name="heading 9"/>   <w:LsdException Locked="false" Priority="39" Name="toc 1"/>   <w:LsdException Locked="false" Priority="39" Name="toc 2"/>   <w:LsdException Locked="false" Priority="39" Name="toc 3"/>   <w:LsdException Locked="false" Priority="39" Name="toc 4"/>   <w:LsdException Locked="false" Priority="39" Name="toc 5"/>   <w:LsdException Locked="false" Priority="39" Name="toc 6"/>   <w:LsdException Locked="false" Priority="39" Name="toc 7"/>   <w:LsdException Locked="false" Priority="39" Name="toc 8"/>   <w:LsdException Locked="false" Priority="39" Name="toc 9"/>   <w:LsdException Locked="false" Priority="35" QFormat="true" Name="caption"/>   <w:LsdException Locked="false" Priority="10" SemiHidden="false"\u000a   UnhideWhenUsed="false" QFormat="true" Name="Title"/>   <w:LsdException Locked="false" Priority="1" Name="Default Paragraph Font"/>   <w:LsdException Locked="false" Priority="11" SemiHidden="false"\u000a   UnhideWhenUsed="false" QFormat="true" Name="Subtitle"/>   <w:LsdException Locked="false" Priority="22" SemiHidden="false"\u000a   UnhideWhenUsed="false" QFormat="true" Name="Strong"/>   <w:LsdException Locked="false" Priority="20" SemiHidden="false"\u000a   UnhideWhenUsed="false" QFormat="true" Name="Emphasis"/>   <w:LsdException Locked="false" Priority="59" SemiHidden="false"\u000a   UnhideWhenUsed="false" Name="Table Grid"/>   <w:LsdException Locked="false" UnhideWhenUsed="false" Name="Placeholder Text"/>   <w:LsdException Locked="false" Priority="1" SemiHidden="false"\u000a   UnhideWhenUsed="false" QFormat="true" Name="No Spacing"/>   <w:LsdException Locked="false" Priority="60" SemiHidden="false"\u000a   UnhideWhenUsed="false" Name="Light Shading"/>   <w:LsdException Locked="false" Priority="61" SemiHidden="false"\u000a   UnhideWhenUsed="false" Name="Light List"/>   <w:LsdException Locked="false" Priority="62" SemiHidden="false"\u000a   UnhideWhenUsed="false" Name="Light Grid"/>   <w:LsdException Locked="false" Priority="63" SemiHidden="false"\u000a   UnhideWhenUsed="false" Name="Medium Shading 1"/>   <w:LsdException Locked="false" Priority="64" SemiHidden="false"\u000a   UnhideWhenUsed="false" Name="Medium Shading 2"/>   <w:LsdException Locked="false" Priority="65" SemiHidden="false"\u000a   UnhideWhenUsed="false" Name="Medium List 1"/>   <w:LsdException Locked="false" Priority="66" SemiHidden="false"\u000a   UnhideWhenUsed="false" Name="Medium List 2"/>   <w:LsdException Locked="false" Priority="67" SemiHidden="false"\u000a   UnhideWhenUsed="false" Name="Medium Grid 1"/>   <w:LsdException Locked="false" Priority="68" SemiHidden="false"\u000a   UnhideWhenUsed="false" Name="Medium Grid 2"/>   <w:LsdException Locked="false" Priority="69" SemiHidden="false"\u000a   UnhideWhenUsed="false" Name="Medium Grid 3"/>   <w:LsdException Locked="false" Priority="70" SemiHidden="false"\u000a   UnhideWhenUsed="false" Name="Dark List"/>   <w:LsdException Locked="false" Priority="71" SemiHidden="false"\u000a   UnhideWhenUsed="false" Name="Colorful Shading"/>   <w:LsdException Locked="false" Priority="72" SemiHidden="false"\u000a   UnhideWhenUsed="false" Name="Colorful List"/>   <w:LsdException Locked="false" Priority="73" SemiHidden="false"\u000a   UnhideWhenUsed="false" Name="Colorful Grid"/>   <w:LsdException Locked="false" Priority="60" SemiHidden="false"\u000a   UnhideWhenUsed="false" Name="Light Shading Accent 1"/>   <w:LsdException Locked="false" Priority="61" SemiHidden="false"\u000a   UnhideWhenUsed="false" Name="Light List Accent 1"/>   <w:LsdException Locked="false" Priority="62" SemiHidden="false"\u000a   UnhideWhenUsed="false" Name="Light Grid Accent 1"/>   <w:LsdException Locked="false" Priority="63" SemiHidden="false"\u000a   UnhideWhenUsed="false" Name="Medium Shading 1 Accent 1"/>   <w:LsdException Locked="false" Priority="64" SemiHidden="false"\u000a   UnhideWhenUsed="false" Name="Medium Shading 2 Accent 1"/>   <w:LsdException Locked="false" Priority="65" SemiHidden="false"\u000a   UnhideWhenUsed="false" Name="Medium List 1 Accent 1"/>   <w:LsdException Locked="false" UnhideWhenUsed="false" Name="Revision"/>   <w:LsdException Locked="false" Priority="34" SemiHidden="false"\u000a   UnhideWhenUsed="false" QFormat="true" Name="List Paragraph"/>   <w:LsdException Locked="false" Priority="29" SemiHidden="false"\u000a   UnhideWhenUsed="false" QFormat="true" Name="Quote"/>   <w:LsdException Locked="false" Priority="30" SemiHidden="false"\u000a   UnhideWhenUsed="false" QFormat="true" Name="Intense Quote"/>   <w:LsdException Locked="false" Priority="66" SemiHidden="false"\u000a   UnhideWhenUsed="false" Name="Medium List 2 Accent 1"/>   <w:LsdException Locked="false" Priority="67" SemiHidden="false"\u000a   UnhideWhenUsed="false" Name="Medium Grid 1 Accent 1"/>   <w:LsdException Locked="false" Priority="68" SemiHidden="false"\u000a   UnhideWhenUsed="false" Name="Medium Grid 2 Accent 1"/>   <w:LsdException Locked="false" Priority="69" SemiHidden="false"\u000a   UnhideWhenUsed="false" Name="Medium Grid 3 Accent 1"/>   <w:LsdException Locked="false" Priority="70" SemiHidden="false"\u000a   UnhideWhenUsed="false" Name="Dark List Accent 1"/>   <w:LsdException Locked="false" Priority="71" SemiHidden="false"\u000a   UnhideWhenUsed="false" Name="Colorful Shading Accent 1"/>   <w:LsdException Locked="false" Priority="72" SemiHidden="false"\u000a   UnhideWhenUsed="false" Name="Colorful List Accent 1"/>   <w:LsdException Locked="false" Priority="73" SemiHidden="false"\u000a   UnhideWhenUsed="false" Name="Colorful Grid Accent 1"/>   <w:LsdException Locked="false" Priority="60" SemiHidden="false"\u000a   UnhideWhenUsed="false" Name="Light Shading Accent 2"/>   <w:LsdException Locked="false" Priority="61" SemiHidden="false"\u000a   UnhideWhenUsed="false" Name="Light List Accent 2"/>   <w:LsdException Locked="false" Priority="62" SemiHidden="false"\u000a   UnhideWhenUsed="false" Name="Light Grid Accent 2"/>   <w:LsdException Locked="false" Priority="63" SemiHidden="false"\u000a   UnhideWhenUsed="false" Name="Medium Shading 1 Accent 2"/>   <w:LsdException Locked="false" Priority="64" SemiHidden="false"\u000a   UnhideWhenUsed="false" Name="Medium Shading 2 Accent 2"/>   <w:LsdException Locked="false" Priority="65" SemiHidden="false"\u000a   UnhideWhenUsed="false" Name="Medium List 1 Accent 2"/>   <w:LsdException Locked="false" Priority="66" SemiHidden="false"\u000a   UnhideWhenUsed="false" Name="Medium List 2 Accent 2"/>   <w:LsdException Locked="false" Priority="67" SemiHidden="false"\u000a   UnhideWhenUsed="false" Name="Medium Grid 1 Accent 2"/>   <w:LsdException Locked="false" Priority="68" SemiHidden="false"\u000a   UnhideWhenUsed="false" Name="Medium Grid 2 Accent 2"/>   <w:LsdException Locked="false" Priority="69" SemiHidden="false"\u000a   UnhideWhenUsed="false" Name="Medium Grid 3 Accent 2"/>   <w:LsdException Locked="false" Priority="70" SemiHidden="false"\u000a   UnhideWhenUsed="false" Name="Dark List Accent 2"/>   <w:LsdException Locked="false" Priority="71" SemiHidden="false"\u000a   UnhideWhenUsed="false" Name="Colorful Shading Accent 2"/>   <w:LsdException Locked="false" Priority="72" SemiHidden="false"\u000a   UnhideWhenUsed="false" Name="Colorful List Accent 2"/>   <w:LsdException Locked="false" Priority="73" SemiHidden="false"\u000a   UnhideWhenUsed="false" Name="Colorful Grid Accent 2"/>   <w:LsdException Locked="false" Priority="60" SemiHidden="false"\u000a   UnhideWhenUsed="false" Name="Light Shading Accent 3"/>   <w:LsdException Locked="false" Priority="61" SemiHidden="false"\u000a   UnhideWhenUsed="false" Name="Light List Accent 3"/>   <w:LsdException Locked="false" Priority="62" SemiHidden="false"\u000a   UnhideWhenUsed="false" Name="Light Grid Accent 3"/>   <w:LsdException Locked="false" Priority="63" SemiHidden="false"\u000a   UnhideWhenUsed="false" Name="Medium Shading 1 Accent 3"/>   <w:LsdException Locked="false" Priority="64" SemiHidden="false"\u000a   UnhideWhenUsed="false" Name="Medium Shading 2 Accent 3"/>   <w:LsdException Locked="false" Priority="65" SemiHidden="false"\u000a   UnhideWhenUsed="false" Name="Medium List 1 Accent 3"/>   <w:LsdException Locked="false" Priority="66" SemiHidden="false"\u000a   UnhideWhenUsed="false" Name="Medium List 2 Accent 3"/>   <w:LsdException Locked="false" Priority="67" SemiHidden="false"\u000a   UnhideWhenUsed="false" Name="Medium Grid 1 Accent 3"/>   <w:LsdException Locked="false" Priority="68" SemiHidden="false"\u000a   UnhideWhenUsed="false" Name="Medium Grid 2 Accent 3"/>   <w:LsdException Locked="false" Priority="69" SemiHidden="false"\u000a   UnhideWhenUsed="false" Name="Medium Grid 3 Accent 3"/>   <w:LsdException Locked="false" Priority="70" SemiHidden="false"\u000a   UnhideWhenUsed="false" Name="Dark List Accent 3"/>   <w:LsdException Locked="false" Priority="71" SemiHidden="false"\u000a   UnhideWhenUsed="false" Name="Colorful Shading Accent 3"/>   <w:LsdException Locked="false" Priority="72" SemiHidden="false"\u000a   UnhideWhenUsed="false" Name="Colorful List Accent 3"/>   <w:LsdException Locked="false" Priority="73" SemiHidden="false"\u000a   UnhideWhenUsed="false" Name="Colorful Grid Accent 3"/>   <w:LsdException Locked="false" Priority="60" SemiHidden="false"\u000a   UnhideWhenUsed="false" Name="Light Shading Accent 4"/>   <w:LsdException Locked="false" Priority="61" SemiHidden="false"\u000a   UnhideWhenUsed="false" Name="Light List Accent 4"/>   <w:LsdException Locked="false" Priority="62" SemiHidden="false"\u000a   UnhideWhenUsed="false" Name="Light Grid Accent 4"/>   <w:LsdException Locked="false" Priority="63" SemiHidden="false"\u000a   UnhideWhenUsed="false" Name="Medium Shading 1 Accent 4"/>   <w:LsdException Locked="false" Priority="64" SemiHidden="false"\u000a   UnhideWhenUsed="false" Name="Medium Shading 2 Accent 4"/>   <w:LsdException Locked="false" Priority="65" SemiHidden="false"\u000a   UnhideWhenUsed="false" Name="Medium List 1 Accent 4"/>   <w:LsdException Locked="false" Priority="66" SemiHidden="false"\u000a   UnhideWhenUsed="false" Name="Medium List 2 Accent 4"/>   <w:LsdException Locked="false" Priority="67" SemiHidden="false"\u000a   UnhideWhenUsed="false" Name="Medium Grid 1 Accent 4"/>   <w:LsdException Locked="false" Priority="68" SemiHidden="false"\u000a   UnhideWhenUsed="false" Name="Medium Grid 2 Accent 4"/>   <w:LsdException Locked="false" Priority="69" SemiHidden="false"\u000a   UnhideWhenUsed="false" Name="Medium Grid 3 Accent 4"/>   <w:LsdException Locked="false" Priority="70" SemiHidden="false"\u000a   UnhideWhenUsed="false" Name="Dark List Accent 4"/>   <w:LsdException Locked="false" Priority="71" SemiHidden="false"\u000a   UnhideWhenUsed="false" Name="Colorful Shading Accent 4"/>   <w:LsdException Locked="false" Priority="72" SemiHidden="false"\u000a   UnhideWhenUsed="false" Name="Colorful List Accent 4"/>   <w:LsdException Locked="false" Priority="73" SemiHidden="false"\u000a   UnhideWhenUsed="false" Name="Colorful Grid Accent 4"/>   <w:LsdException Locked="false" Priority="60" SemiHidden="false"\u000a   UnhideWhenUsed="false" Name="Light Shading Accent 5"/>   <w:LsdException Locked="false" Priority="61" SemiHidden="false"\u000a   UnhideWhenUsed="false" Name="Light List Accent 5"/>   <w:LsdException Locked="false" Priority="62" SemiHidden="false"\u000a   UnhideWhenUsed="false" Name="Light Grid Accent 5"/>   <w:LsdException Locked="false" Priority="63" SemiHidden="false"\u000a   UnhideWhenUsed="false" Name="Medium Shading 1 Accent 5"/>   <w:LsdException Locked="false" Priority="64" SemiHidden="false"\u000a   UnhideWhenUsed="false" Name="Medium Shading 2 Accent 5"/>   <w:LsdException Locked="false" Priority="65" SemiHidden="false"\u000a   UnhideWhenUsed="false" Name="Medium List 1 Accent 5"/>   <w:LsdException Locked="false" Priority="66" SemiHidden="false"\u000a   UnhideWhenUsed="false" Name="Medium List 2 Accent 5"/>   <w:LsdException Locked="false" Priority="67" SemiHidden="false"\u000a   UnhideWhenUsed="false" Name="Medium Grid 1 Accent 5"/>   <w:LsdException Locked="false" Priority="68" SemiHidden="false"\u000a   UnhideWhenUsed="false" Name="Medium Grid 2 Accent 5"/>   <w:LsdException Locked="false" Priority="69" SemiHidden="false"\u000a   UnhideWhenUsed="false" Name="Medium Grid 3 Accent 5"/>   <w:LsdException Locked="false" Priority="70" SemiHidden="false"\u000a   UnhideWhenUsed="false" Name="Dark List Accent 5"/>   <w:LsdException Locked="false" Priority="71" SemiHidden="false"\u000a   UnhideWhenUsed="false" Name="Colorful Shading Accent 5"/>   <w:LsdException Locked="false" Priority="72" SemiHidden="false"\u000a   UnhideWhenUsed="false" Name="Colorful List Accent 5"/>   <w:LsdException Locked="false" Priority="73" SemiHidden="false"\u000a   UnhideWhenUsed="false" Name="Colorful Grid Accent 5"/>   <w:LsdException Locked="false" Priority="60" SemiHidden="false"\u000a   UnhideWhenUsed="false" Name="Light Shading Accent 6"/>   <w:LsdException Locked="false" Priority="61" SemiHidden="false"\u000a   UnhideWhenUsed="false" Name="Light List Accent 6"/>   <w:LsdException Locked="false" Priority="62" SemiHidden="false"\u000a   UnhideWhenUsed="false" Name="Light Grid Accent 6"/>   <w:LsdException Locked="false" Priority="63" SemiHidden="false"\u000a   UnhideWhenUsed="false" Name="Medium Shading 1 Accent 6"/>   <w:LsdException Locked="false" Priority="64" SemiHidden="false"\u000a   UnhideWhenUsed="false" Name="Medium Shading 2 Accent 6"/>   <w:LsdException Locked="false" Priority="65" SemiHidden="false"\u000a   UnhideWhenUsed="false" Name="Medium List 1 Accent 6"/>   <w:LsdException Locked="false" Priority="66" SemiHidden="false"\u000a   UnhideWhenUsed="false" Name="Medium List 2 Accent 6"/>   <w:LsdException Locked="false" Priority="67" SemiHidden="false"\u000a   UnhideWhenUsed="false" Name="Medium Grid 1 Accent 6"/>   <w:LsdException Locked="false" Priority="68" SemiHidden="false"\u000a   UnhideWhenUsed="false" Name="Medium Grid 2 Accent 6"/>   <w:LsdException Locked="false" Priority="69" SemiHidden="false"\u000a   UnhideWhenUsed="false" Name="Medium Grid 3 Accent 6"/>   <w:LsdException Locked="false" Priority="70" SemiHidden="false"\u000a   UnhideWhenUsed="false" Name="Dark List Accent 6"/>   <w:LsdException Locked="false" Priority="71" SemiHidden="false"\u000a   UnhideWhenUsed="false" Name="Colorful Shading Accent 6"/>   <w:LsdException Locked="false" Priority="72" SemiHidden="false"\u000a   UnhideWhenUsed="false" Name="Colorful List Accent 6"/>   <w:LsdException Locked="false" Priority="73" SemiHidden="false"\u000a   UnhideWhenUsed="false" Name="Colorful Grid Accent 6"/>   <w:LsdException Locked="false" Priority="19" SemiHidden="false"\u000a   UnhideWhenUsed="false" QFormat="true" Name="Subtle Emphasis"/>   <w:LsdException Locked="false" Priority="21" SemiHidden="false"\u000a   UnhideWhenUsed="false" QFormat="true" Name="Intense Emphasis"/>   <w:LsdException Locked="false" Priority="31" SemiHidden="false"\u000a   UnhideWhenUsed="false" QFormat="true" Name="Subtle Reference"/>   <w:LsdException Locked="false" Priority="32" SemiHidden="false"\u000a   UnhideWhenUsed="false" QFormat="true" Name="Intense Reference"/>   <w:LsdException Locked="false" Priority="33" SemiHidden="false"\u000a   UnhideWhenUsed="false" QFormat="true" Name="Book Title"/>   <w:LsdException Locked="false" Priority="37" Name="Bibliography"/>   <w:LsdException Locked="false" Priority="39" QFormat="true" Name="TOC Heading"/>  </w:LatentStyles> </xml><![endif]--><!--[if gte mso 10]> <style>\u000a /* Style Definitions */\u000a table.MsoNormalTable\u000a {mso-style-name:"Table Normal";\u000a mso-tstyle-rowband-size:0;\u000a mso-tstyle-colband-size:0;\u000a mso-style-noshow:yes;\u000a mso-style-priority:99;\u000a mso-style-qformat:yes;\u000a mso-style-parent:"";\u000a mso-padding-alt:0in 5.4pt 0in 5.4pt;\u000a mso-para-margin-top:0in;\u000a mso-para-margin-right:0in;\u000a mso-para-margin-bottom:10.0pt;\u000a mso-para-margin-left:0in;\u000a line-height:115%;\u000a mso-pagination:widow-orphan;\u000a font-size:11.0pt;\u000a font-family:"Calibri","sans-serif";\u000a mso-ascii-font-family:Calibri;\u000a mso-ascii-theme-font:minor-latin;\u000a mso-fareast-font-family:"Times New Roman";\u000a mso-fareast-theme-font:minor-fareast;\u000a mso-hansi-font-family:Calibri;\u000a mso-hansi-theme-font:minor-latin;}\u000a</style> <![endif]--><!--[if gte mso 9]><xml>  <o:shapedefaults v:ext="edit" spidmax="1026"/> </xml><![endif]--><!--[if gte mso 9]><xml>  <o:shapelayout v:ext="edit">   <o:idmap v:ext="edit" data="1"/>  </o:shapelayout></xml><![endif]-->  </div><div class="MsoNormal" style="font-family: Georgia,&quot;Times New Roman&quot;,serif; text-align: justify;"><div><b style="mso-bidi-font-weight: normal;">By Akhila Ramnarayan</b><br />\u000a<div style="text-align: right;">Singapore</div></div><div style="text-align: right;">Day 1: August 31</div><div><a href="http://2.bp.blogspot.com/-KKNSkn3IHB0/UELrbGzUypI/AAAAAAAABSc/ORjT2bCNdzk/s1600/aditim.jpg" style="clear: left; float: left; margin-bottom: 1em; margin-right: 1em;"><img border="0" src="http://2.bp.blogspot.com/-KKNSkn3IHB0/UELrbGzUypI/AAAAAAAABSc/ORjT2bCNdzk/s1600/aditim.jpg" /></a> </div><div><br />\u000a</div><div>In the final moments of Majid Majidi\u2019s 2001 film <i style="mso-bidi-font-style: normal;">Baran, </i>a young wastrel-turned-activist hero watches as the love of his life, an Afghan refugee in Iran, departs for her homeland. Though he is never to see her again, his love for her has been truly transformative.<span style="mso-spacerun: yes;"> </span>Having viewed undocumented workers with a&nbsp;<span style="mso-spacerun: yes;"></span>careless disregard verging on contempt, he has now come to recognize their oppression.<span style="mso-spacerun: yes;">&nbsp; </span>In fact, he has just traded in his precious government identity card so that his beloved might have safe passage out of a country in which she has been forced into grinding, inhumane, back-breaking labour, so that she and her family may subsist.</div></div><div class="separator" style="clear: both; font-family: Georgia,&quot;Times New Roman&quot;,serif; text-align: justify;"><a href="http://2.bp.blogspot.com/-KKNSkn3IHB0/UELrbGzUypI/AAAAAAAABSc/ORjT2bCNdzk/s1600/aditim.jpg" imageanchor="1" style="margin-left: 1em; margin-right: 1em;"></a></div><div class="MsoNormal" style="font-family: Georgia,&quot;Times New Roman&quot;,serif; text-align: justify;">As she walks away amid falling rain, the camera cuts to a close-up of the girl\u2019s slowly dissolving footprint in the grey-brown slush.<span style="mso-spacerun: yes;">&nbsp;&nbsp;</span></div><div class="MsoNormal" style="font-family: Georgia,&quot;Times New Roman&quot;,serif; text-align: justify;"><br />\u000a</div><div class="MsoNormal" style="font-family: Georgia,&quot;Times New Roman&quot;,serif; text-align: justify;">Something about a solo evening performance by Aditi Mangaldas, one of two featured artistes at the Dance India Asia Pacific inaugural showcase at the Esplanade Studio Theatre in Singapore on August 31, evoked for me this exquisitely ephemeral image in <i style="mso-bidi-font-style: normal;">Baran, </i>signalling perhaps hope, perhaps despair, perhaps solace for pain, now here, now gone.<span style="mso-spacerun: yes;">&nbsp; </span>Mangaldas traversed the space between temporality and transcendence, invoking the ghosts of bhakti and sufi poets past, straddling the line between contemporary and classical Kathak in the process.<span style="mso-spacerun: yes;">&nbsp; </span>Veteran Bharatanatyam artiste Leela Samson performed next , inwardness and classical refinement personified in her depictions of Siva as Kalabhairava and Ardhanarisvara, yet revealing a similar negotiation of body and soul, sense and spirit, in her chosen idiom.&nbsp;</div><div class="MsoNormal" style="font-family: Georgia,&quot;Times New Roman&quot;,serif; text-align: justify;"><br />\u000a</div><div class="MsoNormal" style="font-family: Georgia,&quot;Times New Roman&quot;,serif; text-align: justify;">The umbrella event under which both solo performances took place, Dance India, is the brainchild of Milapfest, who, for <span style="mso-spacerun: yes;">&nbsp;</span>seven years running, <span style="mso-spacerun: yes;">&nbsp;</span>have coordinated in the UK an intensive summer learning experience for dancers worldwide, creating for advanced and intermediate students alike the opportunity to learn from eminent gurus. Participants also gain concrete exposure to classical Indian dance genres outside their individual specializations, a point of pride for Milapfest director Alok Nayak.<span style="mso-spacerun: yes;">&nbsp; </span>In 2012, Dance India has come to the Asia Pacific region for the first time in collaboration with Apsaras Arts, Singapore, founded by S Sathyalingam and Neila Sathyalingam in 1977.<span style="mso-spacerun: yes;">&nbsp; </span>The collaboration brings together distinguished Bharatanatyam faculty\u2014Leela Samson and Priyadarsini Govind\u2014fresh from this year\u2019s UK edition of Dance India at Liverpool Hope University last week, and guest artistes Mangaldas, Arushi Mudgal (Odissi) and Shantha Ratii (Kuchipudi).</div><div class="MsoNormal" style="font-family: Georgia,&quot;Times New Roman&quot;,serif; text-align: justify;"><br />\u000a</div><div class="MsoNormal" style="font-family: Georgia,&quot;Times New Roman&quot;,serif; text-align: justify;">A brief and elegant welcome ceremony at the Esplanade Studio Theatre preceded the two showcase performances, with opening remarks by Apsaras Arts Creative and Managing Director Aravinth Kumarasamy, a welcome address by Alok Nayak, a short film documenting last week\u2019s Dance India sessions in Liverpool , and a humour-laced speech by guest of honour Ambassador Kesavapany.<span style="mso-spacerun: yes;">&nbsp; </span>A special Bharatanatyam performance by Shankar Kandasamy (Malaysia) to Bharati\u2019s verses on Parasakti<span style="mso-spacerun: yes;">&nbsp; </span>with music by Kumarasamy rounded out the ceremony.<span style="mso-spacerun: yes;">&nbsp;&nbsp;</span></div><div class="MsoNormal" style="font-family: Georgia,&quot;Times New Roman&quot;,serif; text-align: justify;"><br />\u000a</div><div class="MsoNormal" style="font-family: Georgia,&quot;Times New Roman&quot;,serif; text-align: justify;"><a href="http://3.bp.blogspot.com/-2BlkxQ7cCmk/UELrisl8PBI/AAAAAAAABSk/Qoef0M29x28/s1600/samson.jpg" imageanchor="1" style="clear: right; float: right; margin-bottom: 1em; margin-left: 1em;"><img border="0" src="http://3.bp.blogspot.com/-2BlkxQ7cCmk/UELrisl8PBI/AAAAAAAABSk/Qoef0M29x28/s1600/samson.jpg" /></a>More is to come: day-long training sessions in Bharatanatyam for students at Singapore\u2019s Goodman Centre for the Arts, as well as lec-dems, panel discussions and talks by Mangaldas, Mudgal, Ratii, veteran dance scholar Sunil Kothari, writing expert Shobha Vadrevu, and <a href="http://www.sruti.com/" target="_blank"><i style="mso-bidi-font-style: normal;">Sruti </i>magazine</a>.</div><div class="MsoNormal" style="font-family: Georgia,&quot;Times New Roman&quot;,serif; text-align: justify;"><br />\u000aThis week-long confluence of cultures, genres, and communities in Singapore may be as fleeting, as transitory, as powerfully riddled with questions about the role and relevance of the arts in an increasingly complex world, as my opening image suggests. <span style="mso-spacerun: yes;">&nbsp;</span>In times like these, <i style="mso-bidi-font-style: normal;">can </i>art transform hearts and minds, even for a flickering instant in time? Yes, Kathak doyenne Kumudini Lakhia says with disarming, absolute conviction in the closing segment of the film shown at the Dance India Asia Pacific welcome ceremony: you can find in and through dance whatever you seek deep within: God, beauty, the self.</div><div class="MsoNormal" style="font-family: Georgia,&quot;Times New Roman&quot;,serif; text-align: justify;">&nbsp; </div></div>
p3
sVkind
p4
Vblogger#post
p5
sVlabels
p6
(lp7
VAkhila Ramnarayan
p8
asVtitle
p9
VDance India Asia Pacific off to elegant start
p10
sVurl
p11
Vhttp://srutimag.blogspot.com/2012/09/dance-india-asia-pacific-off-to-elegant.html
p12
sVauthor
p13
(dp14
Vurl
p15
Vhttp://www.blogger.com/profile/07438923380988482057
p16
sVimage
p17
(dp18
Vurl
p19
Vhttp://4.bp.blogspot.com/-BatgBQQxSS8/TsyaRVkALGI/AAAAAAAAADI/pLRMa46usw4/s45/Sruti%25252BLogo.jpg
p20
ssVdisplayName
p21
VSruti Magazine
p22
sVid
p23
V07438923380988482057
p24
ssVupdated
p25
V2012-09-03T09:07:29+05:30
p26
sVreplies
p27
(dp28
VtotalItems
p29
V0
sVselfLink
p30
Vhttps://www.googleapis.com/blogger/v3/blogs/4158155864744163029/posts/4441347560833901302/comments
p31
ssVblog
p32
(dp33
Vid
p34
V4158155864744163029
p35
ssVpublished
p36
V2012-09-02T10:46:00+05:30
p37
sVid
p38
V4441347560833901302
p39
sVselfLink
p40
Vhttps://www.googleapis.com/blogger/v3/blogs/4158155864744163029/posts/4441347560833901302
p41
s.