(dp1
Vcontent
p2
V<div dir="ltr" style="text-align: left;" trbidi="on">\u000a<div style="text-align: justify;">\u000a<b><span style="font-family: Georgia,&quot;Times New Roman&quot;,serif;">Sarod maestro Aashish Khan</span></b></div>\u000a<div style="text-align: justify;">\u000a<b><span style="font-family: Georgia,&quot;Times New Roman&quot;,serif;"><br />By Priyadarshini Ram</span></b></div>\u000a<div style="text-align: justify;">\u000a<br /></div>\u000a<div class="separator" style="clear: both; text-align: center;">\u000a<a href="http://1.bp.blogspot.com/-kWF8akews-I/UpbME3STI5I/AAAAAAAAD_A/9d4PArCg0Y4/s1600/ashishkhan.jpg" imageanchor="1" style="clear: left; float: left; margin-bottom: 1em; margin-right: 1em;"><img border="0" height="320" src="http://1.bp.blogspot.com/-kWF8akews-I/UpbME3STI5I/AAAAAAAAD_A/9d4PArCg0Y4/s320/ashishkhan.jpg" width="253" /></a></div>\u000a<div style="text-align: justify;">\u000a<span style="font-family: Georgia,&quot;Times New Roman&quot;,serif;">Ustad Aashish Khan (also known as Aashish Khan Debsharma) has recently been in the news for his efforts to revive the Indo-Jazz musical group Shanti which he founded in 1969 collaborating with Ustad Zakir Hussain.&nbsp; The keenly awaited event happened in Bangalore featuring compositions based on popular Hindustani ragas, which were given English names.</span></div>\u000a<div style="text-align: justify;">\u000a<span style="font-family: Georgia,&quot;Times New Roman&quot;,serif;"><br />Being in the limelight comes easy to Aashish Khan, a third generation sarod maestro in the lineage of his late grandfather, Padma Vibhushan awardee Baba Allauddin Khan and his father, <a href="http://srutimag.blogspot.in/2012/05/whos-who-in-indian-classical-music_24.html" target="_blank">Ali Akbar Khan,</a> the renowned sarod maestro.&nbsp; With his mastery of the instrument and his virtuosity in playing style, he is one of India\u2019s leading sarod exponents.</span></div>\u000a<div style="text-align: justify;">\u000a<span style="font-family: Georgia,&quot;Times New Roman&quot;,serif;"><br />Born in 1939 in Maihar, a princely state in the erstwhile British Empire notable for its rich musical tradition, Ustad Aashish Khan was initiated into the fascinating journey of North Indian classical music at the tender age of five by his grandfather, Baba Allauddin Khan.&nbsp; Growing up in Maihar and Calcutta (now Kolkata), he continued his rigorous training under the guidance of his father, <a href="http://srutimag.blogspot.in/2012/05/whos-who-in-indian-classical-music_24.html" target="_blank">Ali Akbar Khan</a> and his aunt, Annapurna Devi, leading exponents of the Senia Maihar school of music which followed the traditional Beenkar and Rababiya gharanas in the Dhrupad style.&nbsp; His first public performance accompanying his grandfather came in 1952 when he was only 13, on the National Programme of All India Radio, New Delhi.&nbsp; The same year, the Tansen Music Conference in Calcutta saw young Aashish give a recital in the company of his father and grandfather.</span></div>\u000a<div style="text-align: justify;">\u000a<span style="font-family: Georgia,&quot;Times New Roman&quot;,serif;"><br />His foray into Indo-Jazz propelled him as a pioneer in the world music genre.&nbsp; His links with the musical culture of New Orleans, considered the Mecca of Jazz, and notable musicians like Charles Lloyd, Don Pope, Eric Clapton, George Harrison and the Philadelphia String Quartet have endeared him to the international music fraternity as a promoter of Indian classical music in the Western music arena.&nbsp; Closer home, his association with Pandit Ravi Shankar saw the setting of many musical compositions for stage productions and path breaking films directed by Satyajit Ray, that have passed into the annals of history.</span></div>\u000a<div style="text-align: justify;">\u000a<span style="font-family: Georgia,&quot;Times New Roman&quot;,serif;"><br />With a rich repertoire of experience on the faculties of the University of Washington, Seattle and the Ali Akbar College of Music in San Rafael, California, Ustad Aashish Khan continues his musical journey as a most admired musician and teacher to his vast group of students not only in India but in Canada, Europe and the US as well. He also serves as Adjunct Professor of Music at the California Institute of Arts, LA, and the University of California, Santa Cruz.</span></div>\u000a<div style="text-align: justify;">\u000a<span style="font-family: Georgia,&quot;Times New Roman&quot;,serif;"><br />The recipient of many international awards and the Sangeet Natak Akademi Award, Aashish Khan is the first Indian classical musician to become a Fellow of the Royal Asiatic Society of Great Britain and Ireland.</span></div>\u000a</div>\u000a
p3
sVkind
p4
Vblogger#post
p5
sVlabels
p6
(lp7
VPriyadarshini Ram
p8
asVtitle
p9
VWho\u2019s Who in Indian classical music
p10
sVurl
p11
Vhttp://srutimag.blogspot.com/2013/11/whos-who-in-indian-classical-music.html
p12
sVauthor
p13
(dp14
Vurl
p15
Vhttp://www.blogger.com/profile/07438923380988482057
p16
sVimage
p17
(dp18
Vurl
p19
Vhttp://4.bp.blogspot.com/-BatgBQQxSS8/TsyaRVkALGI/AAAAAAAAADI/pLRMa46usw4/s45/Sruti%25252BLogo.jpg
p20
ssVdisplayName
p21
VSruti Magazine
p22
sVid
p23
V07438923380988482057
p24
ssVupdated
p25
V2013-11-28T10:23:03+05:30
p26
sVreplies
p27
(dp28
VtotalItems
p29
V0
sVselfLink
p30
Vhttps://www.googleapis.com/blogger/v3/blogs/4158155864744163029/posts/2766730035590333488/comments
p31
ssVblog
p32
(dp33
Vid
p34
V4158155864744163029
p35
ssVpublished
p36
V2013-11-28T10:23:00+05:30
p37
sVid
p38
V2766730035590333488
p39
sVselfLink
p40
Vhttps://www.googleapis.com/blogger/v3/blogs/4158155864744163029/posts/2766730035590333488
p41
s.