(dp1
Vcontent
p2
V<div dir="ltr" style="text-align: left;" trbidi="on"><div style="font-family: Georgia,&quot;Times New Roman&quot;,serif; text-align: justify;"><b>Sikkil Gurucharan at Singapore temple&nbsp;&nbsp;</b></div><div style="font-family: Georgia,&quot;Times New Roman&quot;,serif; text-align: justify;"><b>&nbsp; <br />\u000aBy Sruti Pegatraju</b></div><div style="font-family: Georgia,&quot;Times New Roman&quot;,serif; text-align: right;"><b>Singapore</b></div><div style="font-family: Georgia,&quot;Times New Roman&quot;,serif; text-align: right;"><b>7 September 2012</b></div><div style="font-family: Georgia,&quot;Times New Roman&quot;,serif; text-align: justify;"><br />\u000a<div class="separator" style="clear: both; text-align: center;"><a href="http://1.bp.blogspot.com/-BtlwMqXn5EI/UE7XxoDrcbI/AAAAAAAABiA/g756-ufXHi8/s1600/sikkilgurucharan.jpg" imageanchor="1" style="clear: left; float: left; margin-bottom: 1em; margin-right: 1em;"><img border="0" src="http://1.bp.blogspot.com/-BtlwMqXn5EI/UE7XxoDrcbI/AAAAAAAABiA/g756-ufXHi8/s1600/sikkilgurucharan.jpg" /></a></div>It was a damp Friday evening with the pitter-patter of a dwindling Singapore storm still making its presence felt as we settled in our seats. The resonance of the tambura rippled in the air as Carnatic music\u2019s rising star Sikkil Gurucharan, violinist Sanjeev, veteran mridanga vidwan TR Sundaresan and N Devarajan on the morsing geared up for an evening of music at the Krishnan Temple, Singapore.</div><div style="font-family: Georgia,&quot;Times New Roman&quot;,serif; text-align: justify;"><br />\u000aTitled <i>Oothukaadu Vaibhavam,</i> the concert revolved around the compositions of Oothukadu Venkatasubbaiyer. Gurucharan launched into a Shanmukhapriya alapana that went into a Ganesa stuti of Oothukadu\u2019s navavarnam opera. Next came a piece on the composer\u2019s ishtadevata, a lively Mohanam number <i>Swagatam Krishna saranagatam Krishna</i> in tisra gati Adi talam switching to a chatusra gati in the charanam. Krishna\u2019s welcome by the bhakta was aptly underscored by the bright tisram of the mridangam interspersing the swaying vocal notes. The emphasis on selected karvais evoked images of a temple procession.</div><div style="font-family: Georgia,&quot;Times New Roman&quot;,serif; text-align: justify;"><br />\u000aThe popular <i>Parvai onru pothume</i> in the raga Surati was followed by a Kharaharapriya piece <i>Neethan mechikolla venum,</i> with exquisite alapana and swaram. A break in tempo was produced by a quick Athana composition <i>Madhura madhura venu geetam,</i> where Charan\u2019s voice and the mridangam seemed to sing in unison.</div><div style="font-family: Georgia,&quot;Times New Roman&quot;,serif; text-align: justify;"><br />\u000aNo piece was as emotionally stirring as the main item for the evening <i>Asai dan mayil onru Kanna</i> in Simhendramadhyamam. Heavy gamakas cascaded with ease, and impromptu holds between lines revealed the singer\u2019s control. The second half of the concert came much too quickly, including a soothing viruttam and tukkadas such as <i>Taaye Yasoda,</i> and concluding with a fast-paced Sindhubhairavi tillana. Oothukadu\u2019s bhakti towards Krishna revealed itself in every piece, from the soft melodies of the viruttam to the sparkling sangatis in Athana and Mohanam. The shifting plastic seats, open-air staging and occasional distraction of crowds passing did not take away from the gift of an evening of heartfelt music.</div><div style="font-family: Georgia,&quot;Times New Roman&quot;,serif; text-align: justify;"><br />\u000a<div style="text-align: right;"><i>The writer is a student of finance, music and dance, based in Singapore.</i></div></div></div>
p3
sVkind
p4
Vblogger#post
p5
sVlabels
p6
(lp7
VSruti Pegatraju
p8
asVtitle
p9
VOothukaadu Vaibhavam  
p10
sVurl
p11
Vhttp://srutimag.blogspot.com/2012/09/oothukaadu-vaibhavam.html
p12
sVauthor
p13
(dp14
Vurl
p15
Vhttp://www.blogger.com/profile/07438923380988482057
p16
sVimage
p17
(dp18
Vurl
p19
Vhttp://4.bp.blogspot.com/-BatgBQQxSS8/TsyaRVkALGI/AAAAAAAAADI/pLRMa46usw4/s45/Sruti%25252BLogo.jpg
p20
ssVdisplayName
p21
VSruti Magazine
p22
sVid
p23
V07438923380988482057
p24
ssVupdated
p25
V2012-09-11T11:49:08+05:30
p26
sVreplies
p27
(dp28
VtotalItems
p29
V0
sVselfLink
p30
Vhttps://www.googleapis.com/blogger/v3/blogs/4158155864744163029/posts/7976504474801309119/comments
p31
ssVblog
p32
(dp33
Vid
p34
V4158155864744163029
p35
ssVpublished
p36
V2012-09-11T11:49:00+05:30
p37
sVid
p38
V7976504474801309119
p39
sVselfLink
p40
Vhttps://www.googleapis.com/blogger/v3/blogs/4158155864744163029/posts/7976504474801309119
p41
s.