(dp1
Vcontent
p2
V<div dir="ltr" style="text-align: left;" trbidi="on"><div style="text-align: justify;"><b><span style="font-family: Georgia,&quot;Times New Roman&quot;,serif;">Aditya Prakash</span></b></div><div style="text-align: justify;"><br />\u000a</div><div class="separator" style="clear: both; text-align: center;"><a href="http://4.bp.blogspot.com/-_UAoGaa8IA8/UDR6v1zCUSI/AAAAAAAABEM/a-M6bLjWGGA/s1600/adityaprakash.jpg" imageanchor="1" style="clear: right; float: right; margin-bottom: 1em; margin-left: 1em;"><img border="0" height="320" src="http://4.bp.blogspot.com/-_UAoGaa8IA8/UDR6v1zCUSI/AAAAAAAABEM/a-M6bLjWGGA/s320/adityaprakash.jpg" width="215" /></a></div><div style="text-align: justify;"><span style="font-family: Georgia,&quot;Times New Roman&quot;,serif;">US-born Aditya Prakash is a talented young Carnatic vocalist. Starting at the age of eight, Aditya has been learning music in the US and India from Debur Srivathsa, Rose Muralikrishnan, Sugandha Kalamegham and now from P.S. Narayanaswami and Palai C.K. Ramachandran, both disciples of <a href="http://srutimag.blogspot.in/2012/05/whos-who-of-indian-classical-music.html" target="_blank">Semmangudi Srinivasier. </a><br />\u000a<br />\u000aAditya, who has a strong, deep voice, is a dedicated student of music. Though he is not a fluent speaker of Indian languages, he takes the trouble to be word-perfect on stage and his enunciation of lyrics is excellent. He has been performing solo Carnatic concerts since the age of 12 in the USA, Canada, Europe and India. He has performed at some of the best venues in the world. <br />\u000a<br />\u000aAditya received the AK Satagopan \u2018Yuva Kalakar Puraskar\u2019 award for the \u2018most promising artiste\u2019 from Sri Shanmukhananda Sabha, Mumbai, in 2009. During the Music Season in Chennai of 2008, Aditya was awarded \u2018Best Junior Vocalist\u2019 by the Tyaga Brahma Gana Sabha.</span></div><div style="text-align: justify;"><span style="font-family: Georgia,&quot;Times New Roman&quot;,serif;"><br />\u000aAlso keenly interested in Hindustani music and fusion, Aditya has had the wonderful experience of touring, performing and working with sitar maestro Ravi Shankar. Since the age of 16, Aditya has been featured in his \u2018Festival of India III\u2019 ensemble as lead vocalist, touring the USA and Canada. Aditya has also worked and performed with Anoushka Shankar as lead vocalist in her album live tours in Europe, the USA and Canada. He has also sung and recited poetry for the Chennai-based theatre group JustUs Repertory.</span></div><div style="text-align: justify;"><span style="font-family: Georgia,&quot;Times New Roman&quot;,serif;"><br />\u000aAditya Prakash, whose sister Mythili Prakash and mother Viji Prakash are accomplished bharata natyam dancers, blogs at <a href="http://adityaprakashmusic.blogspot.in/"><b>adityaprakashmusic.blogspot.in</b></a></span></div></div>
p3
sVkind
p4
Vblogger#post
p5
sVlabels
p6
(lp7
VV Ramnarayan
p8
asVtitle
p9
VMusicians to watch
p10
sVurl
p11
Vhttp://srutimag.blogspot.com/2012/08/musicians-to-watch.html
p12
sVauthor
p13
(dp14
Vurl
p15
Vhttp://www.blogger.com/profile/07438923380988482057
p16
sVimage
p17
(dp18
Vurl
p19
Vhttp://4.bp.blogspot.com/-BatgBQQxSS8/TsyaRVkALGI/AAAAAAAAADI/pLRMa46usw4/s45/Sruti%25252BLogo.jpg
p20
ssVdisplayName
p21
VSruti Magazine
p22
sVid
p23
V07438923380988482057
p24
ssVupdated
p25
V2012-08-22T14:17:41+05:30
p26
sVreplies
p27
(dp28
VtotalItems
p29
V0
sVselfLink
p30
Vhttps://www.googleapis.com/blogger/v3/blogs/4158155864744163029/posts/3745758113887436856/comments
p31
ssVblog
p32
(dp33
Vid
p34
V4158155864744163029
p35
ssVpublished
p36
V2012-08-22T11:53:00+05:30
p37
sVid
p38
V3745758113887436856
p39
sVselfLink
p40
Vhttps://www.googleapis.com/blogger/v3/blogs/4158155864744163029/posts/3745758113887436856
p41
s.