(dp1
Vcontent
p2
V<div dir="ltr" style="text-align: left;" trbidi="on"><div style="font-family: Georgia,&quot;Times New Roman&quot;,serif; text-align: justify;"><b>By </b><b>Ragz</b></div><div style="font-family: Georgia,&quot;Times New Roman&quot;,serif; text-align: justify;"><br />\u000aThe music goes on and so do the rasikas with their usual auditorium etiquette.&nbsp;&nbsp; The curtains go up at 6pm and we see rasikas trickling in indifferently well past the middle of the concert, unmindful of obstructing others\u2019 vision, taking their own sweet time to settle down, making a continuous racket even after settling down, only to sink into the comfort of the air conditioned hall and start gossiping.&nbsp;&nbsp; The age-old tradition of tani avartanam is fortunately still in vogue, but our rasikas adamantly continue their legacy of walking out mercilessly right at the start of the tani.&nbsp; <br />\u000a</div><div style="font-family: Georgia,&quot;Times New Roman&quot;,serif; text-align: justify;">During Bharatanatyam concerts, the kith and kin of the performers keen to be seen, keep pacing up and down everywhere talking on their mobile in high decibels. The audience claps at all the wrong times, while showing nil appreciation at all the right times, makes an indecent dash towards the cafeteria in between two concerts, frequently walks across the stage before the curtain and a lot more.</div></div>
p3
sVkind
p4
Vblogger#post
p5
sVlabels
p6
(lp7
VRagz
p8
asVtitle
p9
VAudience, mind your manners!
p10
sVurl
p11
Vhttp://srutimag.blogspot.com/2011/12/audience-mind-your-manners.html
p12
sVauthor
p13
(dp14
Vurl
p15
Vhttp://www.blogger.com/profile/07438923380988482057
p16
sVimage
p17
(dp18
Vurl
p19
Vhttp://4.bp.blogspot.com/-BatgBQQxSS8/TsyaRVkALGI/AAAAAAAAADI/pLRMa46usw4/s45/Sruti%25252BLogo.jpg
p20
ssVdisplayName
p21
VSruti Magazine
p22
sVid
p23
V07438923380988482057
p24
ssVupdated
p25
V2011-12-21T14:48:02+05:30
p26
sVreplies
p27
(dp28
VtotalItems
p29
V0
sVselfLink
p30
Vhttps://www.googleapis.com/blogger/v3/blogs/4158155864744163029/posts/7154942510791329382/comments
p31
ssVblog
p32
(dp33
Vid
p34
V4158155864744163029
p35
ssVpublished
p36
V2011-12-20T11:04:00+05:30
p37
sVid
p38
V7154942510791329382
p39
sVselfLink
p40
Vhttps://www.googleapis.com/blogger/v3/blogs/4158155864744163029/posts/7154942510791329382
p41
s.