(dp1
Vcontent
p2
V<div dir="ltr" style="text-align: left;" trbidi="on">\u000a<b><span style="font-size: small;"><span style="font-family: Georgia,&quot;Times New Roman&quot;,serif;"><span style="font-style: normal; text-decoration: none;">By KN Viswanathan</span></span></span></b><br />\u000a<div class="MsoNormal" style="text-align: justify;">\u000a<br /></div>\u000a<div class="MsoNormal" style="text-align: justify;">\u000a<span style="font-size: small;"><span style="font-family: Georgia,&quot;Times New Roman&quot;,serif;"><span style="font-style: normal; text-decoration: none;">The post-main part of a Carnatic music concert, which features lighter items, is popularly&nbsp;known as&nbsp;the tukkada session. The Music Academy programme list describes this as \u201cMiscellaneous\u201d or \u201cIdhara vagaigal\u201d in Tamil, meaning sundry items. Is it fair to so downgrade this segment? </span></span></span></div>\u000a<div class="MsoNormal" style="text-align: justify;">\u000a<br /></div>\u000a<div class="MsoNormal" style="text-align: justify;">\u000a<span style="font-size: small;"><span style="font-family: Georgia,&quot;Times New Roman&quot;,serif;"><span style="font-style: normal; text-decoration: none;">I don\u2019t think so. After an elaborate alapana, niraval, kalpana swaras for the main item or central piece of the concert in a ghana ragam followed by a tani avartanam comes this beautiful session. It provides the artist an opportunity to take the concert to a higher plane by judicious selection of songs of rich lyrical beauty. It has to be free from technical, intellectual or any kind of exhibitionism and should connect with the listener at a deeper level.&nbsp; The vocalist should be proficient in Sanskrit, Tamil, Telugu, Kannada and Malayalam with proper pronunciation and the right kind of musical imagination to properly render these kritis. </span></span></span></div>\u000a<span style="font-size: small;"><span style="font-family: Georgia,&quot;Times New Roman&quot;,serif;">&nbsp; <span style="font-style: normal; text-decoration: none;"></span></span></span><br />\u000a<div class="MsoNormal" style="text-align: justify;">\u000a<span style="font-size: small;"><span style="font-family: Georgia,&quot;Times New Roman&quot;,serif;"><span style="font-style: normal; text-decoration: none;">Several stalwarts excelled in this session. My father K V Narayanaswamy, like his great master Ariyakudi Ramanuja Iyengar, had a special liking for this section of the concert and had a rich repertoire to present the kind of songs best suited to this session. Songs of Tamil composers like Gopalakrishna Bharati, Papanasam Sivan, Vedanayakam Pillai, Tanjavur Sankra Iyer, Arunagirinathar, Kudumbai Siddhar, Ramalinga Swamigal, MD Ramanathan, the Dasa composers in Kannada, Swati Tirunal and Irayamin Thambi in Sanskrit, Malayalam and Manipravalam, and Arunachala Kavi, Andal\u2019s Tiruppavai, &nbsp;Rama nataka kritis, &nbsp;and kritis like </span></span></span><span style="font-size: small;"><span style="font-family: Georgia,&quot;Times New Roman&quot;,serif;"><span style="font-style: normal; text-decoration: none;"><span style="font-size: small;"><span style="font-family: Georgia,&quot;Times New Roman&quot;,serif;"><span style="font-style: normal; text-decoration: none;">Syama Sastri's</span></span></span>Mayamma or the Neelambari kriti Ennaga manasu of Tyagaraja are some of the gems that come to mind.</span></span></span></div>\u000a<div class="MsoNormal" style="text-align: justify;">\u000a<br /></div>\u000a<div class="MsoNormal" style="text-align: justify;">\u000a<span style="font-size: small;"><span style="font-family: Georgia,&quot;Times New Roman&quot;,serif;"><span style="font-style: normal; text-decoration: none;">KVN spaced out the programme in such a way that he had time to sing at least five to six songs after the central piece. The ragas he chose were mostly Khamas, Behag, Bagesree, Nadanamakriya, Ahiri, Neelambari, Sindhubhairavi, Kapi, Suruti, Kurinji, Brindavana Saranga, Chintamani, Chenchuritti, Manji, Yamuna Kalyani, Jonpuri and Yadukula Kambhoji. </span></span></span></div>\u000a<div class="MsoNormal" style="text-align: justify;">\u000a<br /></div>\u000a<div class="MsoNormal" style="text-align: justify;">\u000a<span style="font-size: small;"><span style="font-family: Georgia,&quot;Times New Roman&quot;,serif;"><span style="font-style: normal; text-decoration: none;">A leading mridangam vidwan once said that he did not have to worry about the audience walking out during the tani avartanam when he accompanied KVN because they would stay back to listen to the gems he would soon sing. </span></span></span></div>\u000a<div class="MsoNormal" style="text-align: justify;">\u000a<br /></div>\u000a<div class="MsoNormal" style="text-align: justify;">\u000a<span style="font-size: small;"><span style="font-family: Georgia,&quot;Times New Roman&quot;,serif;"><span style="font-style: normal; text-decoration: none;">When MS sang Kurai onrum illai or the beautiful Annamacharya song Jo Atchutananda (Kapi), or when KVN sang the Gopalakrishna Bharati\u2019s Varugalamo ayya (Manji) or a folk song like Meiporul kandorku in Chenchuritti, the listener was transported to a different world and the music lingered in their hearts long after the concert. </span></span></span></div>\u000a<div class="MsoNormal" style="text-align: justify;">\u000a<br /></div>\u000a<div class="MsoNormal" style="text-align: justify;">\u000a<span style="font-size: small;"><span style="font-family: Georgia,&quot;Times New Roman&quot;,serif;"><span style="font-style: normal; text-decoration: none;">My recommendation is that the post tani session be called the soul filling session or soul lifting session.</span></span></span></div>\u000a</div>\u000a
p3
sVkind
p4
Vblogger#post
p5
sVlabels
p6
(lp7
VKN Viswanathan
p8
asVtitle
p9
VThe soul of a cutcheri
p10
sVurl
p11
Vhttp://srutimag.blogspot.com/2012/12/the-soul-of-cutcheri.html
p12
sVauthor
p13
(dp14
Vurl
p15
Vhttp://www.blogger.com/profile/07438923380988482057
p16
sVimage
p17
(dp18
Vurl
p19
Vhttp://4.bp.blogspot.com/-BatgBQQxSS8/TsyaRVkALGI/AAAAAAAAADI/pLRMa46usw4/s45/Sruti%25252BLogo.jpg
p20
ssVdisplayName
p21
VSruti Magazine
p22
sVid
p23
V07438923380988482057
p24
ssVupdated
p25
V2012-12-05T11:21:53+05:30
p26
sVreplies
p27
(dp28
VtotalItems
p29
V3
sVselfLink
p30
Vhttps://www.googleapis.com/blogger/v3/blogs/4158155864744163029/posts/7691384513036594411/comments
p31
ssVblog
p32
(dp33
Vid
p34
V4158155864744163029
p35
ssVpublished
p36
V2012-12-05T11:22:00+05:30
p37
sVid
p38
V7691384513036594411
p39
sVselfLink
p40
Vhttps://www.googleapis.com/blogger/v3/blogs/4158155864744163029/posts/7691384513036594411
p41
s.