(dp1
Vcontent
p2
V<div dir="ltr" style="text-align: left;" trbidi="on"><div style="font-family: Georgia,&quot;Times New Roman&quot;,serif; text-align: justify;"><b>By S Sivaramakrishnan</b><br />\u000a&nbsp;</div><div style="font-family: Georgia,&quot;Times New Roman&quot;,serif; text-align: justify;">Going by the emerging trends in the presentation of Carnatic music, the day may not be too far when concerts of these sorts happen:<br />\u000a&nbsp;</div><div style="font-family: Georgia,&quot;Times New Roman&quot;,serif; text-align: justify;"><b>Multi star concerts</b><br />\u000a&nbsp;</div><div style="font-family: Georgia,&quot;Times New Roman&quot;,serif; text-align: justify;">If you could roughly divide the concert into three parts, the first artist will render a varnam, a few kriti-s and the so called \u2018sub-main\u2019; the key vidwan will handle the core segment consisting of rare numbers and the main piece and the third artist will go merry with the tukkada section. An RTP expert will chip in, if needed, between the core and tukkada segments.<br />\u000a&nbsp;</div><div style="font-family: Georgia,&quot;Times New Roman&quot;,serif; text-align: justify;"><b>Multi-pitch concerts</b><br />\u000a&nbsp;</div><div style="font-family: Georgia,&quot;Times New Roman&quot;,serif; text-align: justify;">Very simple. For \u2018medium-sthayi\u2019 oriented pieces (for example, the Todi swarajati <i>Raave himagiri</i>) the artist will happily choose a bright pitch. He will select a low pitch for kriti-s like <i>Ksheera sagara,</i> where hitting the upper panchama at <i>Taraka nama</i> is mandatory. Needless to say multi-pitch concerts will be a boon for artists who do not have a sweeping range. Of course you have to put up with the interludes for change of sruti or instruments between songs.<br />\u000a<br />\u000a<b>Double duets</b><br />\u000a&nbsp;</div><div style="font-family: Georgia,&quot;Times New Roman&quot;,serif; text-align: justify;">In other words, two duets on the same platform. This can promote healthy competition. Requires adequate space on the platform. The so-called \u2018stage presence\u2019 will be guaranteed!<br />\u000a&nbsp;</div><div style="font-family: Georgia,&quot;Times New Roman&quot;,serif; text-align: justify;"><b>Vaggeyakara concerts</b><br />\u000a&nbsp;</div><div style="font-family: Georgia,&quot;Times New Roman&quot;,serif; text-align: justify;">Here the artist will dress up like the composer of the kriti. As considerable time may be needed for change-overs, two or more artists may participate and \u2018alternate\u2019 the slots.<br />\u000a&nbsp;</div><div style="font-family: Georgia,&quot;Times New Roman&quot;,serif; text-align: justify;"><b>Brainteasers</b><br />\u000a&nbsp;</div><div style="font-family: Georgia,&quot;Times New Roman&quot;,serif; text-align: justify;">A group of well rehearsed artists sit together. Songs won\u2019t start at the pallavi. Singers take turn to sing sahitya passages at random to make meaningful formations to elicit audience admiration and finally arrive at the kriti. These events will also have raga alapana with rare pidi-s leaving the listeners guessing the raga name. The exact raga roopa will emerge after a while.<br />\u000a&nbsp;</div><div style="font-family: Georgia,&quot;Times New Roman&quot;,serif; text-align: justify;">Three or four rasika volunteers can be provided with buzzers and rewarded with gifts for quickest identification of the raga as quiz programmes.<br />\u000a&nbsp;</div><div style="font-family: Georgia,&quot;Times New Roman&quot;,serif; text-align: justify;"><b>Camaraderie concerts</b><br />\u000a&nbsp;</div><div style="font-family: Georgia,&quot;Times New Roman&quot;,serif; text-align: justify;">The raga will be rendered by one team, the kriti by another, the niraval-swaraprastara by yet another and so on. Entertainment assured!<br />\u000a&nbsp;</div><div style="font-family: Georgia,&quot;Times New Roman&quot;,serif; text-align: justify;"><b>Sing along concerts</b><br />\u000a&nbsp;</div><div style="font-family: Georgia,&quot;Times New Roman&quot;,serif; text-align: justify;">If you are a great fan of a particular singer, you can fulfil your dream singing along with the star your favourite kriti sitting beside him or her on the stage. Mind you, the cost can be high or even exorbitant.<br />\u000a&nbsp;</div><div style="font-family: Georgia,&quot;Times New Roman&quot;,serif; text-align: justify;"><b>Walk-in music</b><br />\u000a&nbsp;</div><div style="font-family: Georgia,&quot;Times New Roman&quot;,serif; text-align: justify;">The event promoters bring a celebrity to your doorstep quite unexpectedly on a Sunday. How well you receive the team and treat them to instant snacks with ingredients provided by the sponsor will be the challenge for the host. The reward will be in the form of a song of your choice rendered by the guest artist.<br />\u000a&nbsp;</div><div style="font-family: Georgia,&quot;Times New Roman&quot;,serif; text-align: justify;">Any more ideas?</div></div>
p3
sVkind
p4
Vblogger#post
p5
sVlabels
p6
(lp7
VS Sivaramakrishnan
p8
asVtitle
p9
VDesigner concerts
p10
sVurl
p11
Vhttp://srutimag.blogspot.com/2012/01/designer-concerts.html
p12
sVauthor
p13
(dp14
Vurl
p15
Vhttp://www.blogger.com/profile/07438923380988482057
p16
sVimage
p17
(dp18
Vurl
p19
Vhttp://4.bp.blogspot.com/-BatgBQQxSS8/TsyaRVkALGI/AAAAAAAAADI/pLRMa46usw4/s45/Sruti%25252BLogo.jpg
p20
ssVdisplayName
p21
VSruti Magazine
p22
sVid
p23
V07438923380988482057
p24
ssVupdated
p25
V2012-01-17T11:24:17+05:30
p26
sVreplies
p27
(dp28
VtotalItems
p29
V1
sVselfLink
p30
Vhttps://www.googleapis.com/blogger/v3/blogs/4158155864744163029/posts/1193997064698140407/comments
p31
ssVblog
p32
(dp33
Vid
p34
V4158155864744163029
p35
ssVpublished
p36
V2012-01-17T11:24:00+05:30
p37
sVid
p38
V1193997064698140407
p39
sVselfLink
p40
Vhttps://www.googleapis.com/blogger/v3/blogs/4158155864744163029/posts/1193997064698140407
p41
s.