(dp1
Vcontent
p2
V<div dir="ltr" style="text-align: left;" trbidi="on"><div style="text-align: justify;"><span style="font-family: Georgia,&quot;Times New Roman&quot;,serif;"><b>A study in two parts</b></span></div><div style="text-align: justify;"><span style="font-family: Georgia,&quot;Times New Roman&quot;,serif;"><b><br />\u000aBy R Vedavalli</b></span></div><div style="text-align: justify;"><br />\u000a</div><div style="text-align: right;"><span style="font-family: Georgia,&quot;Times New Roman&quot;,serif;">(Continued from blogpost dated <a href="http://srutimag.blogspot.in/2012/08/todi-and-tyagaraja-part-1.html" target="_blank">22 August 2012</a>)<b>&nbsp;</b></span></div><div style="text-align: right;"><br />\u000a<span style="font-family: Georgia,&quot;Times New Roman&quot;,serif;"><b>&nbsp;</b></span><span style="font-family: Georgia,&quot;Times New Roman&quot;,serif;"><i>(Edited excerpts from a lecture-demonstration for the Saraswati Vaggeyakara Trust)</i></span></div><div style="text-align: right;"><br />\u000a</div><div class="separator" style="clear: both; text-align: center;"><a href="http://3.bp.blogspot.com/-Z1uxkEU7HPA/UDX7KsT3JZI/AAAAAAAABI0/laNdKt5lFZM/s1600/tyagaraja.jpg" imageanchor="1" style="clear: right; float: right; margin-bottom: 1em; margin-left: 1em;"><img border="0" height="320" src="http://3.bp.blogspot.com/-Z1uxkEU7HPA/UDX7KsT3JZI/AAAAAAAABI0/laNdKt5lFZM/s320/tyagaraja.jpg" width="249" /></a></div><div style="text-align: justify;"><span style="font-family: Georgia,&quot;Times New Roman&quot;,serif;">Now we return to Todi and look at the unsurpassed beauty of some of its aspects. It is more pertinent to look at the growth of this raga in the past two centuries into a major raga in Carnatic music rather than go into proving its antiquity. To repeat the obvious, Todi is a vast raga with such infinite scope that all the aspects of raga vistara can be achieved comfortably in it. How is this achieved? There are many ragas based on phrases or prayogas and improvising a raga alapana means elaborating and expanding these phrases. But Todi is very unique in that every swara is a jiva swara or life note and nyasa swara or ending note. It allows for elaboration of every gamaka and every note. The gandhara, for instance, has innumerable hues and myriad shades. It can be moved in so many different ways and it yields to different types of gamakas.</span></div><div style="text-align: justify;"><span style="font-family: Georgia,&quot;Times New Roman&quot;,serif;"><br />\u000aIt is said that the great musician Konerirajapuram Vaidyanatha Iyer, while elaborating on Todi, could move the gandhara in a particular way and fashion an entire gamut of sangatis around that one movement. Then he would move on to another variation of the gandhara and again build an entirely new set of sangatis to complement that gamaka. It was no wonder that his concerts lasted many hours. Todi Sitaramayya, a predecessor of Konerirajapuram, gained the title \u2018Todi\u2019 because of the intense and creative Todi experience he consistently crafted.</span></div><div style="text-align: justify;"><span style="font-family: Georgia,&quot;Times New Roman&quot;,serif;"><br />\u000aThe many hues of the Todi Ga have been well documented in Balaswami Dikshitar\u2019s chittaswaram in the kriti Gajavadana of Kumara Ettendra. This unparalleled chittaswaram is a veritable archive of not merely the different gamakas of the Todi Ga, but also minute variations in such aspects as frequency and length possible in the same gamaka thus producing subtly diverse effects.</span></div><div style="text-align: justify;"><span style="font-family: Georgia,&quot;Times New Roman&quot;,serif;"><br />\u000aA special feature of Todi is the varja prayoga or phrases where notes are skipped. This, in Todi in particular, enhances the beauty and rakti of the raga. In the fourth charana chittaswaram of the Todi varnam Eranapai, we see the aspect of varja prayoga brought out beautifully where the whole chittaswaram is panchama varja. Almost all composers including the Trinity, pre-Trinity and post-Trinity composers down to Papanasam Sivan and later composers, have been captivated by this ocean of aesthetic possibilities called Todi. Todi lends itself to many compositional forms such as chauka and tana varnams, padams, gitams, kritis and kirtanams. Among these, two of the most unique are the swarajati by Syama Sastri and the swarasthana varna of Ramaswami Dikshitar. This swarasthana varnam is entirely in swarakshara, each syllable of the lyric being the same as its corresponding note. Only Todi yields itself to such creativity.</span></div><div style="text-align: justify;"><span style="font-family: Georgia,&quot;Times New Roman&quot;,serif;"><br />\u000aAmong the composers Tyagaraja perhaps has the most prolific collection of compositions in Todi. His compositions illustrate most of the aspects of the raga.</span></div><div style="text-align: justify;"><span style="font-family: Georgia,&quot;Times New Roman&quot;,serif;"><br />\u000aAs though to illustrate the point that every note in Todi is significant and hence compositions may commence in \u2018any note in any register, Tyagaraja has composed kritis beginning in swaras ranging from the mandra sthayi dhaivata to the tara sthayi shadja.</span></div><div style="text-align: justify;"><span style="font-family: Georgia,&quot;Times New Roman&quot;,serif;"></span></div><ol style="text-align: left;"><li><span style="font-family: Georgia,&quot;Times New Roman&quot;,serif;">Dasarathi - mandra dhaivata</span></li>\u000a<li><span style="font-family: Georgia,&quot;Times New Roman&quot;,serif;">Varidhi Niku - mandra dhaivata</span></li>\u000a<li><span style="font-family: Georgia,&quot;Times New Roman&quot;,serif;">Gatinivani - madhya shadja</span></li>\u000a<li><span style="font-family: Georgia,&quot;Times New Roman&quot;,serif;">Rajuvedala - madhya shadja</span></li>\u000a<li><span style="font-family: Georgia,&quot;Times New Roman&quot;,serif;">Ninnuvina - madhya shadja</span></li>\u000a<li><span style="font-family: Georgia,&quot;Times New Roman&quot;,serif;">Endu daginado - madhya shadja</span></li>\u000a<li><span style="font-family: Georgia,&quot;Times New Roman&quot;,serif;">Aragimpave - madhya shadja</span></li>\u000a<li><span style="font-family: Georgia,&quot;Times New Roman&quot;,serif;">Karunajudavamma - madhya gandhara</span></li>\u000a<li><span style="font-family: Georgia,&quot;Times New Roman&quot;,serif;">Hariyanuvari - madhya gandhara</span></li>\u000a<li><span style="font-family: Georgia,&quot;Times New Roman&quot;,serif;">Kaddanuvariki - madhya madhyama</span></li>\u000a<li><span style="font-family: Georgia,&quot;Times New Roman&quot;,serif;">Chesinadella - madhya panchama </span></li>\u000a<li><span style="font-family: Georgia,&quot;Times New Roman&quot;,serif;">Brindavanalola - madhya panchama </span></li>\u000a<li><span style="font-family: Georgia,&quot;Times New Roman&quot;,serif;">Dacukovalana - madhya dhaivata </span></li>\u000a<li><span style="font-family: Georgia,&quot;Times New Roman&quot;,serif;">Koti nadulu - madhya dhaivata </span></li>\u000a<li><span style="font-family: Georgia,&quot;Times New Roman&quot;,serif;">Emi jesitenemi - madhya dhaivata </span></li>\u000a<li><span style="font-family: Georgia,&quot;Times New Roman&quot;,serif;">Munnu ravana - madhya dhaivata </span></li>\u000a<li><span style="font-family: Georgia,&quot;Times New Roman&quot;,serif;">Enduku dayaradu - madhya dhaivata </span></li>\u000a<li><span style="font-family: Georgia,&quot;Times New Roman&quot;,serif;">Ni daya ravale - madhya nishada </span></li>\u000a<li><span style="font-family: Georgia,&quot;Times New Roman&quot;,serif;">Koluvamaregada - tara shadja </span></li>\u000a<li><span style="font-family: Georgia,&quot;Times New Roman&quot;,serif;">Emani matladitivo - tara shadja </span></li>\u000a<li><span style="font-family: Georgia,&quot;Times New Roman&quot;,serif;">Tappi bratiki - tara shadja </span></li>\u000a<li><span style="font-family: Georgia,&quot;Times New Roman&quot;,serif;">Kada terarada - madhya shadja </span></li>\u000a<li><span style="font-family: Georgia,&quot;Times New Roman&quot;,serif;">Poddu poyyeni - madhya shadja </span></li>\u000a<li><span style="font-family: Georgia,&quot;Times New Roman&quot;,serif;">Re manasa - madhya gandhara</span></li>\u000a</ol><div style="text-align: justify;"><span style="font-family: Georgia,&quot;Times New Roman&quot;,serif;">The kritis also capture precisely the raga vistara possibilities in all the registers, thus laying out a map of the raga vistara paddhati, complete with sangatis and intensive gamaka prayogas. Also illustrated in these kritis is the fact that in Todi every swara can be considered a graha swara (an important note in the raga from which the alapana is begun).</span></div><div style="text-align: justify;"><br />\u000a</div><div class="separator" style="clear: both; text-align: center;"><a href="http://4.bp.blogspot.com/-4LijPm9jFDY/UDX7c9zmjYI/AAAAAAAABI8/KvQpVqek0_I/s1600/veda.jpg" imageanchor="1" style="clear: left; float: left; margin-bottom: 1em; margin-right: 1em;"><img border="0" height="320" src="http://4.bp.blogspot.com/-4LijPm9jFDY/UDX7c9zmjYI/AAAAAAAABI8/KvQpVqek0_I/s320/veda.jpg" width="215" /></a></div><div style="text-align: justify;"><span style="font-family: Georgia,&quot;Times New Roman&quot;,serif;">The special appeal of mandra dhaivata in Todi is brought home by all three of the Trinity in their compositions Varidhi niku (Tyagaraja), Dakshayani (Muttusvami Dikshitar) and Rave Himagiri (Syama Sastri), all of which begin from that note.</span></div><div style="text-align: justify;"><span style="font-family: Georgia,&quot;Times New Roman&quot;,serif;"><br />\u000aTyagaraja\u2019s compositions in Todi vary as widely in their talas as in their kalapramana. His compositions have numerous sangatis that beautifully encapsulate the raga vistara paddhati. Many concepts like the development of the raga, kalapramana and use of sthayi are well delineated in Tyagaraja\u2019s compositions especially through the layers of sangatis, apt examples of which are Endu daginado and Varidhi, The sangatis in these kritis also serve as lessons in effectively combining speeds while Singing raga phrases.</span></div><div style="text-align: justify;"><span style="font-family: Georgia,&quot;Times New Roman&quot;,serif;"><br />\u000aTodi cannot be said to represent any particular rasa or bhava. Although it is normally assigned the label of karuna rasa, I believe that Todi is too prolific to be restricted to a particular rasa or bhava. Tyagaraja\u2019s kritis themselves clarify this point. The range of sentiments he has expressed in his Todi kritis is so wide as to cover several if not all the rasas and bhava, For instance in Emani matladitivo he is struck by wonder (adbhuta) at hew adept Rama is in talking to such a wide variety of people from kings to commoners. While Cesina della and Varidhi are steeped in karuna rasa, Emi jesitenemi and Kaddanuvariki are in the mode of upadesa where the composer views the world with a sense of equanimity.</span></div><div style="text-align: justify;"><span style="font-family: Georgia,&quot;Times New Roman&quot;,serif;"><br />\u000aTyagaraja has proved to be a pioneer in popularising Todi. He has certainly made a significant contribution to giving Todi a certain form as well as a certain stature because of the sheer volume and quality of compositions he has composed in it. One could go a bit further and claim for Tyagaraja the credit for endowing Todi with a special pearl-like lustre by delving into its ocean-like depths.</span></div><div style="text-align: justify;"><span style="font-family: Georgia,&quot;Times New Roman&quot;,serif;"><br />\u000a<i>(The lec-dem was held at the Narada Gana Sabha on 21 December 2003)</i></span></div><br />\u000a<div style="text-align: right;"><b><span style="font-family: Georgia,&quot;Times New Roman&quot;,serif;">(Concluded)</span></b></div></div>
p3
sVkind
p4
Vblogger#post
p5
sVlabels
p6
(lp7
VR Vedavalli
p8
asVtitle
p9
VTodi and Tyagaraja (part II)
p10
sVurl
p11
Vhttp://srutimag.blogspot.com/2012/08/todi-and-tyagara-part-ii.html
p12
sVauthor
p13
(dp14
Vurl
p15
Vhttp://www.blogger.com/profile/07438923380988482057
p16
sVimage
p17
(dp18
Vurl
p19
Vhttp://4.bp.blogspot.com/-BatgBQQxSS8/TsyaRVkALGI/AAAAAAAAADI/pLRMa46usw4/s45/Sruti%25252BLogo.jpg
p20
ssVdisplayName
p21
VSruti Magazine
p22
sVid
p23
V07438923380988482057
p24
ssVupdated
p25
V2012-08-27T17:49:23+05:30
p26
sVreplies
p27
(dp28
VtotalItems
p29
V0
sVselfLink
p30
Vhttps://www.googleapis.com/blogger/v3/blogs/4158155864744163029/posts/3445600593874409467/comments
p31
ssVblog
p32
(dp33
Vid
p34
V4158155864744163029
p35
ssVpublished
p36
V2012-08-23T15:15:00+05:30
p37
sVid
p38
V3445600593874409467
p39
sVselfLink
p40
Vhttps://www.googleapis.com/blogger/v3/blogs/4158155864744163029/posts/3445600593874409467
p41
s.