(dp1
Vcontent
p2
V<div dir="ltr" style="text-align: left;" trbidi="on">\u000a<div class="MsoPlainText">\u000a<span style="font-family: Georgia,&quot;Times New Roman&quot;,serif;"></span></div>\u000a<div class="MsoPlainText" style="text-align: justify;">\u000a<span style="font-family: Georgia,&quot;Times New Roman&quot;,serif;"><span style="color: #19254a; font-size: 12.0pt; letter-spacing: 1.0pt; mso-bidi-font-size: 8.5pt;"><b>Mayor honours Chiravina Ravikiran&nbsp;</b></span></span></div>\u000a<div class="MsoPlainText" style="text-align: justify;">\u000a<span style="font-family: Georgia,&quot;Times New Roman&quot;,serif;"><br /></span></div>\u000a<div class="MsoPlainText" style="text-align: justify;">\u000a<span style="font-family: Georgia,&quot;Times New Roman&quot;,serif;"><span style="color: #19254a; font-size: 12.0pt; letter-spacing: 1.0pt; mso-bidi-font-size: 8.5pt;"><b>By Samudri</b></span></span></div>\u000a<div class="MsoPlainText" style="text-align: justify;">\u000a<span style="font-family: Georgia,&quot;Times New Roman&quot;,serif;"><span style="color: #19254a; font-size: 12.0pt; letter-spacing: 1.0pt; mso-bidi-font-size: 8.5pt;"><br /></span></span></div>\u000a<div class="MsoPlainText" style="text-align: justify;">\u000a<span style="font-family: Georgia,&quot;Times New Roman&quot;,serif;"><span style="color: #19254a; font-size: 12.0pt; letter-spacing: 1.0pt; mso-bidi-font-size: 8.5pt;">Middleton, WI<br />November 16, 2013</span></span></div>\u000a<div class="MsoPlainText" style="text-align: justify;">\u000a<span style="font-family: Georgia,&quot;Times New Roman&quot;,serif;"><span style="color: #19254a; font-size: 12.0pt; letter-spacing: 1.0pt; mso-bidi-font-size: 8.5pt;">As a tribute to\u000aChitravina N Ravikiran's concept of Melharmony, the Mayor of the city of\u000aMiddleton, WI, USA, has decreed the 3rd Saturday of every November as\u000aMelharmony Day.<o:p></o:p></span></span></div>\u000a<div class="MsoPlainText" style="text-align: justify;">\u000a<span style="font-family: Georgia,&quot;Times New Roman&quot;,serif;"><br /></span></div>\u000a<div class="MsoPlainText" style="text-align: justify;">\u000a<span style="font-family: Georgia,&quot;Times New Roman&quot;,serif;"><span style="color: #19254a; font-size: 12.0pt; letter-spacing: 1.0pt; mso-bidi-font-size: 8.5pt;">The proclamation came\u000aon the eve of the first OVK-Bach Festival, held at Middleton, featuring\u000aOottukkadu Venkata Kavi and Johann Sebastian Bach, two 18th century composers\u000afrom two different parts of the world.<o:p></o:p></span></span></div>\u000a<div class="MsoPlainText" style="text-align: justify;">\u000a<span style="font-family: Georgia,&quot;Times New Roman&quot;,serif;"><span style="color: #19254a; font-size: 12.0pt; letter-spacing: 1.0pt; mso-bidi-font-size: 8.5pt;"></span></span></div>\u000a<div class="MsoPlainText" style="text-align: justify;">\u000a<span style="font-family: Georgia,&quot;Times New Roman&quot;,serif;"><span style="color: #19254a; font-size: 12.0pt; letter-spacing: 1.0pt; mso-bidi-font-size: 8.5pt;"><br /></span></span></div>\u000a<div class="MsoPlainText" style="text-align: justify;">\u000a<span style="font-family: Georgia,&quot;Times New Roman&quot;,serif;"><span style="color: #19254a; font-size: 12pt; letter-spacing: 1pt;">Here is the text of the Mayor's proclamation:</span></span></div>\u000a<div class="MsoPlainText">\u000a<span style="font-family: Georgia,&quot;Times New Roman&quot;,serif;"><span style="color: #19254a; font-size: 12pt; letter-spacing: 1pt;"><br /></span></span></div>\u000a<div class="MsoPlainText">\u000a<span style="font-family: Georgia,&quot;Times New Roman&quot;,serif;"></span></div>\u000a<div align="center" class="MsoPlainText" style="text-align: center;">\u000a<span style="font-family: Georgia,&quot;Times New Roman&quot;,serif;"></span></div>\u000a<div class="separator" style="clear: both; text-align: center;">\u000a<span style="font-family: Georgia,&quot;Times New Roman&quot;,serif;"><a href="http://1.bp.blogspot.com/-j6nwEGxwJ28/UpltzF2zVII/AAAAAAAAD_s/81C7Kiduw-o/s1600/mayor.jpg" imageanchor="1" style="margin-left: 1em; margin-right: 1em;"><img border="0" height="200" src="http://1.bp.blogspot.com/-j6nwEGxwJ28/UpltzF2zVII/AAAAAAAAD_s/81C7Kiduw-o/s200/mayor.jpg" width="198" /></a></span></div>\u000a<div align="center" class="MsoPlainText" style="text-align: center;">\u000a<span style="font-family: Georgia,&quot;Times New Roman&quot;,serif;"><b><span style="font-size: 14.0pt; mso-bidi-font-size: 10.0pt; mso-fareast-font-family: &quot;MS Mincho&quot;;">PROCLAMATION<o:p></o:p></span></b></span></div>\u000a<div align="center" class="MsoPlainText" style="text-align: center;">\u000a<span style="font-family: Georgia,&quot;Times New Roman&quot;,serif;"><br /></span></div>\u000a<div align="center" class="MsoPlainText" style="text-align: center;">\u000a<span style="font-family: Georgia,&quot;Times New Roman&quot;,serif;"><b><span style="font-size: 14.0pt; mso-bidi-font-size: 10.0pt; mso-fareast-font-family: &quot;MS Mincho&quot;;">Melharmony Day in Middleton-November 16,\u000a2013<o:p></o:p></span></b></span></div>\u000a<div align="center" class="MsoPlainText" style="text-align: center;">\u000a<span style="font-family: Georgia,&quot;Times New Roman&quot;,serif;"></span></div>\u000a<div align="center" class="MsoPlainText" style="text-align: center;">\u000a<span style="font-family: Georgia,&quot;Times New Roman&quot;,serif;"><br /></span></div>\u000a<div align="center" class="MsoPlainText" style="text-align: center;">\u000a<span style="font-family: Georgia,&quot;Times New Roman&quot;,serif;"><i><span style="font-size: 12.0pt; mso-bidi-font-size: 10.0pt; mso-fareast-font-family: &quot;MS Mincho&quot;;">Whereas,<o:p></o:p></span></i></span></div>\u000a<div align="center" class="MsoPlainText" style="text-align: center;">\u000a<span style="font-family: Georgia,&quot;Times New Roman&quot;,serif;"><br /></span></div>\u000a<div align="center" class="MsoPlainText" style="text-align: center;">\u000a<span style="font-family: Georgia,&quot;Times New Roman&quot;,serif;"><i><span style="font-size: 12.0pt; mso-bidi-font-size: 10.0pt; mso-fareast-font-family: &quot;MS Mincho&quot;;">The two major approaches to music in the\u000aworld have been melody and harmony; and<o:p></o:p></span></i></span></div>\u000a<div align="center" class="MsoPlainText" style="text-align: center;">\u000a<span style="font-family: Georgia,&quot;Times New Roman&quot;,serif;"></span></div>\u000a<div align="center" class="MsoPlainText" style="text-align: center;">\u000a<span style="font-family: Georgia,&quot;Times New Roman&quot;,serif;"><br /></span></div>\u000a<div align="center" class="MsoPlainText" style="text-align: center;">\u000a<span style="font-family: Georgia,&quot;Times New Roman&quot;,serif;"><i><span style="font-size: 12.0pt; mso-bidi-font-size: 10.0pt; mso-fareast-font-family: &quot;MS Mincho&quot;;">Whereas,<o:p></o:p></span></i></span></div>\u000a<div align="center" class="MsoPlainText" style="text-align: center;">\u000a<span style="font-family: Georgia,&quot;Times New Roman&quot;,serif;"><br /></span></div>\u000a<div align="center" class="MsoPlainText" style="text-align: center;">\u000a<span style="font-family: Georgia,&quot;Times New Roman&quot;,serif;"><i><span style="font-size: 12.0pt; mso-bidi-font-size: 10.0pt; mso-fareast-font-family: &quot;MS Mincho&quot;;">Even though the two systems evolved in\u000aparallel in various parts of the world over centuries; and<o:p></o:p></span></i></span></div>\u000a<div align="center" class="MsoPlainText" style="text-align: center;">\u000a<span style="font-family: Georgia,&quot;Times New Roman&quot;,serif;"></span></div>\u000a<div align="center" class="MsoPlainText" style="text-align: center;">\u000a<span style="font-family: Georgia,&quot;Times New Roman&quot;,serif;"><br /></span></div>\u000a<div align="center" class="MsoPlainText" style="text-align: center;">\u000a<span style="font-family: Georgia,&quot;Times New Roman&quot;,serif;"><i><span style="font-size: 12.0pt; mso-bidi-font-size: 10.0pt; mso-fareast-font-family: &quot;MS Mincho&quot;;">Whereas,<o:p></o:p></span></i></span></div>\u000a<div align="center" class="MsoPlainText" style="text-align: center;">\u000a<span style="font-family: Georgia,&quot;Times New Roman&quot;,serif;"><br /></span></div>\u000a<div align="center" class="MsoPlainText" style="text-align: center;">\u000a<span style="font-family: Georgia,&quot;Times New Roman&quot;,serif;"><i><span style="font-size: 12.0pt; mso-bidi-font-size: 10.0pt; mso-fareast-font-family: &quot;MS Mincho&quot;;">Melodic music made great strides around\u000athe 1700s in India through composers such as Oottukkadu Venkata Kavi (OVK),\u000aTyagaraja, Muttuswami Dikshitar, Shyama Shastri and others; and<o:p></o:p></span></i></span></div>\u000a<div align="center" class="MsoPlainText" style="text-align: center;">\u000a<span style="font-family: Georgia,&quot;Times New Roman&quot;,serif;"></span></div>\u000a<div align="center" class="MsoPlainText" style="text-align: center;">\u000a<span style="font-family: Georgia,&quot;Times New Roman&quot;,serif;"><br /></span></div>\u000a<div align="center" class="MsoPlainText" style="text-align: center;">\u000a<span style="font-family: Georgia,&quot;Times New Roman&quot;,serif;"><i><span style="font-size: 12.0pt; mso-bidi-font-size: 10.0pt; mso-fareast-font-family: &quot;MS Mincho&quot;;">Whereas,<o:p></o:p></span></i></span></div>\u000a<div align="center" class="MsoPlainText" style="text-align: center;">\u000a<span style="font-family: Georgia,&quot;Times New Roman&quot;,serif;"><br /></span></div>\u000a<div align="center" class="MsoPlainText" style="text-align: center;">\u000a<span style="font-family: Georgia,&quot;Times New Roman&quot;,serif;"><i><span style="font-size: 12.0pt; mso-bidi-font-size: 10.0pt; mso-fareast-font-family: &quot;MS Mincho&quot;;">Just as the concept of Harmony scaled high\u000apeaks in the West around the same time through creators such as Bach, Mozart,\u000aBeethoven and others; and,<o:p></o:p></span></i></span></div>\u000a<div align="center" class="MsoPlainText" style="text-align: center;">\u000a<span style="font-family: Georgia,&quot;Times New Roman&quot;,serif;"></span></div>\u000a<div align="center" class="MsoPlainText" style="text-align: center;">\u000a<span style="font-family: Georgia,&quot;Times New Roman&quot;,serif;"><br /></span></div>\u000a<div align="center" class="MsoPlainText" style="text-align: center;">\u000a<span style="font-family: Georgia,&quot;Times New Roman&quot;,serif;"><i><span style="font-size: 12.0pt; mso-bidi-font-size: 10.0pt; mso-fareast-font-family: &quot;MS Mincho&quot;;">Whereas,<o:p></o:p></span></i></span></div>\u000a<div align="center" class="MsoPlainText" style="text-align: center;">\u000a<span style="font-family: Georgia,&quot;Times New Roman&quot;,serif;"><br /></span></div>\u000a<div align="center" class="MsoPlainText" style="text-align: center;">\u000a<span style="font-family: Georgia,&quot;Times New Roman&quot;,serif;"><i><span style="font-size: 12.0pt; mso-bidi-font-size: 10.0pt; mso-fareast-font-family: &quot;MS Mincho&quot;;">The concept of Melharmony was\u000aconceptualized in the year 2000 by musician-composer Chitravina N Ravikiran to\u000acreate music with harmony but with an emphasis on melodic rules; and,<o:p></o:p></span></i></span></div>\u000a<div align="center" class="MsoPlainText" style="text-align: center;">\u000a<span style="font-family: Georgia,&quot;Times New Roman&quot;,serif;"></span></div>\u000a<div align="center" class="MsoPlainText" style="text-align: center;">\u000a<span style="font-family: Georgia,&quot;Times New Roman&quot;,serif;"><br /></span></div>\u000a<div align="center" class="MsoPlainText" style="text-align: center;">\u000a<span style="font-family: Georgia,&quot;Times New Roman&quot;,serif;"><i><span style="font-size: 12.0pt; mso-bidi-font-size: 10.0pt; mso-fareast-font-family: &quot;MS Mincho&quot;;">The USA has been committed to preserve,\u000aproject and protect such diversity over the last several decades; and,<o:p></o:p></span></i></span></div>\u000a<div align="center" class="MsoPlainText" style="text-align: center;">\u000a<span style="font-family: Georgia,&quot;Times New Roman&quot;,serif;"><br /></span></div>\u000a<div align="center" class="MsoPlainText" style="text-align: center;">\u000a<span style="font-family: Georgia,&quot;Times New Roman&quot;,serif;"><i><span style="font-size: 12.0pt; mso-bidi-font-size: 10.0pt; mso-fareast-font-family: &quot;MS Mincho&quot;;">Whereas,<o:p></o:p></span></i></span></div>\u000a<div align="center" class="MsoPlainText" style="text-align: center;">\u000a<span style="font-family: Georgia,&quot;Times New Roman&quot;,serif;"><br /></span></div>\u000a<div align="center" class="MsoPlainText" style="text-align: center;">\u000a<span style="font-family: Georgia,&quot;Times New Roman&quot;,serif;"><i><span style="font-size: 12.0pt; mso-bidi-font-size: 10.0pt; mso-fareast-font-family: &quot;MS Mincho&quot;;">The United States has been committed to\u000apreserve, project and protect such diversity and innovations over the last\u000aseveral decades; and,<o:p></o:p></span></i></span></div>\u000a<div align="center" class="MsoPlainText" style="text-align: center;">\u000a<span style="font-family: Georgia,&quot;Times New Roman&quot;,serif;"></span></div>\u000a<div align="center" class="MsoPlainText" style="text-align: center;">\u000a<span style="font-family: Georgia,&quot;Times New Roman&quot;,serif;"><br /></span></div>\u000a<div align="center" class="MsoPlainText" style="text-align: center;">\u000a<span style="font-family: Georgia,&quot;Times New Roman&quot;,serif;"><i><span style="font-size: 12.0pt; mso-bidi-font-size: 10.0pt; mso-fareast-font-family: &quot;MS Mincho&quot;;">Whereas,<o:p></o:p></span></i></span></div>\u000a<div align="center" class="MsoPlainText" style="text-align: center;">\u000a<span style="font-family: Georgia,&quot;Times New Roman&quot;,serif;"><br /></span></div>\u000a<div align="center" class="MsoPlainText" style="text-align: center;">\u000a<span style="font-family: Georgia,&quot;Times New Roman&quot;,serif;"><i><span style="font-size: 12.0pt; mso-bidi-font-size: 10.0pt; mso-fareast-font-family: &quot;MS Mincho&quot;;">One of the Wisconsin standards for music\u000arequires that students learn about music as it relates to history and culture,\u000aand a comparison of the approaches of these two 18th century styles will\u000aprovide an invaluable insight into connections between the East and West at\u000athat time; and,<o:p></o:p></span></i></span></div>\u000a<div align="center" class="MsoPlainText" style="text-align: center;">\u000a<span style="font-family: Georgia,&quot;Times New Roman&quot;,serif;"></span></div>\u000a<div align="center" class="MsoPlainText" style="text-align: center;">\u000a<span style="font-family: Georgia,&quot;Times New Roman&quot;,serif;"><br /></span></div>\u000a<div align="center" class="MsoPlainText" style="text-align: center;">\u000a<span style="font-family: Georgia,&quot;Times New Roman&quot;,serif;"><i><span style="font-size: 12.0pt; mso-bidi-font-size: 10.0pt; mso-fareast-font-family: &quot;MS Mincho&quot;;">Whereas,<o:p></o:p></span></i></span></div>\u000a<div align="center" class="MsoPlainText" style="text-align: center;">\u000a<span style="font-family: Georgia,&quot;Times New Roman&quot;,serif;"><br /></span></div>\u000a<div align="center" class="MsoPlainText" style="text-align: center;">\u000a<span style="font-family: Georgia,&quot;Times New Roman&quot;,serif;"><i><span style="font-size: 12.0pt; mso-bidi-font-size: 10.0pt; mso-fareast-font-family: &quot;MS Mincho&quot;;">Middleton desires to give its students\u000apractical exposure to such diverse and traditional forms of music by supporting\u000acultural concepts and festivals such as the OVK-Bach Festival at the Middleton\u000aPerforming Arts Center, Saturday, November 16.&nbsp;\u000a<o:p></o:p></span></i></span></div>\u000a<div align="center" class="MsoPlainText" style="text-align: center;">\u000a<span style="font-family: Georgia,&quot;Times New Roman&quot;,serif;"></span></div>\u000a<div align="center" class="MsoPlainText" style="text-align: center;">\u000a<span style="font-family: Georgia,&quot;Times New Roman&quot;,serif;"><br /></span></div>\u000a<div align="center" class="MsoPlainText" style="text-align: center;">\u000a<span style="font-family: Georgia,&quot;Times New Roman&quot;,serif;"><span style="font-size: 12.0pt; mso-bidi-font-size: 10.0pt; mso-fareast-font-family: &quot;MS Mincho&quot;;">Now, Therefore, I, Mayor Kurt Sonnentag,\u000ado hereby proclaim the third Saturday, November 16, 2013, and every third\u000aSaturday of November in subsequent years,<o:p></o:p></span></span></div>\u000a<div align="center" class="MsoPlainText" style="text-align: center;">\u000a<span style="font-family: Georgia,&quot;Times New Roman&quot;,serif;"></span></div>\u000a<div align="center" class="MsoPlainText" style="text-align: center;">\u000a<span style="font-family: Georgia,&quot;Times New Roman&quot;,serif;"><br /></span></div>\u000a<div align="center" class="MsoPlainText" style="text-align: center;">\u000a<span style="font-family: Georgia,&quot;Times New Roman&quot;,serif;"><b><span style="font-size: 12.0pt; mso-bidi-font-size: 10.0pt; mso-fareast-font-family: &quot;MS Mincho&quot;;">Melharmony Day<o:p></o:p></span></b></span></div>\u000a<div align="center" class="MsoPlainText" style="text-align: center;">\u000a<span style="font-family: Georgia,&quot;Times New Roman&quot;,serif;"></span></div>\u000a<div align="center" class="MsoPlainText" style="text-align: center;">\u000a<span style="font-family: Georgia,&quot;Times New Roman&quot;,serif;"><br /></span></div>\u000a<div align="center" class="MsoPlainText" style="text-align: center;">\u000a<span style="font-family: Georgia,&quot;Times New Roman&quot;,serif;"><span style="font-size: 12.0pt; mso-bidi-font-size: 10.0pt; mso-fareast-font-family: &quot;MS Mincho&quot;;">in the City of Middleton, and urge all\u000acitizens to support efforts strengthening our city's cultural programs; and,<o:p></o:p></span></span></div>\u000a<div align="center" class="MsoPlainText" style="text-align: center;">\u000a<span style="font-family: Georgia,&quot;Times New Roman&quot;,serif;"><br /></span></div>\u000a<div align="center" class="MsoPlainText" style="text-align: center;">\u000a<span style="font-family: Georgia,&quot;Times New Roman&quot;,serif;"><span style="font-size: 12.0pt; mso-bidi-font-size: 10.0pt; mso-fareast-font-family: &quot;MS Mincho&quot;;">Further, I urge all citizens to take part\u000ain such diverse cultural events to gladden the hearts and promote the\u000awell-being of present and future generations, and I thank Arohana School of\u000aMusic &amp; IFCM-USA for presenting this great opportunity to the citizens of\u000aMiddleton.<o:p></o:p></span></span></div>\u000a<div align="center" class="MsoPlainText" style="text-align: center;">\u000a<span style="font-family: Georgia,&quot;Times New Roman&quot;,serif;"><span style="font-size: 12.0pt; mso-bidi-font-size: 10.0pt; mso-fareast-font-family: &quot;MS Mincho&quot;;"><o:p></o:p></span></span></div>\u000a<div align="center" class="MsoPlainText" style="text-align: center;">\u000a<span style="font-family: Georgia,&quot;Times New Roman&quot;,serif;"><br /></span></div>\u000a<div align="center" class="MsoPlainText" style="text-align: center;">\u000a<span style="font-family: Georgia,&quot;Times New Roman&quot;,serif;"><span style="font-size: 12.0pt; mso-bidi-font-size: 10.0pt; mso-fareast-font-family: &quot;MS Mincho&quot;;">This proclamation is made on this --- day\u000aof November, 2013.<o:p></o:p></span></span></div>\u000a<div align="center" class="MsoPlainText" style="text-align: center;">\u000a<span style="font-family: Georgia,&quot;Times New Roman&quot;,serif;"><br /></span></div>\u000a<div align="center" class="MsoPlainText" style="text-align: center;">\u000a<span style="font-family: Georgia,&quot;Times New Roman&quot;,serif;"><span style="font-size: 12.0pt; mso-bidi-font-size: 10.0pt; mso-fareast-font-family: &quot;MS Mincho&quot;;">&nbsp;&nbsp;&nbsp;&nbsp;&nbsp;&nbsp;&nbsp;&nbsp;&nbsp;&nbsp;&nbsp;&nbsp;&nbsp;&nbsp;&nbsp;&nbsp;&nbsp;&nbsp;&nbsp;&nbsp;&nbsp;&nbsp;&nbsp;&nbsp;&nbsp;&nbsp;&nbsp;&nbsp;&nbsp;&nbsp;&nbsp;&nbsp;&nbsp;&nbsp;&nbsp;&nbsp;&nbsp;&nbsp;&nbsp;&nbsp;&nbsp;&nbsp;&nbsp;&nbsp;&nbsp;&nbsp;&nbsp;&nbsp;&nbsp;&nbsp;&nbsp;&nbsp;&nbsp;&nbsp;&nbsp;&nbsp;&nbsp;&nbsp;&nbsp;&nbsp;&nbsp;&nbsp;&nbsp;&nbsp;&nbsp;&nbsp;&nbsp;&nbsp;&nbsp;&nbsp;&nbsp;&nbsp;&nbsp;&nbsp;&nbsp;&nbsp;&nbsp;&nbsp;&nbsp;&nbsp;&nbsp;&nbsp;&nbsp;&nbsp;&nbsp;&nbsp;&nbsp;&nbsp;&nbsp;&nbsp;&nbsp;&nbsp;&nbsp;&nbsp;&nbsp;&nbsp;&nbsp;&nbsp;&nbsp;&nbsp;&nbsp;&nbsp;&nbsp;&nbsp;&nbsp;&nbsp;&nbsp;&nbsp;&nbsp;&nbsp;&nbsp;&nbsp;&nbsp;&nbsp;&nbsp;&nbsp;&nbsp;&nbsp;&nbsp;\u000aATTEST:<o:p></o:p></span></span></div>\u000a<div align="center" class="MsoPlainText" style="text-align: center;">\u000a<span style="font-family: Georgia,&quot;Times New Roman&quot;,serif;"></span></div>\u000a<div align="center" class="MsoPlainText" style="text-align: center;">\u000a<span style="font-family: Georgia,&quot;Times New Roman&quot;,serif;"><span style="font-size: 12.0pt; mso-bidi-font-size: 10.0pt; mso-fareast-font-family: &quot;MS Mincho&quot;;">&nbsp;&nbsp;&nbsp;&nbsp;\u000a&nbsp;&nbsp;&nbsp;&nbsp;&nbsp;&nbsp;&nbsp;_______________________&nbsp;&nbsp;&nbsp;&nbsp;&nbsp;&nbsp;&nbsp;&nbsp;&nbsp;&nbsp; _______________________<o:p></o:p></span></span></div>\u000a<div class="MsoPlainText">\u000a<span style="font-family: Georgia,&quot;Times New Roman&quot;,serif;"><br /></span></div>\u000a<div class="MsoPlainText">\u000a<span style="font-family: Georgia,&quot;Times New Roman&quot;,serif;"><br /></span></div>\u000a<div class="MsoPlainText">\u000a<span style="font-family: Georgia,&quot;Times New Roman&quot;,serif;"><b><span style="font-size: 12.0pt; mso-bidi-font-size: 10.0pt; mso-fareast-font-family: &quot;MS Mincho&quot;;">Kurt J.\u000aSonnentag, Mayor&nbsp;&nbsp;&nbsp;&nbsp;&nbsp;&nbsp;&nbsp;&nbsp;&nbsp;&nbsp;&nbsp;&nbsp;&nbsp;&nbsp;&nbsp;&nbsp;&nbsp;&nbsp;&nbsp;&nbsp;&nbsp;&nbsp;&nbsp;&nbsp;&nbsp;&nbsp;&nbsp;&nbsp;&nbsp;&nbsp;&nbsp;&nbsp;&nbsp;&nbsp;&nbsp;&nbsp;&nbsp;&nbsp;&nbsp;&nbsp;&nbsp;&nbsp;&nbsp;&nbsp;&nbsp;&nbsp;&nbsp;&nbsp;&nbsp;&nbsp;&nbsp;&nbsp;&nbsp;&nbsp;&nbsp;&nbsp;&nbsp;&nbsp;&nbsp;&nbsp;&nbsp; Lorie J. Burns, City Clerk</span></b></span></div>\u000a</div>\u000a
p3
sVkind
p4
Vblogger#post
p5
sVlabels
p6
(lp7
VSamudri
p8
asVtitle
p9
VMelharmony Day in Wisconsin
p10
sVurl
p11
Vhttp://srutimag.blogspot.com/2013/11/melharmony-day-in-wisconsisn.html
p12
sVauthor
p13
(dp14
Vurl
p15
Vhttp://www.blogger.com/profile/07438923380988482057
p16
sVimage
p17
(dp18
Vurl
p19
Vhttp://4.bp.blogspot.com/-BatgBQQxSS8/TsyaRVkALGI/AAAAAAAAADI/pLRMa46usw4/s45/Sruti%25252BLogo.jpg
p20
ssVdisplayName
p21
VSruti Magazine
p22
sVid
p23
V07438923380988482057
p24
ssVupdated
p25
V2013-11-30T10:37:59+05:30
p26
sVreplies
p27
(dp28
VtotalItems
p29
V0
sVselfLink
p30
Vhttps://www.googleapis.com/blogger/v3/blogs/4158155864744163029/posts/5630420481031065512/comments
p31
ssVblog
p32
(dp33
Vid
p34
V4158155864744163029
p35
ssVpublished
p36
V2013-11-30T10:18:00+05:30
p37
sVid
p38
V5630420481031065512
p39
sVselfLink
p40
Vhttps://www.googleapis.com/blogger/v3/blogs/4158155864744163029/posts/5630420481031065512
p41
s.