(dp1
Vcontent
p2
V<div dir="ltr" style="text-align: left;" trbidi="on">\u000a<div style="text-align: justify;">\u000a<span style="font-family: Georgia,&quot;Times New Roman&quot;,serif;"><span style="font-size: small;"><b>Keynote address at Sruti awards function </b></span></span></div>\u000a<div class="MsoNormal" style="text-align: justify;">\u000a<span style="font-family: Georgia,&quot;Times New Roman&quot;,serif;"><b><span style="font-size: x-small;">80<sup>th</sup>\u000aBirth Anniversary of N Pattabhi Raman, 30<sup>th</sup> year of <i>Sruti</i>, Chennai, October 20, 2012</span></b></span></div>\u000a<div class="MsoNormal" style="text-align: justify;">\u000a<span style="font-family: Georgia,&quot;Times New Roman&quot;,serif;"></span>&nbsp;</div>\u000a<div class="MsoNormal" style="text-align: justify;">\u000a<span style="font-family: Georgia,&quot;Times New Roman&quot;,serif;"><span style="font-size: small;"><i>Sruti </i>is 30. </span></span></div>\u000a<div class="MsoNormal" style="text-align: justify;">\u000a<span style="font-family: Georgia,&quot;Times New Roman&quot;,serif;"></span>&nbsp;</div>\u000a<div class="MsoNormal" style="text-align: justify;">\u000a<span style="font-family: Georgia,&quot;Times New Roman&quot;,serif;"><span style="font-size: small;">It reads like it could be a hundred. It has the freshness of\u000athat which is young and the mellowness of that which has known ageing. It is a\u000ashoot, a twig born with a respect-inspiring coat of an agate\u2019s moss or\u000agrey-green lichen. It is a <i>panchaloha</i>\u000aicon fresh from the casting fires at Swamimalai but with a patina already\u000afilming it. It is a new image, just printed, just minted but with a natural\u000asepia giving it the distinction of age.</span></span></div>\u000a<div class="MsoNormal" style="text-align: justify;">\u000a<span style="font-family: Georgia,&quot;Times New Roman&quot;,serif;"></span>&nbsp;</div>\u000a<div class="MsoNormal" style="text-align: justify;">\u000a<span style="font-family: Georgia,&quot;Times New Roman&quot;,serif;"><span style="font-size: small;">Of Maulana Abul Kalam Azad, it used to be said, he was born\u000aold.</span></span></div>\u000a<div class="MsoNormal" style="text-align: justify;">\u000a<span style="font-family: Georgia,&quot;Times New Roman&quot;,serif;"><span style="font-size: small;"></span></span><br />\u000a<span style="font-family: Georgia,&quot;Times New Roman&quot;,serif;"><span style="font-size: small;">Likewise, of Rajaji that he must have attended school\u000aalready equipped with a walking stick and dark glasses.</span></span></div>\u000a<div class="MsoNormal" style="text-align: justify;">\u000a<span style="font-family: Georgia,&quot;Times New Roman&quot;,serif;"></span>&nbsp;</div>\u000a<div class="MsoNormal" style="text-align: justify;">\u000a<span style="font-family: Georgia,&quot;Times New Roman&quot;,serif;"><span style="font-size: small;">Those remarks were not, nor is mine about <i>Sruti</i>, meant to be ageist; they are just\u000aso.</span></span></div>\u000a<div class="MsoNormal" style="text-align: justify;">\u000a<span style="font-family: Georgia,&quot;Times New Roman&quot;,serif;"><span style="font-size: small;"></span></span><br />\u000a<span style="font-family: Georgia,&quot;Times New Roman&quot;,serif;"><span style="font-size: small;">Some are born wise, their minds developed beyond their\u000abrains.</span></span></div>\u000a<div class="MsoNormal" style="text-align: justify;">\u000a<span style="font-family: Georgia,&quot;Times New Roman&quot;,serif;"><span style="font-size: small;"></span></span><br />\u000a<span style="font-family: Georgia,&quot;Times New Roman&quot;,serif;"><span style="font-size: small;">And they become wiser and wiser.</span></span></div>\u000a<div class="MsoNormal" style="text-align: justify;">\u000a<span style="font-family: Georgia,&quot;Times New Roman&quot;,serif;"></span>&nbsp;</div>\u000a<div class="MsoNormal" style="text-align: justify;">\u000a<span style="font-family: Georgia,&quot;Times New Roman&quot;,serif;"><span style="font-size: small;">Sri N Pattabhi Raman came into this world eighty years ago\u000awith the seed-pearl of musical appreciation already firm and growing in the\u000aoyster-clasp of his brain. In today\u2019s <i>lingua\u000atechnologica</i> we might &nbsp;say Pattabhi\u000aRaman was born with a fully loaded microchip embedded in his mind. Loaded not\u000awith the raga-s of Carnatic music, not with musical phrases nor textual ones\u000abut with the striations of musical encounters already pre-drawn and waiting for\u000aTime to but ink them. And so in a sense, <i>Sruti\u000a</i>was born with him. </span></span></div>\u000a<div class="MsoNormal" style="text-align: justify;">\u000a<span style="font-family: Georgia,&quot;Times New Roman&quot;,serif;"><br /></span><span style="font-family: Georgia,&quot;Times New Roman&quot;,serif;"><span style="font-size: small;">We are celebrating <i>Sruti30</i>\u000ain <i>Pattabhi80</i> and all of <i>Pattabhi80</i> in <i>Sruti</i>\u2019s 30.</span></span></div>\u000a<div class="MsoNormal" style="text-align: justify;">\u000a<span style="font-family: Georgia,&quot;Times New Roman&quot;,serif;"><span style="font-size: small;"></span></span><br />\u000a<span style="font-family: Georgia,&quot;Times New Roman&quot;,serif;"><span style="font-size: small;">We are celebrating the fluxion of concept and design,\u000aimagination and accomplishment. We are celebrating an idea in its progression\u000afrom seed to a canopied tree in one organic continuum.</span></span></div>\u000a<div class="MsoNormal" style="text-align: justify;">\u000a<span style="font-family: Georgia,&quot;Times New Roman&quot;,serif;"><span style="font-size: small;"><i></i></span></span><br />\u000a<span style="font-family: Georgia,&quot;Times New Roman&quot;,serif;"><span style="font-size: small;"><i>Sruti</i> will\u000atherefore remain fresh even when it turns , chronologically, 80 and&nbsp; 100.</span></span></div>\u000a<div class="MsoNormal" style="text-align: justify;">\u000a<span style="font-family: Georgia,&quot;Times New Roman&quot;,serif;"></span>&nbsp;</div>\u000a<div class="MsoNormal" style="text-align: justify;">\u000a<span style="font-family: Georgia,&quot;Times New Roman&quot;,serif;"><span style="font-size: small;">It will also, let us not forget, continue to be regarded as\u000aa very Senior Citizen of the world of journals though it is far from that\u000acondition. <i>Sruti</i> is therefore young\u000aand old, fresh and ancient, its veins gnarled, its blood new. </span></span></div>\u000a<div class="MsoNormal" style="text-align: justify;">\u000a<span style="font-family: Georgia,&quot;Times New Roman&quot;,serif;"></span>&nbsp;</div>\u000a<div class="MsoNormal" style="text-align: justify;">\u000a<span style="font-family: Georgia,&quot;Times New Roman&quot;,serif;"><span style="font-size: small;">It has the dilemma of being young and sounding old, being\u000anew and seeming ancient. It wants to be neither, of course. It wants to be fair\u000aand objective if also frank and forthright.&nbsp;\u000aBut when have those lofty aims been reciprocated with understanding? <i>Sruti</i>\u2019s comments can and will be taken\u000aby senior <i>vidvan</i>-s as cavilling, by\u000ayet-to-be-senior <i>vidvan</i>-s as carping.\u000aIt can and will be &nbsp;thought of as\u000apresumptuous by the old, patronizing by the young. Its comments, if\u000aappreciative can and will be thought of as being uncritical, if critical as\u000abeing ungenerous. Its evaluations if not all-praise can and will be seen as\u000acatching at small faults&nbsp; (carp) or as\u000amaking trifling objections (cavil). </span></span></div>\u000a<div class="MsoNormal" style="text-align: justify;">\u000a<span style="font-family: Georgia,&quot;Times New Roman&quot;,serif;"></span>&nbsp;</div>\u000a<div class="MsoNormal" style="text-align: justify;">\u000a<span style="font-family: Georgia,&quot;Times New Roman&quot;,serif;"><span style="font-size: small;">And it will always be obliged to, expected to, asked to\u000abalance between vocal musicians and instrumental musicians, between the main\u000aartist and the accompanying artist, between Carnatic and Hindustani music and \u2013\u000awhy not \u2013&nbsp; between Indian and western\u000amusic, between the art and the craft of music, between the users and the makers\u000aof musical instruments, between music and dance, theory and practice, rasa and\u000arasika, why, between rasika and rasika, the true rasika and the philistine, the\u000aexpert and the dilettante, the serious and the superficial, the digger and the\u000adabbler, the knower and the pretender, the self-effacing svara-palakas-s of\u000aCarnatic music and its&nbsp;\u000aself-esteeming&nbsp; dvara-palaka-s.</span></span></div>\u000a<div class="MsoNormal" style="text-align: justify;">\u000a<span style="font-family: Georgia,&quot;Times New Roman&quot;,serif;"></span>&nbsp;</div>\u000a<div class="MsoNormal" style="text-align: justify;">\u000a<span style="font-family: Georgia,&quot;Times New Roman&quot;,serif;"><span style="font-size: small;"><i>Sruti</i> will want to\u000abe true to itself and false to none, but it can and will run the risk of having\u000ato defend itself and offend many. The \u2018many\u2019 include not just practicing\u000aartists but practicing connoisseurs as well, each of whom has clear preferences,\u000apredispositions, even prejudices. And yet <i>Sruti</i>\u000acannot be in the business of being all things to everyone. It has a mandate and\u000athat is to hear and see with discernment and reflect that judiciously though\u000anot judgmentally.&nbsp; Felicitously, its\u000achosen niche is not some random corner formed by the accidental coming together\u000aof walls but a recognized recess, a grotto, if you like, on a great flank of\u000aaesthetics, with a well-defined grammar, syntax and vocabulary of its own. <i>Sruti </i>therefore works in a glyptography\u000ain which the channels and flutings, each mark, is carefully sculpted or carved.\u000a<i>Sruti </i>in other words does not work in\u000aa vacuum. It works out of a code, allowing for the subjectivisms of individual\u000aappreciation and the<i> </i>autonomy<i> </i>of individual <i>anubhavam</i>. <i>&nbsp;</i>In <i>Sruti</i>\u2019s\u000adiscriminating readership lies <i>Sruti</i>\u2019s\u000agreatest strength. \u2018<i>Iti sruteh\u2019</i> or \u2018<i>Iti</i> <i>srutih</i>\u2019\u000a(\u2018So says a sacred text\u2019) is how the journal\u2019s comments are taken by its\u000areaders.</span></span></div>\u000a<div class="MsoNormal" style="text-align: justify;">\u000a<span style="font-family: Georgia,&quot;Times New Roman&quot;,serif;"></span>&nbsp;</div>\u000a<div class="MsoNormal" style="text-align: justify;">\u000a<span style="font-family: Georgia,&quot;Times New Roman&quot;,serif;"><span style="font-size: small;">All this requires <i>Sruti</i>,\u000aespecially in a major anniversary year, to re-evaluate its identity, ask of\u000aitself what Ramana Maharishi proposed to persistent querists \u2013 \u2018<i>Naan yaar?</i>\u2019 Am I a journal to be read\u000aunder a library desk\u2019s lamp or a magazine of&nbsp;\u000athirty-two highly readable sheets double-stapled neatly at the infold to\u000abe&nbsp; savoured after a meal, <i>mukhete tambulam</i> ? </span></span></div>\u000a<div class="MsoNormal" style="text-align: justify;">\u000a<span style="font-family: Georgia,&quot;Times New Roman&quot;,serif;"><span style="font-size: small;">&nbsp;&nbsp;&nbsp;&nbsp;&nbsp;&nbsp;&nbsp;&nbsp;&nbsp;&nbsp;&nbsp;&nbsp;&nbsp;&nbsp;&nbsp;&nbsp;&nbsp;&nbsp;&nbsp;&nbsp;&nbsp;&nbsp;&nbsp;&nbsp;&nbsp;&nbsp;&nbsp;&nbsp;&nbsp;&nbsp;&nbsp;&nbsp;&nbsp;&nbsp;&nbsp;&nbsp;&nbsp;&nbsp;&nbsp;&nbsp;&nbsp;&nbsp;&nbsp;&nbsp;&nbsp;&nbsp;&nbsp;&nbsp;&nbsp;&nbsp;&nbsp;&nbsp;&nbsp;&nbsp;&nbsp; </span></span></div>\u000a<div class="MsoNormal" style="text-align: justify;">\u000a<span style="font-family: Georgia,&quot;Times New Roman&quot;,serif;"><span style="font-size: small;">Am I meant for research or for recreation ? Am I a critical\u000areview or a kutcheri guide ? Am I impossible to pick up or impossible to put\u000adown? Impossible to preserve or impossible to throw away ? </span></span></div>\u000a<div class="MsoNormal" style="text-align: justify;">\u000a<br />\u000a<span style="font-family: Georgia,&quot;Times New Roman&quot;,serif;"><span style="font-size: small;">Am I a time-pass or a keep-sake ? Am I so serious as not to\u000amanage a smile, provoke a laugh especially at myself? Am I touchy ? Am I, dare\u000aI say it, scared?</span></span></div>\u000a<div class="MsoNormal" style="text-align: justify;">\u000a<span style="font-family: Georgia,&quot;Times New Roman&quot;,serif;"></span>&nbsp;</div>\u000a<div class="MsoNormal" style="text-align: justify;">\u000a<span style="font-family: Georgia,&quot;Times New Roman&quot;,serif;"><span style="font-size: small;">Whatever be the several answers to these, I am sure that in\u000athe name of&nbsp; greater accessibility,&nbsp; <i>Sruti</i>\u000awill never dumb-down. Let reader-discrimination climb, even heave itself up,\u000abut <i>Sruti </i>stay on the high perch the\u000alate N.Pattabhi Raman placed it on, K V Ramanathan kept firm on and Ram\u000apreserves on. &nbsp;</span></span></div>\u000a<div class="MsoNormal" style="text-align: justify;">\u000a<br />\u000a<span style="font-family: Georgia,&quot;Times New Roman&quot;,serif;"><span style="font-size: small;">Pattabhi may not have been the easiest of persons to get on\u000awith. <i>Sruti</i> cannot, should not, I\u000abelieve, and will never be a facile publication. One should not have to get on\u000awith <i>Sruti</i>. One should need, value,\u000asavour <i>Sruti</i>. I would suggest that it\u000aconsiders reducing its frequency.<span style="font-size: small;"> </span>That will release the pressure on its\u000amakers.&nbsp; <i>Sruti </i>should live in the hour, not the minute. </span></span></div>\u000a<div class="MsoNormal" style="text-align: justify;">\u000a<span style="font-family: Georgia,&quot;Times New Roman&quot;,serif;"></span>&nbsp;</div>\u000a<div class="MsoNormal" style="text-align: justify;">\u000a<span style="font-family: Georgia,&quot;Times New Roman&quot;,serif;"><span style="font-size: small;">For one as illiterate in classical music as I, <i>Sruti</i>\u2019s discussions on a particular <i>raga</i> being a <i>janya </i>of a particular <i>mela</i>\u000aor not ricochet. But <i>Sruti </i>is not\u000ameant for the likes of me. It is meant for the kind of people that are gathered\u000ain this hall. I can see the vital importance of rarefied discussions to <i>Sruti</i>\u2019s scheme, &nbsp;such as those on <i>D1</i> and <i>D2</i> in a particular\u000a<i>raga</i> and composition. No journal\u000aother than <i>Sruti</i> that I know of, can\u000acombine so recondite a theme with so fluent a discussion on it as successfully\u000aas <i>Sruti </i>does. In which journal other\u000athan <i>Sruti </i>&nbsp;can we read one of the world\u2019s most\u000aacknowledged experts on rivers, Ramaswami Iyer, on the hits and misses of a\u000aparticular rendering in Carnatic music?&nbsp;</span></span></div>\u000a<div class="MsoNormal" style="text-align: justify;">\u000a<span style="font-family: Georgia,&quot;Times New Roman&quot;,serif;"></span>&nbsp;</div>\u000a<div class="MsoNormal" style="text-align: justify;">\u000a<span style="font-family: Georgia,&quot;Times New Roman&quot;,serif;"><span style="font-size: small;">For &nbsp;me, it is a joy\u000ano less than an education to read <i>Sruti</i>\u2019s\u000apersonality profiles, invariably triggered by an anniversary. </span></span></div>\u000a<div class="MsoNormal" style="text-align: justify;">\u000a<span style="font-family: Georgia,&quot;Times New Roman&quot;,serif;"></span>&nbsp;</div>\u000a<div class="MsoNormal" style="text-align: justify;">\u000a<span style="font-family: Georgia,&quot;Times New Roman&quot;,serif;"><span style="font-size: small;">The issue on the late Ramnad Krishnan, recently, and the one\u000aon Vidvan Sanjay Subrahmanyan were treats, no less. I have not had the\u000aprivilege of hearing Semmangudi Srinivasier speak, say, on M D\u000aRamanathan but reading Vidvan T M Krishna\u2019s moving tribute to Vidvan Sanjay\u000aSubrahmanyan was a marvellous experience. Only <i>Sruti</i> could have made that possible. </span></span></div>\u000a<div class="MsoNormal" style="text-align: justify;">\u000a<span style="font-family: Georgia,&quot;Times New Roman&quot;,serif;"></span>&nbsp;</div>\u000a<div class="MsoNormal" style="text-align: justify;">\u000a<span style="font-family: Georgia,&quot;Times New Roman&quot;,serif;"><span style="font-size: small;">Nothing less can be expected of a journal which, in the\u000apost-Pattabhi Raman phase &nbsp;has had Sri K\u000aV Ramanathan guide it and which now has the benefit of V Ramnarayan\u2019s sensitive\u000aand energetic &nbsp;editorship. <i>Sruti </i>is frequently about the past, the\u000aliving past, for the present, the pulsating present. </span></span></div>\u000a<div class="MsoNormal" style="text-align: justify;">\u000a<span style="font-family: Georgia,&quot;Times New Roman&quot;,serif;"></span>&nbsp;</div>\u000a<div class="MsoNormal" style="text-align: justify;">\u000a<span style="font-family: Georgia,&quot;Times New Roman&quot;,serif;"><span style="font-size: small;">But let us be aware of the fact that each issue of<i> Sruti </i>&nbsp;time-capsules the past and the present for the\u000afuture. Each issue is an archive-in-the-making.&nbsp;\u000aEach issue, like Pattabhi Raman, is born senior, born wise. Each issue\u000aopens a pair of new eyes upon an old, if not ancient, sight. </span></span></div>\u000a<div class="MsoNormal" style="text-align: justify;">\u000a<span style="font-family: Georgia,&quot;Times New Roman&quot;,serif;"></span>&nbsp;</div>\u000a<div class="MsoNormal" style="text-align: justify;">\u000a<span style="font-family: Georgia,&quot;Times New Roman&quot;,serif;"><span style="font-size: small;">At times when about the only classical legacy that survives\u000aand in fact thrives in India is its classical music along with its classical\u000adance forms,<i> Sruti</i>&nbsp; is a flagship journal. May it hie strong of\u000astaff and swift of sail on the shoreless seas of <i>rasa</i>.</span></span></div>\u000a</div>\u000a
p3
sVkind
p4
Vblogger#post
p5
sVlabels
p6
(lp7
VGopalkrishna Gandhi
p8
asVtitle
p9
VGopalkrishna Gandhi
p10
sVurl
p11
Vhttp://srutimag.blogspot.com/2012/10/keynote-address-at-sruti-awards-function.html
p12
sVauthor
p13
(dp14
Vurl
p15
Vhttp://www.blogger.com/profile/07438923380988482057
p16
sVimage
p17
(dp18
Vurl
p19
Vhttp://4.bp.blogspot.com/-BatgBQQxSS8/TsyaRVkALGI/AAAAAAAAADI/pLRMa46usw4/s45/Sruti%25252BLogo.jpg
p20
ssVdisplayName
p21
VSruti Magazine
p22
sVid
p23
V07438923380988482057
p24
ssVupdated
p25
V2012-10-24T13:21:02+05:30
p26
sVreplies
p27
(dp28
VtotalItems
p29
V0
sVselfLink
p30
Vhttps://www.googleapis.com/blogger/v3/blogs/4158155864744163029/posts/6929543396510525150/comments
p31
ssVblog
p32
(dp33
Vid
p34
V4158155864744163029
p35
ssVpublished
p36
V2012-10-24T11:30:00+05:30
p37
sVid
p38
V6929543396510525150
p39
sVselfLink
p40
Vhttps://www.googleapis.com/blogger/v3/blogs/4158155864744163029/posts/6929543396510525150
p41
s.