(dp1
Vcontent
p2
V<a onblur="try {parent.deselectBloggerImageGracefully();} catch(e) {}" href="http://bp1.blogger.com/_izbXUVoYKD4/RsUw2qocwoI/AAAAAAAAACc/xuDSaGgxZ5M/s1600-h/papanasam_sivan.jpg"><img fix="tofix" src="http://bp1.blogger.com/_izbXUVoYKD4/RsUw2qocwoI/AAAAAAAAACc/xuDSaGgxZ5M/s320/papanasam_sivan.jpg" fix="tofix" style="margin: 0pt 0pt 10px 10px; float: right; cursor: pointer;" src="http://bp1.blogger.com/_izbXUVoYKD4/RsUw2qocwoI/AAAAAAAAACc/xuDSaGgxZ5M/s320/papanasam_sivan.jpg" alt="" id="BLOGGER_PHOTO_ID_5099535868781970050" border="0" /></a><span style="font-weight: bold;font-size:130%;" ><span style="color: rgb(255, 0, 0);">Biography</span></span><p style="font-weight: bold;"><span style="font-size:100%;"><span style="color: rgb(255, 0, 0);">Papanasam Shivan is the most important Carnatic Composer in Tamil. He has composed over two thousand songs in seventy five raaga-s. He is known as </span><i style="color: rgb(255, 0, 0);">Tamil Thyagaraja</i><span style="color: rgb(255, 0, 0);">.</span> </span></p><p> <span style="font-size:100%;">Papanasam Shivan was born in <span style="color: rgb(255, 102, 102);">1890</span> in Polaham, Tanjavur district. His real name was <span style="color: rgb(255, 102, 102); font-style: italic;">Polagam Ramaiah</span>. His father passed away very early, forcing his mother to move to Thiruvananthapuram. Papanasam Shivan studied Sanskrit at Maharajah's college. His musical training was mostly informal. He was guided and influenced by Neelakanta Sivan and Konerirajapuram Vaidyanatha Iyer. The limited formal training he had was from Samba Bhagavatar and Mahadeva Bhagavatar. He also never had any formal training in Tamil. </span></p><p> <span style="font-size:100%;">He was a teacher at Kalakshetra for sometime. During that time he got a big break and started working for the Tamil music indutry. About 800 of his compositions would be for the film industry. He is perhaps the only Carnatic composer to have so extensively worked for the film industry. Papanasam Shivan's carnatic compositions were mostly spontaneous and noted down by others. His compositions were mostly in Tamil, even though he has some Sanskrit compositions. In <span style="color: rgb(255, 102, 102);">1972</span> he was awarded, belatedly, <span style="font-style: italic; color: rgb(255, 102, 102);">Sangeetha Kalanidhi</span> by Madras Music academy.</span></p><p><br /></p><table><tbody><tr align="left" valign="top"><td style="color: rgb(255, 0, 0);"><i><b>Mudra: </b></i><span style="color: rgb(0, 0, 0);">Ramadasan<br /><br /></span></td> <td><br /></td> </tr> <tr align="left" valign="top"> <td><i style="color: rgb(255, 0, 0);"><b>Genre</b></i><span style="color: rgb(255, 0, 0);"> </span><span style="font-weight: bold; color: rgb(255, 0, 0);">Carnatic</span><span style="color: rgb(255, 0, 0);">:</span>  Krithi, Varna, Thillana</td> <td><br /></td> </tr> <tr><td style="vertical-align: top;"><br /></td><td style="vertical-align: top;"><br /></td></tr><tr align="left" valign="top"> <td><i><b><span style="color: rgb(255, 0, 0);">Languages </span></b></i><span style="font-weight: bold;"><span style="color: rgb(255, 0, 0);">used</span></span><span style="color: rgb(255, 0, 0);">: <span style="color: rgb(0, 0, 0);">Tamil, Sanskrit</span><br /></span></td> <td><span style="font-weight: bold;"> </span><br /></td></tr></tbody></table><br /><span style="font-style: italic; color: rgb(255, 0, 0); font-weight: bold;">Compositions:</span><br /><br /><br />Composition<br />Raaga-Taala-Type<br /><br /><br />abhayAmbikA ramaNa<br />shankarAbharaNa-Adi-krithi<br /><br /><br /> adbhuta lIlaigaLai<br />madhyamAvati-Adi-krithi<br /><br /><br /> aDimai ennai<br />mukhAri-rUpaka-krithi<br /><br /><br />             aDimai mEl<br />nATa-Adi-krithi<br /><br /><br />  aDimaiyin uLLa (kaNNigaL)<br />vasantA-Adi-krithi<br /><br /><br />  aDimalariNai<br />paraju-Adi-krithi<br /><br /><br />  aDittAlum unai<br />nATa-Adi-krithi<br /><br /><br />  ADiya pAdattai<br />kAmavardhini-Adi-krithi<br /><br /><br />  ADum deivam<br />kAmbhOji-Adi-krithi<br /><br /><br />  AduvOm vArungaL<br />kEdAra-Adi-krithi<br /><br /><br />  aiyA nin<br />bilahari-Adi-krithi<br /><br /><br />  aiyan tiruvaDiyai<br />rAgam: pUrvikalyANi-Adi-krithi<br /><br /><br />  aiyappanai paNivOm<br />Arabhi-Adi-krithi<br /><br /><br />  akhilANDa nAyaki<br />shankarAbharaNa-Adi-krithi<br /><br /><br />  akhilANDeshvari<br />shri-Adi-krithi<br /><br /><br /> aLavilAda Anandam<br />bhairavi-Adi-krithi<br /><br /><br /> aLavillaiyE<br />mukhAri-dEshAdi-krithi<br /><br /><br /> amalE amarargaL (bhajan)<br />kuntalavarALi-Adi-krithi<br /><br /><br />            ambA manam<br />kAmavardhini-Adi-krithi<br /><br /><br />  ambA un mEl<br />behAg-Adi-krithi<br /><br />                      ambA un pAdam<br />gambhIranATa-Adi-krithi<br /><br /><br /> ambA unaiyE<br />shankarAbharaNa-dEshAdi-krithi<br /><br /><br /> Ananda naTamADum ayyan<br />shuddhadhanyAsi-rUpaka-krithi<br /><br /><br /> Ananda naTamiDum<br />kEdAragauLa-Adi-krithi<br /><br /><br /> Anandabhairavi anaiyum<br />Anandabhairavi-Adi-krithi<br /><br /><br /> AnandamE paramAnandamE<br />kAmbhOji-Adi-krithi<br /><br /><br /> anbilaiyE<br />khamAs-rUpaka-krithi<br /><br /><br /> ANDavan anbE shakti<br />shivaranjani-Adi-krithi<br /><br /><br /> ANDavan nIyE<br />mAyAmALavagauLa-Adi-krithi<br /><br /><br /> ANDavanai nambu<br />sAma-Adi-krithi<br /><br /><br /> ANDavanE unai<br />SaNmukhapriya-rUpaka-krithi<br /><br /><br /> anjalenrE<br />rAgam: bilahari-Adi-krithi<br /><br />annaiyin kAlil<br />rAgamAlikA-Adi-krithi<br /><br /><br /> annaiyum tandaiyum<br />kApi-Adi-krithi<br /><br /><br /> anudinamunai<br />madhyamAvati-Adi-krithi<br /><br /><br /> appan avataritta<br />kharaharapriyA-Adi-krithi<br /><br /><br /> appanum ammaiyum<br />aThANA-Adi-krithi<br /><br /><br /> AraNa poruLE<br />dEvagAndhAri-Adi-krithi<br /><br /><br /> AraNamum Agamum<br />kharaharapriyA-jhampa-krithi<br /><br /><br /> aruL puri<br />sarasvati-Adi-krithi<br /><br />           <br /> arumukhA<br />shuddhasAvEri-Adi-krithi<br /><br /><br /> aruT-tivilai<br />rAgam:  husEni-Adi-krithi<br /><br /><br /> attaruNam<br />bhairavi-Adi-krithi<br /><br /><br /> avAng manasa<br />cakravAka-Adi-krithi<br /><br /><br /> bAla pAhi<br />nIlAmbari-Adi-krithi<br /><br /><br /> bAlakrSNa mAm pAhi<br />sAvEri-Adi-krithi<br /><br /><br /> bAlakrSNan<br />dhanyAsi-rUpaka-krithi<br /><br /><br /> bAlasubramaNya<br />kEdAragauLa-rUpaka-krithi<br /><br /><br /> bhAgavatOttama<br />behAg-Adi-krithi<br /><br /><br /> bhajanai sheivAi<br />behAg-Adi-krithi<br /><br /><br /> bhajanai sheivOm<br />naTabhairavi-Adi-krithi<br /><br /><br /> bhArata mAtA<br />naTabhairavi-Adi-krithi<br /><br /><br /> bhArata puNya bhUmi<br />kuntalavarALi-Adi-krithi<br /><br /><br /> bhUmiyil mAniDa (kaNNigaL)<br />sindhubhairavi-Adi-krithi<br /><br /><br /> bhuvana patI<br />kAmbhOji-Adi-krithi<br /><br /><br /> bhuvanEshvari pAdam<br />bEgaDa-rUpaka-krithi<br /><br /><br /> bhuvanEshvari pughal<br />maNirangu-dEshAdi-krithi<br /><br /><br /> bOdhendra gurumUrti<br />pUrvikalyANi-Adi-krithi<br /><br /><br /> cAmuNDEshvari<br />sAvEri-Adi-krithi<br /><br /><br /> candra kalAvatam<br />shankarAbharaNa-Adi-krithi<br /><br />         <br />                     caraNa pankajam<br />mAyAmALavagauLa-cApu-krithi<br /><br /><br /> caraNAmbujam<br />shuddhasAvEri-Adi-krithi<br /><br /><br /> cidambara nAthA<br />hEmavati-Adi-krithi<br /><br /><br /> cintai teLindu<br />kalyANi-rUpaka-krithi<br /><br /><br /> cittam irangAdEnaiyyA<br />shahAnA-cApu-krithi<br /><br /><br /> daNDapANi padam<br />rAgaA:  maNirangu-Adi-krithi<br /><br /><br /> dasharatAtmajam<br />pUrvikalyANi-rUpaka-krithi<br /><br /><br /> dayAnidhE jAnakIpatE<br />nATa-Adi-krithi<br /><br /><br /> dayAparan shankaran<br />kharaharapriyA-Adi-krithi<br /><br /><br /> dayavillaiyA dayALO<br />kharaharapriyA-Adi-krithi<br /><br /><br /> deivam tuNai<br />SaNmukhapriyA-Adi-krithi<br /><br /><br /> dEsha sEvai<br />mAND-Adi-krithi<br /><br /><br /> dEva dEvanai<br />cenjuruTTi-rUpaka-krithi<br /><br /><br /> dEvadEvan pAdam<br />khamAs-Adi-krithi<br /><br /><br /> dEvi nin<br />bEgaDa-Adi-krithi<br /><br /><br /> dEvi nIyE<br />kIravANi-Adi-krithi<br /><br /><br /> dEvi pAdam<br />tODi-Adi-krithi<br /><br /><br /> dEvI shrI<br />kalyANi-Adi-krithi<br /><br /><br /> dEvi undan<br />mukhAri-Adi-krithi<br /><br />dharma samvardhani<br />nATakuranji-Adi-krithi<br /><br /><br /> dhIm tarana (tillAnA)<br />SaNmukhapriyA-Adi-krithi<br /><br /><br /> dhyAnamE enadu<br />kApi-Adi-krithi<br /><br /><br /> dikku vErillai<br />varALi-Adi-krithi<br /><br /><br /> dinam IdE<br />bhUpALa-Adi-krithi<br /><br /><br /> durgAlakSmi<br />Arabhi-Adi-krithi<br /><br /><br /> ellAm avan sheyal<br />tODi-cApu-krithi<br /><br /><br /> ellAm brahmamayam<br />behAg-Adi-krithi<br /><br /><br /> en manam<br />simhEndramadhyam-Adi-krithi<br /><br /><br /> enadu manam<br />harikAmbhOji-Adi-krithi<br /><br /><br /> enadu uLLamE<br />cenjuruTi-rUpaka-krithi<br /><br /><br /> enda vidam<br />mukhAri-jhampa-krithi<br /><br /><br /> endai gOvindan<br />bilahari-Adi-krithi<br /><br /><br /> engum niraindirukkum<br />kurinji-Adi-krithi<br /><br /><br /> enna sheidAlum<br />kharaharapriyA-Adi-krithi<br /><br /><br /> enna tavam<br />kApi-Adi-krithi<br /><br /><br /> ennai kAttaruLvadu<br />hEmavati-Adi-krithi<br /><br /><br /> ennai shOdanai<br />kalyANi-cApu-krithi<br /><br /><br /> ennai viTTODAdEDA<br />mOhana-Adi-krithi<br /><br />ennALum inda<br />rAgAmukhAri-Adi-krithi<br /><br /><br /> Enunakkinnum<br />kApi-Adi-krithi<br /><br /><br /> gajavadana<br />shrIranjani-Adi-krithi<br /><br /><br /> gAna rasamuDan<br />bEgaDa-rUpaka-krithi<br /><br /><br /> gaNapatiyE karuNAnidhiyE<br />kharaharapriyA-Adi-krithi<br /><br /><br /> gAndhijiyAi<br />hamsadhvani-Adi-krithi<br /><br /><br /> gAndhiyai pOloru<br />cenjuruTi-Adi-krithi<br /><br /><br /> gangai aNi<br />tODi-mishra Eka-krithi<br /><br /><br /> garbhavAsam ariyAda<br />hamsadhvani-Adi-krithi<br /><br /><br /> gati nIyE<br />sahAnA-Adi-krithi<br /><br /><br /> gati udavum<br />RAgamAlika-jhampa-krithi<br /><br /><br /> gaurImanOhara<br />gaurimanOari-Adi-krithi<br /><br /><br />                  gOkulam yamunai<br />dEs-Adi-krithi<br /><br /><br /> gOmati tAyE<br />yadukulakAmbhOji-Adi-krithi<br /><br /><br /> gOpAla sajjana<br />dhanyAsi-Adi-krithi<br /><br /><br /> gOpAlanE deivamAm<br />khamAs-Adi-krithi<br /><br /><br /> grahangaLim<br />bhairavi-Adi-krithi<br /><br /><br /> guruvAyUrappA<br />cakravAka-Adi-krithi<br /><br /><br /> haranE innum<br />karnATakabehAg-Adi-krithi<br /><br /><br /> iDadu padam<br />khamAs-Adi-krithi<br /><br /><br />iDaiyarAdun<br />sahAnA-Adi-krithi<br /><br /><br /> iddaraNiyil<br />bEgaDa-cApu-krithi<br /><br /><br /> ihaparamenum iru<br />simhEndramadhyam-Adi-krithi<br /><br /><br /> illai enra<br />kharaharapriyA-tisra Adi-krithi<br /><br /><br /> inbamenbadu<br />kAnaDA-Adi-krithi<br /><br /><br /> inda parAmukhamA<br />mAyAmALavagauLa-rUpaka-krithi<br /><br /><br /> indrajAla (kaNNigaL)<br />kAmavardhini-Adi-krithi<br /><br /><br /> Ini oru kaNam<br />shrIranjani-rUpaka-krithi<br /><br /><br /> IshananbAr<br />kApi-rUpaka-krithi<br /><br /><br /> IshanE inda<br />cakravAka-rUpaka-krithi<br /><br /><br /> jAnakIpatE<br />kharaharapriyA-Adi-krithi<br /><br /><br /> jaya bhErikai<br />kAmbhOji-Adi-krithi<br /><br /><br /> jaya jaya guhA<br />shuddhadhanyAsi-Adi-krithi<br /><br /><br /> jaya vijayIbhava<br />mAND-Adi-krithi<br /><br /><br /> jaya vIra<br />paraju-Adi-krithi<br /><br /><br /> jaya viTThala<br />bilahari-rUpaka-krithi<br /><br /><br /> jE paNDarIsha<br />sOhini-Adi-krithi<br /><br /><br /> jnAna sabhaiyil<br />sArangA-cApu-krithi<br /><br /><br /> jyOti mayamAna (kaNNIgaL)<br />kuriniji-Adi-krithi<br /><br /><br /> kaDaikkaN nOkki<br />tODi-Adi-krithi<br /><br />               kaDaikkaN pArvai<br />khamAs-Adi-krithi<br /><br /><br /> kAdali rAdhaiyai<br />kharaharapriyA-Adi-krithi<br /><br /><br /> kaDalil amizhndiDuvOm<br />maNirangu-Adi-krithi<br /><br /><br /> kadir kAma<br />kAmbhOji-tisra tripuTa-krithi<br /><br /><br /> kai koDuttALaiyyA<br />bEgaDa-Adi (2 kaLai)-krithi<br /><br /><br /> kailAsacala vAsA<br />hindOLa-Adi-krithi<br /><br /><br /> kaimmAru sheivaduNDO<br />kEdAragauLa-Adi-krithi<br /><br /><br /> kAl mAri ADum<br />dEvamanOhari-dEshAdi-krithi<br /><br /><br /> kali tIrumO<br />tODi-dEshAdi-krithi<br /><br /><br /> kallAda Ezhai<br />sAvEri-Adi-krithi<br /><br /><br /> kalpakAmbikA<br />harikAmbhOji-Adi-krithi<br /><br /><br /> kalpakAmbikai nI<br />behAg-rUpaka-krithi<br /><br /><br /> kalpakAmbikai uNDu<br />shuddhasAvEri-khaNDa jhampa-krithi<br /><br /><br /> kalpakAmbikaiyin<br />rAgam:  latAngi-Adi-krithi<br /><br /><br /> kalpakAmbikE shrI<br />bhairavi-rUpaka-krithi<br /><br /><br /> kalyANi karuNAnidhi<br />KalyANi-Adi-krithi<br /><br /><br /> kAmAkSi gauri<br />sAvEri-Adi-krithi<br /><br /><br /> kamala malaridazh<br />kalyANi-Adi-krithi<br /><br /><br /> kamalAmbA anaiyE<br />shankarAbharaNa-Adi-krithi<br /><br /><br /> kamalappada malariNai<br />harikAmbOji-Adi-krithi<br /><br />                   kAmAntakA<br />kApi-Adi-krithi<br /><br /><br /> kAmattai jayikkAdavan<br />dhanyAsi-cApu-krithi<br /><br /><br /> kAmEshvarA<br />kalyANi-dEshAdi-krithi<br /><br /><br /> kan manam<br />surAti-Adi-krithi<br /><br /><br /> kANa Aval<br />mOhana-Adi-krithi<br /><br /><br /> kANa vENDAmO<br />shrIranjani-rUpaka-krithi<br /><br /><br /> kANa virumbum<br />mukhAri-Adi-krithi<br /><br /><br /> kanaka sabhaiyai<br />hindustAnikApi-rUpaka-krithi<br /><br /><br /> kANakkaN kOTi<br />kAmbOji-Adi-krithi<br /><br /><br /> kandA vandaruL<br />AbhEri-Adi-krithi<br /><br /><br /> kanindaruL<br />kalyANi-tisra Adi-krithi<br /><br /><br /> kanja malaraDi<br />shankarAbaraNa-Adi-krithi<br /><br /><br /> kaNNA kAttaruL<br />madhyamAvati-Adi-krithi<br /><br /><br /> kaNNan madhura idazhai<br />bhImpalAs-Adi-krithi<br /><br /><br /> kaNNan mALigaikkE<br />aThANA-Adi-krithi<br /><br /><br /> kaNNanai paNi<br />SaNmukhapriyA-Adi-krithi<br /><br /><br /> kaNNE en kaNmaiyE<br />kurinji-tisra Adi-krithi<br /><br /><br /> kAntimati annai<br />kAnaDA-cApu-krithi<br /><br /><br /> kapAli irukka<br />sAvEri-khanDa jhampa-krithi<br /><br /><br /> kapAli karuNai nidhi<br />hamsadhvani-Adi-krithi<br /><br />kApAli karuNai nilavu<br />mOhana-Adi-krithi<br /><br /><br />kapAlIshanE<br />khamAs-Adi-krithi<br /><br /><br />kAriruLokka<br />kharharapriyA-Adi-krithi<br /><br /><br />karpaka manOhara<br />malayamAruta-khaNDa jhampa-krithi<br /><br /><br />karpaka vallI<br />ragamAlikA-Adi-krithi<br /><br /><br />karpaka valliyin<br />Arabhi-Adi-krithi<br /><br /><br />karpakAmbikE<br />bilahari-rUpaka-krithi<br /><br /><br />karpakamE<br />madhyamAvati-Adi-krithi<br /><br /><br />kArtikEya gAngEya<br />tODi-Adi-krithi<br /><br /><br />karuNA nidhiyE<br />bauLi-tisra tripuTa-krithi<br /><br /><br />karuNai puri<br />tODi-Adi-krithi<br /><br /><br />karuNai sheivAi<br />hamsadhvani-dEshAdi-krithi<br /><br /><br />karuNai varumO   <br />cArukEsi-Adi-krithi<br /><br /><br />karuNakaranE shiva<br />kIravANi-Adi-krithi<br /><br /><br />karuNAnidhiyE<br />kuntalavarALi-Adi-krithi<br /><br /><br />karuNAnidhiyE kaDaikkaN<br />kuntalavarALi-Adi-krithi<br /><br /><br />konjam dayai   <br />shankarAbharaNa-cApu-krithi<br /><br /><br />kOsalai pudalvanai   <br />rAgamAlikA-Adi-krithi<br /><br /><br />krSNA mukundA<br />navarOj-Adi-krithi<br /><br /><br />krSNa nAma<br />behAg-dEshAdi-krithi<br /><br />kSIra sAgara shAyi<br />pUrvikalyANi-Adi-krithi<br /><br />kulakkoDi tazhaikka<br />rAmapriyA-Adi-krithi<br /><br />kumaran tAL<br />yadukulakAmbhOji-Adi-krithi<br /><br />kumaran tiruvaDi<br />yamunAkalyANi-Adi-krithi<br /><br />kuncita pAdam<br />kAmbhOji-Adi-krithi<br /><br />kunram kuDi<br />tODi-Adi-krithi<br /><br />kUvi azhaikka<br />sindhubhairavi-Adi-krithi<br /><br />mA dayai<br />vasantA-Adi-krithi<br /><br />mA padAmbOruham<br />kuntaLavarALi-Adi-krithi<br /><br />mA ramaNan<br />hindOLa-rUpaka-krithi<br /><br />mAdhava bhuviyadil<br />shankarAbharaNa-Adi-krithi<br /><br />mAdhava mAyA<br />hamsAnandi-Adi-krithi<br /><br />mahA prabhO<br />Arabhi-Adi-krithi<br /><br />mahAdEva paramashiva<br />shuddhasImantini-Adi-krithi<br /><br />mahAlakSmi jaganmAtA<br />shankarAbaraNa-cApu-krithi<br /><br />mahAtmA gAndhi<br />maNirangu-Adi-krithi<br /><br />mahimai ariya    <br />mAyAmALavagauLa-Adi-krithi<br /><br />mahiSAsuramadani<br />kannaDa-Adi-krithi<br /><br />mAl marugA    <br />vasantA-Adi-krithi<br /><br />mAlai shUTTuvEn<br />rAgamAlika-Adi-krithi<br /><br />malariNai <br />rItigauLa-rUpaka-krithi<br /><br />manakkurangu    <br />AbhOgi-Adi-krithi<br /><br />manamE kaNamum<br />bhImpalAs-Adi-krithi<br /><br />manamE nI<br />kuntalavarALi-Adi-krithi<br /><br />manamenum malarAl<br />mAyAmALavagauLa-Adi-krithi<br /><br />mangaLa nAyaki maDa<br />tODi-Adi-krithi<br /><br />mangaLa nAyaki malaraDi    <br />navarasakannaDa-Adi-krithi<br /><br />mangaLam aruL<br />shrI-rUpaka-krithi<br /><br />mAniDa janmam<br />khamAs-rUpaka-krithi<br /><br />mArajanaka<br />rAgamAlikA-Adi-krithi<br /><br />mariyAdai tAnO<br />dhanyAsi-Adi-krithi<br /><br />marundaLittaruLvAi<br />gauLa-Adi-krithi<br /><br />mAtA innum vAtA    <br />shrIranjani-Adi-krithi<br /><br />mAtA InrameyyA<br />shuddhasAvEri-Adi-krithi<br /><br />mAtA tuNai<br />kAnadDA-Adi-krithi<br /><br />mAyam EdO    <br />mAyAmALavagauLa-Adi-krithi<br /><br />mAyAvatAra madhusUdanA<br />kAmbhOji-Adi-krithi<br /><br />mayil vAhanA<br />mOhana-Adi-krithi<br /><br />mayil vAhanE    <br />KalyANi-Adi-krithi<br /><br />mayilApuriyil<br />bhairavi-cApu-krithi<br /><br /><br />mOhana krSNA <br />suraTi-Adi-krithi<br /><br />mOhana muraLIdharA<br />cenjuruTi-Adi-krithi<br /><br />mOhana shrngAra<br />mOhana-Adi-krithi<br /><br />mUlAdhAra mUrti<br />hamsadhvani-Adi-krithi<br /><br />muraLIdhara mana<br />nAgasvarAvaLi-Adi-krithi<br /><br />murugA muzhumadi<br />sAvEri-Adi-krithi<br /><br />muruganai bhaji<br />jOnpuri-Adi-krithi<br /><br />muruganai nI anudinamum<br />kannaDa-Adi-krithi<br /><br />nAda praNava<br />shuddhasAvEri-Adi-krithi<br /><br />nam nADu<br />shuddhasAvEri-Adi-krithi<br /><br />nAma bhajarE<br />mANd-Adi-krithi<br /><br />nAma dhyAnam<br />rItigauLa-Adi-krithi<br /><br />nAma ghOSam<br />Anandabhairavi-Adi-krithi<br /><br />nAmam uravu<br />darbAr-Adi-krithi<br /><br />nAman onrE<br />kharaharapriyA-Adi-krithi<br /><br />nambik-keTTavar<br />hindOLa-Adi-krithi<br /><br />nambinadu kuTramA<br />hamsadhvani-Adi-krithi<br /><br />nambum anbarai<br />shrIranjani-Adi-krithi<br /><br />nanganallUr<br />Anandabhairavi-Adi-krithi<br /><br />nAnoru viLayATTu<br />navarasakannaDa-Adi-krithi<br /><br />nArAyaNa divya <br />mOhanam-Adi-krithi<br /><br />nArAyaNa naLinAyata<br />sAma-Adi-krithi<br /><br />naTana sabhApatiyE<br />nATakuranji-Adi-krithi<br /><br />naTanam enbadu<br />vasantA-Adi-krithi<br /><br />naTarAjan un tiru<br />vasantA-Adi-krithi<br /><br />naTarAjO vijayatE<br />vasantA-khaNDjAti aTa-krithi<br /><br />nAthan tAL<br />hamIrkalyANi-tisra Eka-krithi<br /><br />nekkurugi<br />AbhOgi-Adi-krithi<br /><br />nenjE kalpaka<br />shudhdhasImantini-Adi-krithi<br /><br />nI aruL puriya<br />kIravANi-tripuTa-krithi<br /><br />nI gatiyaladu<br />bhairavi-Adi-krithi<br /><br />nI inda mAyam (padavarNam)<br />dhanAysi-Adi-krithi<br /><br />nI irangAyenil<br />aThANA-Adi-krithi<br /><br />nijamunnai    <br />bilahari-jhampa-krithi<br /><br />nIlAmbari jagadIshvari<br />nIlAmbari-Adi-krithi<br /><br />nin aruL<br />kAmavardhini-rUpaka-krithi<br /><br />nin caraNa malarE<br />simEndramadhyam-cApu-krithi<br /><br />ninai manamE    <br />anandabhairavi-rUpaka-krithi<br /><br />ninaindurugum aDiyAr<br />kharaharapriyA-Adi-krithi<br /><br />ninaindurugum enai<br />suraTi-Adi-krithi<br /><br />nityAnandam aLikkum (kaNNigaL) <br />nAdanAmakriyA-Adi-krithi<br /><br />nIyE parAmukhamAyin<br />hamsanAda-Adi    krithi<br /><br />nIyE pEdai<br />kAmavardhini-Adi-krithi<br /><br />nIyE sharaN    <br />kAmbhOji-Adi-krithi<br /><br />O shiva param    <br />paraju-Adi-krithi<br /><br />OhO en tOzhargaL<br />sindhubhairavi-rUpaka-krithi<br /><br />oru varam    <br />kalyANi-Adi-krithi<br /><br />pada malariNai<br />sAvEri-Adi-krithi<br /><br />padam nambinEn<br />kalyANi-Adi-krithi<br /><br />pAdamalar tuNaiyE<br />harikAmbhOji-cApu-krithi<br /><br />padamalarE gatiyena<br />mAyAmALavagauLa-rUpaka-krithi<br /><br />pAdamalarE tanjam<br />kEdAra-Adi-krithi<br /><br />pAdamE tuNai<br />valaji-Adi-krithi<br /><br />pADap-pADa    <br />kAmbhOji-Adi-krithi<br /><br />padari manamayarndu    <br />sAvEri-Adi-krithi<br /><br />pADi aluttEn    <br />kuntaLavarALi-Adi-krithi<br /><br />padmanAbha mAm pAhi    <br />kalyANi-dEshAdi-krithi<br /><br />padumanAbhan marugA<br />nAgasvarAvaLi-Adi-krithi<br /><br />pAhi mInalOcani    <br />bilahari-Adi-krithi<br /><br />pAlanai purivadOr    <br />darbAr-Adi-krithi<br /><br />pAmAlaikkiNai uNDO <br />harikAmbhOji-Adi-krithi<br /><br />pANDuranga prabhuvE<br />kApi-Adi-krithi<br /><br />para deivam<br />pUrvikalyANi-Adi-krithi<br /><br />para dEvataiyE<br />cakravAka-Adi-krithi<br /><br />paradEvatE padam<br />maNirangu-dEshAdi-krithi<br /><br />parama puruSan<br />nAgasvarAvaLi-Adi-krithi<br /><br />parAmukham EnayyA<br />kharaharapriyA-Adi-krithi<br /><br />parAmukham tagumO<br />mukhAri-Adi-krithi<br /><br />parAshakti janani<br />hamsadvani-Adi-krithi<br /><br />parashu pANi<br />paraju-Adi-krithi<br /><br />parAtpara parameshvara<br />vAcaspati-dEshAdi-krithi<br /><br />pAril nalvazhi<br />tODi-Adi-krithi<br /><br />paripAlanai puri<br />hEmavati-Adi-krithi<br /><br />parpala    <br />khamAs (paN)-rUpaka-krithi<br /><br />pArulagil uzhanru (kaNNigaL)<br />mOhana-Adi-krithi<br /><br />pArvati nAyakanE    <br />SaNmukhapriyA-Adi-krithi<br /><br />pati avanE    <br />cenjuruTTi-Adi-krithi<br /><br />pati padam    <br />shankarAbharaNa-Adi-krithi<br /><br />patita pAvana<br />tODi-Adi-krithi<br /><br />pavana tanaya<br />kAmbhOji-Adi-krithi<br /><br /><br />pazhani appan <br />simhEndramadhyam-Adi-krithi<br /><br />pErAnandam<br />rItigauLa-Adi-krithi<br /><br />piccaikku vandIrO<br />suraTi-Adi-krithi<br /><br />piravA varam<br />latAngi-Adi-krithi<br /><br />piravi adanAl<br />shahAnA-adi-krithi<br /><br />pizhai poruttaruLvAi<br />husEni-cApu-krithi<br /><br />pollAp-puliyinum<br />mAyAmALavagauLa-madhyAdi-krithi<br /><br />pOvOm vArIr<br />shankarAbharaNa-rUpaka-krithi<br /><br />purakkavE avatarittAn<br />kalyANi-Adi-krithi<br /><br />rAdhA mukha kamala<br />hindustAnikApi-Adi-krithi<br /><br />rAjagOpAla<br />tODi-rUpaka-krithi<br /><br />rAjan mahArAjan<br />husEni-Adi-krithi<br /><br />rAmA idu<br />kalyANi-Adi-krithi<br /><br />rAma nAma amrta<br />khamAs-Adi-krithi<br /><br />rAmacandran malaraDi<br />kalyANi-Adi-krithi<br /><br />rAmam bhajata<br />shrI-Adi-krithi<br /><br />rAmanai bhajittAl<br />mANd-Adi-krithi<br /><br />ranganai tudippOrkku<br />cakaravAka-Adi-krithi<br /><br />sA sabhA<br />hamsadhvani-rUpaka-krithi<br /><br />sadAshiva kumArA    <br />shuddhasAvEri-Adi-krithi<br /><br />sAdhu janangaLai <br />sAvEri-Adi-krithi<br /><br />sakala bhuvana<br />kEdAra-rUpaka-krithi<br /><br />sakala lOka<br />latAngi-Adi-krithi<br /><br />sAmagAna lOlanE<br />hindOLa-Adi-krithi<br /><br />sAmajavara<br />madhyamAvati-Adi-krithi<br /><br />sAmbashivA enrE<br />kIravANi-Adi-krithi<br /><br />sAnandAntaranga    <br />simhEndramadhyam-Adi-krithi<br /><br />sangIta trimUrtigaLai    <br />kEdAragauLa-Adi-krithi<br /><br />sArasa pUmpAdam<br />behAg-Adi-krithi<br /><br />sarasvati annaiyE<br />kharaharapriyA-Adi-krithi<br /><br />sarasvati dayai<br />sarasvati-Adi-krithi<br /><br />sarvalOka sharaNya<br />nAdanAmakriyA-Adi-krithi<br /><br />sarvEshA aDimaiyai<br />bilahari-Adi-krithi<br /><br />saundarya veLLam<br />mOhana-Adi-krithi<br /><br />shambhO sadAshiva    <br />shuddhasAvEri-Adi-krithi<br /><br />shambhO umApatE    <br />kAmavardhini-Adi-krithi<br /><br />shankara dayAkarA    <br />harikAmbhOji-khaNDa cApu-krithi<br /><br />shankara purahara    <br />vasantA-Adi-krithi<br /><br />shankarai dayAkarI    <br />bEgaDA-Adi-krithi<br /><br />shankaranai paNI manamE<br />nAdanAmakriyA-Adi-krithi<br /><br />shAradE vINA vAdana<br />dEvagAndhAri-Adi-krithi<br /><br />sharaNam aiyappA<br />mukhAri-cApu-krithi<br /><br />sharavaNabhava guhanE<br />kannaDa-Adi-krithi<br /><br />sharavaNabhava guhanE<br />madhyamAvati-Adi-krithi<br /><br />shendil ANDavan<br />kharaharapriyA-rUpaka-krithi<br /><br />shendil vaLar (kaNNigaL)<br />khamAs-tisra Adi-krithi<br /><br />shikkal mEviya<br />kAmbOji-rUpaka-krithi<br /><br />shiridEnum    <br />bhairavi-khaNDa jhampa-krithi<br /><br />shiridum kavalaippaDAdE<br />kharaharapriyA-Adi-krithi<br /><br />shiva perumAn<br />suraTi-Adi-krithi<br /><br />shivagangA    <br />punnAgvarALi-Adi-krithi<br /><br />shivakAma sundari<br />mukhAri-Adi-krithi<br /><br />shivAya namavenrE<br />kuntalavarALi-Adi-krithi<br /><br />shOdanai shumaikka    <br />kApi-Adi-krithi<br /><br />shOdanai tagAdayyA    <br />kharaharapriyA-Adi-krithi<br /><br />shollu pAppA    <br />mukhAri-adi-krithi<br /><br />shrI gaNapatiyE<br />dEvamanOhari-Adi-krithi<br /><br />shrI gaNEsha<br />tilang-Adi-krithi<br /><br />shrI harE    <br />mAyAmALavagauLa-Adi-krithi<br /><br />shrI harE krSNa<br />nATa-Adi-krithi<br /><br />shrI harE nArAyaNa <br />mAyAmALavagauLa-Adi-krithi<br /><br />shrI jagadambikaiyE<br />latAngi-rUpaka-krithi<br /><br />shrI mahA<br />kAmavardhini-Adi-krithi<br /><br />shrI padmanAbhA<br />kEdAragauLa-Adi-krithi<br /><br />shrI rAdhA<br />behAg-rUpaka-krithi<br /><br />shrI rAma jayamangaLam    <br />suraTi-Adi-krithi<br /><br />shrI rAma nAma<br />aThANA-Adi-krithi<br /><br />shrI rAmabhadrA    <br />suraTi-Adi-krithi<br /><br />shrI rAmabhadrA<br />sAramati-Adi-krithi<br /><br />shrI rAman    <br />nArAyaNagauLa-Adi-krithi<br /><br />shrI SaNmukham<br />Bhairavi-Adi-krithi<br /><br />shrI shailapatiyE<br />kAmbhOji-Adi-krithi<br /><br />shrI vallI    <br />naTabhairavi-Adi-krithi<br /><br />shrI vAtApi    <br />sahAnA-Adi-krithi<br /><br />shrI vishvanAtham    <br />bhairavi-Adi-krithi<br /><br />shrIdhara venkatEsham    <br />kalyANi-cApu-krithi<br /><br />shrInivAsa tava    <br />kharharapriyA-rUpaka-krithi<br /><br />shrInivAsa tiru    <br />hamsAnandi-Adi-krithi<br /><br />singAra vElavan    <br />Anandabhairavi-Adi-krithi<br /><br />soppana vAzhvil    <br />rAgamAlikA-Adi-krithi<br /><br />sundara rUpa<br />shankarAbharaNa-Adi-krithi<br /><br />sundarEshvarA    <br />maNirangu-rUpaka-krithi<br /><br />sundarEshvaranE<br />kalyANi-Adi-krithi<br /><br />svAmi ItaramA    <br />kEdAra-Adi-krithi<br /><br />svAmi nAn unran (varNam)<br />nATakuranji-Adi-krithi<br /><br />svAmi nI (padavarNam)<br />shrIranjani-Adi-krithi<br /><br />svAmi sharaNam<br />Anandabhairavi-Adi-krithi<br /><br />svAmi shiridum    <br />nAgasvarAvaLi-Adi-krithi<br /><br />svAmi unnai (varNam)    <br />Arabhi-Adi (2 kaLai)-krithi<br /><br />svAmi unran (varNam)    <br />bilahari-Adi-krithi<br /><br />svAmikku sari    <br />kEdAragauLa-cApu-krithi<br /><br />tAmadam En    <br />tODi-Adi-krithi<br /><br />tAmasamA ammA    <br />kuntalavarALi-Adi-krithi<br /><br />tamizh maNam    <br />maNIrangu-Adi-krithi<br /><br />tandai tAi    <br />dEvamanOhari-Adi-krithi<br /><br />taNikai vaLar    <br />tODi-khaNDacApu-krithi<br /><br />taNikEshanai paNindu    <br />tODi-Adi-krithi<br /><br />tanjam enrAlE (varNam)    <br />AbhOgi-Adi-krithi<br /><br />tanjam nIyE    <br />tODi-Adi-krithi<br /><br />tannai bhajikkalAgAdA    <br />aThANA-Adi-krithi<br /><br />taruNm IdaiyyA <br />shivaranjani-rUpaka-krithi<br /><br />tatvamariya    <br />rItigauLa-Adi-krithi<br /><br />tava caraNau    <br />tODi-rUpaka-krithi<br /><br />tAyE bhairaviyE    <br />bhairavi-Adi-krithi<br /><br />tAyE EzhaipAl    <br />bhairavi-adi-krithi<br /><br />tAyE nInE    <br />bhairavi-Adi-krithi<br /><br />tAyin maNikkoDi    <br />sALagabhairavi-Adi-krithi<br /><br />tAyumAnavanE    <br />khamAs-Adi-krithi<br /><br />tEril ErinAn    <br />kalyANi-rUpaka-krithi<br /><br />tirukkumaranAi    <br />shankarAbaraNa-dEshAdi-krithi<br /><br />tirupparam kunra    <br />hindOLa-Adi-krithi<br /><br />tiruvaDi paNiyum    <br />sAvEri-Adi-krithi<br /><br />tiruvaLar    <br />khamAs-Adi-krithi<br /><br />tiruvaruL purivaiyE    <br />shuddhadhanyAsi-Adi-krithi<br /><br />tiruvaruL tandaruLvAi    <br />bEgaDa-Adi-krithi<br /><br />tiruvaruL tara<br />aThANA-Adi-krithi<br /><br />tiruvazhundUr    <br />dhanyAsi-tripuTa-krithi<br /><br />tudikkaiyanai nI    <br />mOhana-Adi-krithi<br /><br />tuNai nIyE    <br />kalyANi-Adi-krithi<br /><br />tuNai purindaruL    <br />hindOLa-Adi-krithi<br /><br />ulaga vAzhilum     <br />aThANA-Adi-krithi<br /><br />ulaga vAzhvil    <br />sAvEri-Adi-krithi<br /><br />uLLam iranguvadun    <br />kAnaDA-Adi-krithi<br /><br />uLLamirangi    <br />hamsadhvani-Adi-krithi<br /><br />umaiyOr bhAganE    <br />nATa-rUpaka-krithi<br /><br />un pAdam aladu    <br />kalyANi-Adi-krithi<br /><br />un padam nambina    <br />rItigauLa-Adi-krithi<br /><br />un pAdamE    <br />punnAgavarALi-Adi-krithi<br /><br />unadu dayai    <br />kAmavardhani-tripuTa-krithi<br /><br />unai allAl vErE    <br />kalyANi-Adi-krithi<br /><br />unai dinam    <br />sAvEri-Adi-krithi<br /><br />unai nambi    <br />cakravAka-cApu-krithi<br /><br />unaiyalAl gati    <br />balahamsa-Adi-krithi<br /><br />unaiyallAl gati    <br />kalyANi-Adi-krithi<br /><br />unakkum enakkum    <br />mAyAmALavagauLa-Adi-krithi<br /><br />uNDenru nambu    <br />kAmbhOji-Adi-krithi<br /><br />uNDenru urudi    <br />harikAmbOji-rUpaka-krithi<br /><br />uNDu kuladeiva    <br />tODi-Adi-krithi<br /><br />unnai bhajikka    <br />bEgaDa-Adi-krithi<br /><br />unnai ninaindu    <br />cakravAka-Adi-krithi<br /><br />unnai ninandAlE     <br />cenjuruTi-Adi-krithi<br /><br />unnait-tudikka    <br />kunthaLavarALi-Adi-krithi<br /><br />vA gaNapatiyE    <br />shuddhasAvEri-Adi-krithi<br /><br />vA vA mativadanE    <br />paraju-Adi-krithi<br /><br />vaLLI kAntA    <br />simhEndramadhyam-Adi-krithi<br /><br />vAna inbamum peridO    <br />bhImpalAs-RUpaka-krithi<br /><br />vandadellAm    <br />husEni-Adi-krithi<br /><br />vandaruLvAi murugA    <br />dEvamanOhari-Adi-krithi<br /><br />vandaruLvAi tOghai    <br />kAmavardhini-Adi-krithi<br /><br />vANI aruL    <br />dhanyAsi-Adi-krithi<br /><br />vAnOr vaNangum    <br />Anandabhairavi-Adi-krithi<br /><br />varalakSmi nIyE    <br />sALagabhairavi-Adi-krithi<br /><br />vAyu kumAran    <br />kalyANi-adi-krithi<br /><br />vEnkaTaramaNA pankaja    <br />kalyANi-Adi-krithi<br /><br />vEnkaTaramaNA un tiru    <br />latAngi-rUpaka-krithi<br /><br />vErillai nIyE    <br />suraTi-Adi-krithi<br /><br />vEru tuNai    <br />dhanyAsi-jhampa-krithi<br /><br />vighna vinAyaka    <br />madhyamAvati-Adi-krithi<br /><br />vINE azhiyAdE    <br />kharaharapriyA-Adi-krithi<br /><br />vishAlAkSi nAyakan    <br />bEgaDa-Adi-krithi<br /><br />vishvanAthA     <br />dEvagAndhAri-Adi-krithi<br /><br />yadukula tilakA<br />hamIrkalyANi-Adi-krithi<br /><br />yamunA tIrE    <br />mAND-Adi-krithi<br /><br />yArammA nI    <br />SaNmukhapriyA-Adi-krithi<br /><br />yashOdA bAlA<br />rAgamAlikA-Adi-krithi
p3
sVkind
p4
Vblogger#post
p5
sVlabels
p6
(lp7
VBiography
p8
aVCarnatic
p9
aVClassical
p10
aVComposers
p11
aVList of Carnatic Composers
p12
aVPost Trinity
p13
aVWorks
p14
asVtitle
p15
VPapanasam Shivan (1890 - 1973) Biography and Works
p16
sVurl
p17
Vhttp://musicinfoguide.blogspot.com/2007/08/papanasam-shivan-1890-1973-biography.html
p18
sVauthor
p19
(dp20
Vurl
p21
Vhttp://www.blogger.com/profile/16942048825081160415
p22
sVimage
p23
(dp24
Vurl
p25
Vhttp://4.bp.blogspot.com/-ZmH5ruRqlG8/U4uhsUsZ6NI/AAAAAAAAAPw/klEX3rcGsto/s45/*
p26
ssVdisplayName
p27
VKarthik Subramany
p28
sVid
p29
V16942048825081160415
p30
ssVupdated
p31
V2008-08-04T23:18:11-07:00
p32
sVreplies
p33
(dp34
VtotalItems
p35
V1
sVselfLink
p36
Vhttps://www.googleapis.com/blogger/v3/blogs/3207072992206519076/posts/8019078838395472742/comments
p37
ssVblog
p38
(dp39
Vid
p40
V3207072992206519076
p41
ssVpublished
p42
V2007-08-16T22:15:00-07:00
p43
sVid
p44
V8019078838395472742
p45
sVselfLink
p46
Vhttps://www.googleapis.com/blogger/v3/blogs/3207072992206519076/posts/8019078838395472742
p47
s.