(dp1
Vcontent
p2
V<strong><span style="color:#ff0000;">Veena Kuppayyar was a famous vainika (veena player), disciple of Shri Thyagaraja and a composer of merit.</span></strong><br /><br />Veena Kuppayyar was born into a musical family in Tiruvottiyur. His father Sambamoorti Sastri was a famous vocalist and a veena player. Kuppayyar had his initial training from his father. Later he became a disciple of Thyagaraja and learnt composing from him. He was also a Sanskrit and Telugu scholar. He also learnt violin, which was a new instrument in Carnatic music at the time. But, it was for his profiency in Veena that Kuppayyar came to be well known and veena became a part of his name too.<br /><br />Veena Kuppayyar later shifted to Muthialpet in Madras. Kovur Sundara Mudaliar was his primary patron and enjoyed the status of asthana vidhwan there. Even Thyagaraja visited Mudaliar's madras house. Kuppayyar trained a lot of disciples in his gurukula, who carried forward the Thyagaraja shishya parampara, helping to spread his krithi-s and music.<br /><br />Veena Kuppayyar composed in Telugu, both krithi-s and varnam-s. His varnam-s like saami ninne kori (Shankarabharanam) are very famous. His mudra was <span style="color:#ff6666;">Gopaaladaasa</span>, in honour of his family diety.<br /><br /><span style="color:#ff0000;">Mudra:</span> Gopaladasa<br /><br /><span style="color:#ff0000;">Genre Carnatic:</span> Krithi, Varnam<br /><br /><span style="color:#ff0000;">Languages used:</span> Telugu<br /><br /><span style="color:#ff0000;">Compositions:</span><br /><br />Inta Paralekha - Begada - Rupaka<br />Vinayaka Ninnuvina - Hamsadvani - Adi<br />Inta Chalamu - Begada - Adi<br />Inta Chouka - Bilahar - Adi<br />Nenarunchi - Danyasi - Khanda Ata<br />Koniyadina - Kambhoji - Adi<br />Sami ninne kori - Sankarabharanam - Adi
p3
sVkind
p4
Vblogger#post
p5
sVlabels
p6
(lp7
VBiography
p8
aVCarnatic
p9
aVClassical
p10
aVComposers
p11
aVKarnatic
p12
aVMusic
p13
aVPre trinity
p14
aVVeena
p15
aVWorks
p16
asVtitle
p17
VVeena Kuppayyar (1798-1860) Biography and Works
p18
sVurl
p19
Vhttp://musicinfoguide.blogspot.com/2007/08/veena-kuppayyar-1798-1860-biography-and.html
p20
sVauthor
p21
(dp22
Vurl
p23
Vhttp://www.blogger.com/profile/16942048825081160415
p24
sVimage
p25
(dp26
Vurl
p27
Vhttp://4.bp.blogspot.com/-ZmH5ruRqlG8/U4uhsUsZ6NI/AAAAAAAAAPw/klEX3rcGsto/s45/*
p28
ssVdisplayName
p29
VKarthik Subramany
p30
sVid
p31
V16942048825081160415
p32
ssVupdated
p33
V2007-08-15T10:57:55-07:00
p34
sVreplies
p35
(dp36
VtotalItems
p37
V2
sVselfLink
p38
Vhttps://www.googleapis.com/blogger/v3/blogs/3207072992206519076/posts/8519597114726937645/comments
p39
ssVblog
p40
(dp41
Vid
p42
V3207072992206519076
p43
ssVpublished
p44
V2007-08-15T10:54:00-07:00
p45
sVid
p46
V8519597114726937645
p47
sVselfLink
p48
Vhttps://www.googleapis.com/blogger/v3/blogs/3207072992206519076/posts/8519597114726937645
p49
s.