(dp1
Vcontent
p2
V<a href="http://bp1.blogger.com/_izbXUVoYKD4/RsMuDpNe9GI/AAAAAAAAABM/cZHy-XfVodE/s1600-h/swati.jpg"><img id="BLOGGER_PHOTO_ID_5098969843250426978" style="FLOAT: right; MARGIN: 0px 0px 10px 10px; CURSOR: hand" alt="" src="http://bp1.blogger.com/_izbXUVoYKD4/RsMuDpNe9GI/AAAAAAAAABM/cZHy-XfVodE/s320/swati.jpg" border="0" /></a>  <div><font color="#ff0000"><strong>Biography</strong></font></div><br /><div><strong><font color="#ff0000"></font></strong></div><br /><div><font color="#ff0000"><strong>Sri Swathi Thirunal Rama Varma (April 16, 1813 - December 25, 1846)</strong></font> was a South Indian king of the state of Travancore, in India. His reign lasted from <font color="#ff6666">1829 to 1846</font>. He was born a king, and was in power even before birth. Therefore, he is called <font color="#ff0000">Garbha Sreeman</font>.</div><div><br />Besides being an able ruler, he was a patron of music and a musician by himself. He encouraged both broad systems of Indian music, Hindustani and Carnatic music, though he was essentially a connoisseur of the carnatic music tradition.</div><br /><div><br />He was born in the royal family of Travancore in <font color="#ff6666">1813</font> and learned English, Sanskrit, Hindi, Telegu, Marathi and Kannada at an early age, along with music. At 16, he became King of Travancore and had in his court famous musicians such as Kannaiah Bhaagavatar (disciple of Tyagaraaja); the Tanjaavoor brothers Ponniah, Shivaanandam, and VaDivElu; COlaapuram Raghunaata Rao; Harikata Meru Swami; and Irayimman Tampi along with a few renowned Hindustani musicians. He is said to have composed about <font color="#ff6666">400</font> songs in both familiar and rare raagams. His "Navaraatri Keertanais" and "Navaratna Maalika <font color="#ff6666">Keertanais</font>" are famous, and his "<font color="#ff6666">Navaratna Maalai</font>" contains 9 songs representing the <font color="#ff6666">9 </font>kinds of devotion. He has composed many beautiful raagamaalikas (songs in multiple raagams). His "Bhaavaiyaami raghuraamam" was composed entirely in the raagam saavEri but was made into a raagamaalika by SemmanguDi Shreenivaasa Ayyar. He also composed <font color="#ff6666">65</font> padams and many tillaanaas. His songs are composed in a variety of taaLams and his varnams are popular. Being a great patron of the dance form KatakaLi, he invited dancers to come perform - and composed swarajatis and jaavalis as well as Hindustani-style songs. Some say that some compositions attributed to him were really composed by some great musicians of his court. His life was short and he died on <font color="#ff6666">December 25, 1846, at</font> <font color="#ff6666">34</font>. At least <font color="#ff6666">125</font> of his compositions are available today. </div><br /><div><br /><font color="#ff0000">Musical Background:</font> Swati Tirunal was groomed to be a king and he was trained in various areas in which a king was expected to be proficient. He was fluent in <font color="#ff6666">13 </font>languages and was able to write poems and songs. He was also well-versed in other arts like painting and sculpture and was himself a great patron of these arts. Region: He was born in Travancore, Kerala.</div><br /><div><br /><font color="#ff0000">Contribution:</font> He is believed to have composed around <font color="#ff6666">500</font> songs. Besides Varnams, Kritis, Swarajatis, Padams and Javalis, he authored two musical plays. Besides these, he also composed Dhrupads, Khyal, Tappas, Thumris and Bhajans in the Hindustani style. Like Dikshitar, he composed a set of Navaratri kritis, one for each day of the Navaratri festival, in praise of Goddess Devi. </div><br /><div></div><br /><div><font color="#ff0000">Theme:</font> Mainly devotional and occasionally romantic. Most of his compositions are on Lord Padmanabha but as mentioned earlier, he has also composed on Goddess Devi (Parvati).<br /></div><br /><div><font color="#ff0000">Languages used:</font> His compositions were mainly in Sanskrit, but he has also composed in Malayalam, Telugu and Hindi.</div><br /><div><br /><font color="#ff0000">Signature:</font> He used the mudra Padmanabha and its variations, Jalajanabha, Pankajanabha and Sarasijanabha.</div><br /><div><br /><font color="#ff0000">Popular compositions:</font> Bhavayami (Ragamalika), Bogindra sayinam (Kuntalavarali), Deva deva (Mayamalavagowla), Kripaya palaya (Charukesi) and so on.</div><br /><div><br /><font color="#ff0000">Mudras:</font> Padmanaabha, Pankajanaabha, Sarasijanaabha, Saraseeruha naabha, Kanja naabha, Jalaja naabha </div><br /><div><br /><font color="#ff0000">Compositions:</font></div><br /><div><br />adrisutavara - kalyani<br />aliveni - kurinji<br />bhavayaami - ragamalika<br />bhogeendra shayanam - kuntala varali<br />chaliye kunjanamu - brindavan sarang<br />deva deva jagadeeshwara - poorvi kalyani<br />deva deva kalayaami - mayamaalava gowla<br />devi jagajjanani - shankaraabharanam<br />gopalaka pahimaam - boopaalam<br />gopanandana valaripunuta - bhooshavali<br />indumukhi - shankaraabharanam<br />itu sahasamula - saindhavi<br />jaya jaya devi - yamuna kalyani<br />jaya jaya padmanaabhaanujesha - manirangu<br />mamavasadaa janani - kaanada<br />pahi jagajjanani - hamsanandi<br />pahi jagajjanani - vachaspati<br />pahimaam shree - kalyani<br />pahi parvatanandini - arabi<br />pahi shreepathe - hamsadwani<br />pankajaaksha tava - thodi<br />paripaahi maamayi - kalyani<br />paripaalaya maam - reetigowla<br />raajeevaaksha baaro - shankaraabharanam<br />raama raama gunaseema - simhendra madhyamam<br />saramaina-behaag, neelaambari<br />saamajendra bheetiharana - bhoopalam, revagupti<br />tillana - dhanashree<br />vande sadaa padmanabham - navarasa kannada<br />vihara manasa - kapi<br />vishveshvara darshana - dhanashree</div>
p3
sVkind
p4
Vblogger#post
p5
sVlabels
p6
(lp7
VBiography
p8
aVCarnatic
p9
aVClassical
p10
aVComposers
p11
aVList of Carnatic Composers
p12
asVtitle
p13
VSWATI TIRUNAL (1813 - 1847) Biography and Complete Works
p14
sVurl
p15
Vhttp://musicinfoguide.blogspot.com/2007/08/swati-tirunal-1813-1847-biography-and.html
p16
sVauthor
p17
(dp18
Vurl
p19
Vhttp://www.blogger.com/profile/16942048825081160415
p20
sVimage
p21
(dp22
Vurl
p23
Vhttp://4.bp.blogspot.com/-ZmH5ruRqlG8/U4uhsUsZ6NI/AAAAAAAAAPw/klEX3rcGsto/s45/*
p24
ssVdisplayName
p25
VKarthik Subramany
p26
sVid
p27
V16942048825081160415
p28
ssVupdated
p29
V2007-08-15T09:48:06-07:00
p30
sVreplies
p31
(dp32
VtotalItems
p33
V0
sVselfLink
p34
Vhttps://www.googleapis.com/blogger/v3/blogs/3207072992206519076/posts/6390849943992374657/comments
p35
ssVblog
p36
(dp37
Vid
p38
V3207072992206519076
p39
ssVpublished
p40
V2007-08-15T09:34:00-07:00
p41
sVid
p42
V6390849943992374657
p43
sVselfLink
p44
Vhttps://www.googleapis.com/blogger/v3/blogs/3207072992206519076/posts/6390849943992374657
p45
s.