(dp1
Vcontent
p2
V<a onblur="try {parent.deselectBloggerImageGracefully();} catch(e) {}" href="http://bp3.blogger.com/_izbXUVoYKD4/RsUtgKocwnI/AAAAAAAAACU/otIkheKlILE/s1600-h/muthiah_bhagavatar.jpg"><img style="margin: 0pt 0pt 10px 10px; float: right; cursor: pointer;" src="http://bp3.blogger.com/_izbXUVoYKD4/RsUtgKocwnI/AAAAAAAAACU/otIkheKlILE/s320/muthiah_bhagavatar.jpg" alt="" id="BLOGGER_PHOTO_ID_5099532183700030066" border="0" /></a><br /><p><span style=""><span style="font-size:0;"><span style="font-weight: bold; color: rgb(255, 0, 0);font-size:130%;" >Biography</span><br /></span></span></p><p style="color: rgb(255, 0, 0);"><span style=";font-size:100%;" ><span style="font-weight: bold;">Dr. Harikesanallur Muthaiah Bhagavathar is one of the most important post-trinity composers and an important vocalist as well.</span> </span></p><p> <span style=";font-size:100%;" ><span style="color: rgb(255, 102, 102);">Muthaiah Bhagavathar</span> was born to Lingam Iyer and Anamdam in <span style="color: rgb(255, 102, 102);">1877</span>. After the early death of his father, he was brought up by his maternal uncle Lakshamana Suri of Harikesanallur, who taught his Sanskrit, Vedas and music. He got further musical training from Sambasiva Iyer and his son T. S. Sabesa Iyer, who belonged to the Thyagaraja shishya parampara. </span></p><p> <span style=";font-size:100%;" >As a vocalist, his big break came when in <span style="color: rgb(255, 102, 102);">1887</span> he sang before Maharaja Mulam Thirunal of Travancore who honoured him as a court musician. This established him as one of the front ranking musicians of the time. Later he started giving Harikatha performances, for which he earned the name Bhagavathar. This was the time he started composing, which he would use in his Harikatha-s. </span></p><p> <span style=";font-size:100%;" >The next phase of his life was as a court musician in Mysore, from <span style="color: rgb(255, 102, 102);">1927</span>. Most of his compositions were from this period. Initially he composed mostly in Madhyakala, like  <span style="font-style: italic; color: rgb(255, 102, 102);">Shri Tyagaraja</span>. After 1931, he was influenced by Muthuswamy Dikshitar compositions and started compoing in vilambita kala. In 1936, he was again invited by <span style="font-style: italic; color: rgb(255, 102, 102);">Maharani Sethu Parvathi </span>of Travancore and he spent several years there. during that time, one of his major contributions was popularising <span style="font-style: italic; color: rgb(255, 102, 102);">Swati T</span></span><span style=";font-size:100%;" ><span style="font-style: italic; color: rgb(255, 102, 102);">irunal</span> compositions. He was also the first prinicipal of "<span style="color: rgb(255, 102, 102);">Swathi Thirunal Academy of Music</span>" there. </span></p><p> <span style=""><span style="font-size:0;"><span style="font-size:100%;">Apart from being a vocalist and composer, Muthaiah Bhagavathar was also a learned musicologist. He was actively involved in the Annual Conference of Experts conducted by The Music Academy of Madras. In 1930 he was awarded the Sangeetha Kalanidhi by the academy. He also wrote a book on the science of music, Sangeetha Kalpa Dhruma, for which he was awarded Degree of Doctorate in <span style="color: rgb(255, 102, 102);">1943 </span>by the Travancore state.</span><br /></span></span></p><p><i style="color: rgb(255, 0, 0);"><b>Teachers & Influences</b></i><span style="color: rgb(255, 0, 0);">:</span>M. Lakshamana Suri, Sambasiva Iyer, T. S. Sabesa Iyer</p><table style="margin-left: 20px;"><tbody><tr align="left" valign="top"> <td><br /></td></tr></tbody></table><table><tbody><tr align="left" valign="top"><td><i><b><span style="color: rgb(255, 0, 0);">Mudra:</span></b></i></td> <td>Harikesha</td> </tr> <tr align="left" valign="top"> <td><br /></td><td><br /></td> </tr> <tr align="left" valign="top"> <td><i><b><span style="color: rgb(255, 0, 0);">Languages used:</span><br /></b></i></td> <td>Telugu, Sanskrit</td></tr></tbody></table><i style="color: rgb(255, 0, 0);"><b><br />Genre</b></i><span style="color: rgb(255, 0, 0);"> <span style="font-style: italic; font-weight: bold;">Carnatic</span>:</span>  Krithi<br /><br /><span style="color: rgb(255, 0, 0); font-weight: bold;"><span style="font-style: italic;">Compositions</span>:</span><br /><br /><table border="1" width="710"><tbody><tr><td>Adityan Devadidevam </td> <td> Mayamalavagaula </td> <td> Adi </td> <td> Krithi</td> </tr>  <tr> <td> Ajam haram Ambikavanam </td> <td> Nilambari </td> <td> Adi </td> <td> Krithi</td> </tr>  <tr> <td> Amba mahavani </td> <td> Saraswati Manohari </td> <td> Khanda Chapu </td> <td> Krithi</td> </tr>  <tr> <td> Ambavanina </td> <td> Keeravani </td> <td> Adi </td> <td> Krithi</td> </tr>  <tr> <td> Anagham akhilandam </td> <td> Mandari </td> <td> Rupaka </td> <td> Krithi</td> </tr>  <tr> <td> Anandamana sangeetham </td> <td> Kambhoji </td> <td> Adi </td> <td> Krithi</td> </tr>  <tr> <td> Anandapuram haram </td> <td> Vijayasree </td> <td> Adi </td> <td> Krithi</td> </tr>  <tr> <td> Ananthapadmanabham </td> <td> Malahari </td> <td> Rupaka </td> <td> Krithi</td> </tr>  <tr> <td> Ananthaya sarvaya </td> <td> Bauli </td> <td> Adi </td> <td> Krithi</td> </tr>  <tr> <td> Andavan darisanamae </td> <td> Jonpuri </td> <td> Adi </td> <td> Krithi</td> </tr>  <tr> <td> Anekatame </td> <td> Vijayanagari </td> <td> Adi </td> <td> Krithi</td> </tr>  <tr> <td> Angaraka Mangalamurthye </td> <td> Ritigaula </td> <td> Rupaka </td> <td> Krithi</td> </tr>  <tr> <td> Aniswaram abhishekaram </td> <td> Charukesi </td> <td> Adi </td> <td> Krithi</td> </tr>  <tr> <td> Anthakasura subane </td> <td> Sahana </td> <td> Rupaka </td> <td> Krithi</td> </tr>  <tr> <td> Aparajithe amarasanuthe </td> <td> Kannada </td> <td> Adi </td> <td> Krithi</td> </tr>  <tr> <td> Apavarga pradam asraye </td> <td> Pasupatipriya </td> <td> Adi </td> <td> Krithi</td> </tr>  <tr> <td> Arrukkum adangada </td> <td> Begada </td> <td> Adi </td> <td> Krithi</td> </tr>  <tr> <td> Arya Devi </td> <td> Sahana </td> <td> Adi </td> <td> Krithi</td> </tr>  <tr> <td> Astamurthim sishtamurthim </td> <td> Gaulipantu </td> <td> Misra Chapu </td> <td> Krithi</td> </tr>  <tr> <td> Athisayavara </td> <td> Mandari </td> <td> Adi </td> <td> Krithi</td> </tr>  <tr> <td> Atisundaram avyaktham </td> <td> Simhendramadhyamam </td> <td> Rupaka </td> <td> Krithi</td> </tr>  <tr> <td> Avan seyalauni </td> <td> Hamirkalyani </td> <td> Adi </td> <td> Krithi</td> </tr>  <tr> <td> Bale paripahi sahu </td> <td> Begada </td> <td> Rupaka </td> <td> Krithi</td> </tr>  <tr> <td> Balochanam bhaga </td> <td> Saurashtram </td> <td> Misra Chapu </td> <td> Krithi</td> </tr>  <tr> <td> Balumo samayannu </td> <td> Sahana </td> <td> Khanda Chapu </td> <td> Varnam</td> </tr>  <tr> <td> Bhagala Deviya </td> <td> HanumaThodi </td> <td> Adi </td> <td> Krithi</td> </tr>  <tr> <td> Bhagavate rudraya </td> <td> Kurinji </td> <td> Adi </td> <td> Krithi</td> </tr>  <tr> <td> Bhajamyaham avyayam </td> <td> Nagagandhari </td> <td> Adi </td> <td> Krithi</td> </tr>  <tr> <td> Bhakthavalsala paramesvara </td> <td> Karnataka Bihag </td> <td> Rupaka </td> <td> Krithi</td> </tr>  <tr> <td> Bhandasuravimardini </td> <td> Manirang </td> <td> Rupaka </td> <td> Krithi</td> </tr>  <tr> <td> Bhargam pasupatim </td> <td> Jingla </td> <td> Misra Chapu </td> <td> Krithi</td> </tr>  <tr> <td> Bhavapasa mochakam </td> <td> Pushpalatika </td> <td> Jhampa </td> <td> Krithi</td> </tr>  <tr> <td> Bhujanga Bhushana </td> <td> Chenchukamboji </td> <td> Adi </td> <td> Krithi</td> </tr>  <tr> <td> Bhutha pataye namo </td> <td> Nagasvaravali </td> <td> Adi </td> <td> Krithi</td> </tr>  <tr> <td> Bhuvaneswari alita </td> <td> Mohanakalyani </td> <td> Adi </td> <td> Krithi</td> </tr>  <tr> <td> Bindupeetha kritavase </td> <td> Huseni </td> <td> Misra Chapu </td> <td> Krithi</td> </tr>  <tr> <td> Chakra ragarathe </td> <td> Dharmavathi </td> <td> Rupaka </td> <td> Krithi</td> </tr>  <tr> <td> Chakresi pradeepa sri </td> <td> Chakrapradeepta </td> <td> Adi </td> <td> Krithi</td> </tr>  <tr> <td> Chandamundasiraschethry </td> <td> Garudadhwani </td> <td> Rupaka </td> <td> Krithi</td> </tr>  <tr> <td> Chandrashekara vibushite </td> <td> Sankarabharanam </td> <td> Adi </td> <td> Krithi</td> </tr>  <tr> <td> Charuvikrama </td> <td> Hamsadhwani </td> <td> Adi </td> <td> Krithi</td> </tr>  <tr> <td> Chidanikunda sambhute </td> <td> Ataana </td> <td> Adi </td> <td> Krithi</td> </tr>  <tr> <td> Dakshatvaraharam </td> <td> Surutti </td> <td> Adi </td> <td> Krithi</td> </tr>  <tr> <td> Dandina Sri Chandikambe </td> <td> Salaga Bhairavi </td> <td> Adi </td> <td> Krithi</td> </tr>  <tr> <td> Devam kavachinam </td> <td> Bangala </td> <td> Adi </td> <td> Krithi</td> </tr>  <tr> <td> Devi damshrakarala </td> <td> Hamirkalyani </td> <td> Adi </td> <td> Krithi</td> </tr>  <tr> <td> Devi Gaurininna </td> <td> Gaurimanohari </td> <td> Khanda Chapu </td> <td> Krithi</td> </tr>  <tr> <td> Devi Sivadutipradae </td> <td> Punnagavarali </td> <td> Rupaka </td> <td> Krithi</td> </tr>  <tr> <td> Devi Sri Mahalakshmi </td> <td> Harinarayani </td> <td> Adi </td> <td> Krithi</td> </tr>  <tr> <td> Devidakshayani </td> <td> Balahamsa </td> <td> Rupaka </td> <td> Krithi</td> </tr>  <tr> <td> Dhirasikhamani </td> <td> Ritigaula </td> <td> Adi </td> <td> Krithi</td> </tr>  <tr> <td> Dinamani umasaga </td> <td> Mayamalavagaula </td> <td> Rupaka </td> <td> Krithi</td> </tr>  <tr> <td> Ennalu tirugu </td> <td> Mandari </td> <td> Adi </td> <td> Krithi</td> </tr>  <tr> <td> Gamanatham bhaje </td> <td> Panchamam </td> <td> Misra Chapu </td> <td> Krithi</td> </tr>  <tr> <td> Gamganapathe namo nama </td> <td> Hamsadhwani </td> <td> Rupaka </td> <td> Krithi</td> </tr>  <tr> <td> Ganesha skanda janani </td> <td> Nagabhushani </td> <td> Rupaka </td> <td> Krithi</td> </tr>  <tr> <td> Garudavahana </td> <td> Garudadhwani </td> <td> Rupaka </td> <td> Krithi</td> </tr>  <tr> <td> Giridhanvinam </td> <td> Kokiladhvani </td> <td> Adi </td> <td> Krithi</td> </tr>  <tr> <td> Girija deviya bhajisetho </td> <td> Veenadhari </td> <td> Adi </td> <td> Krithi</td> </tr>  <tr> <td> Giripriyam gangadharam </td> <td> Kathanakuthuhalam </td> <td> Adi </td> <td> Krithi</td> </tr>  <tr> <td> Girisam mahesham </td> <td> Kaanada </td> <td> Misra Chapu </td> <td> Krithi</td> </tr>  <tr> <td> Gopalanandana </td> <td> Kathanakuthuhalam </td> <td> Adi </td> <td> Krithi</td> </tr>  <tr> <td> Gurunatha </td> <td> Pushpalatika </td> <td> Khanda Chapu </td> <td> Krithi</td> </tr>  <tr> <td> Hara Maheswara </td> <td> Begada </td> <td> Adi </td> <td> Krithi</td> </tr>  <tr> <td> Harihara Mahadeva </td> <td> Jaymanohari </td> <td> Rupaka </td> <td> Krithi</td> </tr>  <tr> <td> Himagiri tanaye </td> <td> Udayaravichandrika </td> <td> Adi </td> <td> Krithi</td> </tr>  <tr> <td> Himagirisa manomani </td> <td> Isamanohari </td> <td> Adi </td> <td> Krithi</td> </tr>  <tr> <td> Ikhane tala </td> <td> Guharanjini </td> <td> Adi </td> <td> Krithi</td> </tr>  <tr> <td> Ithi vela nanne </td> <td> Kokilabhashini </td> <td> Rupaka </td> <td> Krithi</td> </tr>  <tr> <td> Jagadguru </td> <td> Gopikavasantham </td> <td> Adi </td> <td> Krithi</td> </tr>  <tr> <td> Jalandharasupeethasthe </td> <td> Valaji </td> <td> Rupaka </td> <td> Krithi</td> </tr>  <tr> <td> Jannani Ashrita </td> <td> Ratnangi </td> <td> Rupaka </td> <td> Krithi</td> </tr>  <tr> <td> Japakusuma </td> <td> Dhanyasi </td> <td> Adi </td> <td> Krithi</td> </tr>  <tr> <td> Jaya jaya basha </td> <td> Sudha Seemanthini </td> <td> Adi </td> <td> Krithi</td> </tr>  <tr> <td> Jaya Mahishasura </td> <td> Hamsadhwani </td> <td> Rupaka </td> <td> Krithi</td> </tr>  <tr> <td> Jaya Narayana </td> <td> Abhogi </td> <td> Adi </td> <td> Krithi</td> </tr>  <tr> <td> Jayadevijaganmathe </td> <td> Garuda Malhar </td> <td> Triputa </td> <td> Krithi</td> </tr>  <tr> <td> Jvaalajjihve </td> <td> Darbar </td> <td> Adi </td> <td> Krithi</td> </tr>  <tr> <td> Kadambavanavasini </td> <td> Bhoopalam </td> <td> Triputa </td> <td> Krithi</td> </tr>  <tr> <td> Kala ratri svaroopini </td> <td> Urmika/Sudha </td> <td> Adi </td> <td> Krithi</td> </tr>  <tr> <td> Kalati thaya </td> <td> Udayaravichandrika </td> <td> Adi </td> <td> Krithi</td> </tr>  <tr> <td> Kameswari Sri </td> <td> Kurinji </td> <td> Jhampa </td> <td> Krithi</td> </tr>  <tr> <td> Kandara mandala madhyaye </td> <td> Purnachandrika </td> <td> Adi </td> <td> Krithi</td> </tr>  <tr> <td> Kannan manivarnam </td> <td> Kharaharapriya </td> <td> Rupaka </td> <td> Krithi</td> </tr>  <tr> <td> Kapalinam vande </td> <td> Hindustani Kapi </td> <td> Misra Chapu </td> <td> Krithi</td> </tr>  <tr> <td> Karangulina Khotparana </td> <td> Harikamboji </td> <td> Ata </td> <td> Krithi</td> </tr>  <tr> <td> Kartyayani skandajanani </td> <td> Devamanohari </td> <td> Adi </td> <td> Krithi</td> </tr>  <tr> <td> Kausamba vasanopathe </td> <td> Karnataka Kapi </td> <td> Chapu </td> <td> Krithi</td> </tr>  <tr> <td> Khanda Paradsive </td> <td> Yadukulakambhoji </td> <td> Adi </td> <td> Krithi</td> </tr>  <tr> <td> Kripanidhe </td> <td> Hamsanandam </td> <td> Misra Chapu </td> <td> Krithi</td> </tr>  <tr> <td> Kripasagara </td> <td> Madhavamanohari </td> <td> Adi </td> <td> Krithi</td> </tr>  <tr> <td> Lalataksha namosthuthe </td> <td> Natta </td> <td> Adi </td> <td> Krithi</td> </tr>  <tr> <td> Lambodara sodara </td> <td> Mecha Kalyani </td> <td> Eka </td> <td> Krithi</td> </tr>  <tr> <td> Lambodhara Mahaganesa </td> <td> Navarasa Kannada </td> <td> Misra Chapu </td> <td> Krithi</td> </tr>  <tr> <td> Madhu kaitabha </td> <td> Arabhi </td> <td> Rupaka </td> <td> Krithi</td> </tr>  <tr> <td> Madjurapura nayike </td> <td> Chakravakam </td> <td> Adi </td> <td> Krithi</td> </tr>  <tr> <td> Mahabala girisam </td> <td> Saranga </td> <td> Chapu </td> <td> Krithi</td> </tr>  <tr> <td> Mahabaladri nilaye </td> <td> Ramapriya </td> <td> Adi </td> <td> Krithi</td> </tr>  <tr> <td> Mahabaleswara vibho </td> <td> Saranga </td> <td> Rupaka </td> <td> Krithi</td> </tr>  <tr> <td> Mahadevam </td> <td> Narayani </td> <td> Adi </td> <td> Krithi</td> </tr>  <tr> <td> Mahaganapathe dehi </td> <td> Malahari </td> <td> Rupaka </td> <td> Krithi</td> </tr>  <tr> <td> Maharajani mahalakshmi </td> <td> Amritavarshini </td> <td> Triputa </td> <td> Krithi</td> </tr>  <tr> <td> Mahatripura Sundar </td> <td> Purnachandrika </td> <td> Rupaka </td> <td> Krithi</td> </tr>  <tr> <td> Mahavishnusodari </td> <td> Anandabhairavi </td> <td> Adi </td> <td> Krithi</td> </tr>  <tr> <td> Mahishasura </td> <td> Andolika </td> <td> Adi </td> <td> Varna</td> </tr>  <tr> <td> Manadira kisainda </td> <td> Sankarabharanam </td> <td> Adi </td> <td> Krithi</td> </tr>  <tr> <td> Manamadanguvade </td> <td> HanumaThodi </td> <td> Adi </td> <td> Krithi</td> </tr>  <tr> <td> Manamu kavalannu </td> <td> Sahana </td> <td> Rupaka </td> <td> Krithi</td> </tr>  <tr> <td> Manas sastvasraye </td> <td> Shanmukhapriya </td> <td> Adi </td> <td> Krithi</td> </tr>  <tr> <td> Manasija janaka </td> <td> Panchamam </td> <td> Adi </td> <td> Krithi</td> </tr>  <tr> <td> Manasukaragi </td> <td> Megharanjini </td> <td> Adi </td> <td> Krithi</td> </tr>  <tr> <td> Mangalam pongidum </td> <td> Maand </td> <td> Adi </td> <td> Krithi</td> </tr>  <tr> <td> Mangalaroopiniye </td> <td> Jonpuri </td> <td> Adi </td> <td> Krithi</td> </tr>  <tr> <td> Manonmani </td> <td> Subhapanthuvarali </td> <td> Adi </td> <td> Krithi</td> </tr>  <tr> <td> Mantrini matangatanaye </td> <td> Hemavathi </td> <td> Adi </td> <td> Krithi</td> </tr>  <tr> <td> Marakathamanichaye </td> <td> Saindhavi </td> <td> Rupaka </td> <td> Krithi</td> </tr>  <tr> <td> Mavoor valar maharani </td> <td> Jonpuri </td> <td> Adi </td> <td> Krithi</td> </tr>  <tr> <td> Mavur valamperuga </td> <td> Sindhubhairavi </td> <td> Adi </td> <td> Krithi</td> </tr>  <tr> <td> Meenalochani Amba </td> <td> HanumaThodi </td> <td> Rupaka </td> <td> Krithi</td> </tr>  <tr> <td> Moovasaikonde </td> <td> Kharaharapriya </td> <td> Adi </td> <td> Krithi</td> </tr>  <tr> <td> Mrigapane </td> <td> Bhairavi </td> <td> Rupaka </td> <td> Krithi</td> </tr>  <tr> <td> Mrithuynjayam mridam </td> <td> Ramapriya </td> <td> Khanda Chapu </td> <td> Krithi</td> </tr>  <tr> <td> Mula prakrithi rupe </td> <td> Saveri </td> <td> Adi </td> <td> Krithi</td> </tr>  <tr> <td> Muruganukku oeru </td> <td> Mecha Kalyani </td> <td> Adi </td> <td> Krithi</td> </tr>  <tr> <td> Na punyamu gada </td> <td> Keeravani </td> <td> Adi </td> <td> Krithi</td> </tr>  <tr> <td> Namo hirayana </td> <td> Mangalakaisiki </td> <td> Adi </td> <td> Krithi</td> </tr>  <tr> <td> Nava lavanya rupadhaye </td> <td> Hindolam </td> <td> Rupaka </td> <td> Krithi</td> </tr>  <tr> <td> Navakshara manusutha </td> <td> Navarathnavilasam </td> <td> Adi </td> <td> Krithi</td> </tr>  <tr> <td> Navaratrotsava </td> <td> Alankari </td> <td> Rupaka </td> <td> Krithi</td> </tr>  <tr> <td> Navavarana sampoojaye </td> <td> Guharanjini </td> <td> Adi </td> <td> Krithi</td> </tr>  <tr> <td> Nee padamulanu </td> <td> Natabhairavi </td> <td> Adi </td> <td> Krithi</td> </tr>  <tr> <td> Needu mahima </td> <td> Hamsanandi </td> <td> Adi </td> <td> Krithi</td> </tr>  <tr> <td> Ni bhaianana </td> <td> Kambhoji </td> <td> Adi </td> <td> Krithi</td> </tr>  <tr> <td> Ni padame gathiyanu </td> <td> Bhairavi </td> <td> Adi </td> <td> Krithi</td> </tr>  <tr> <td> Nilalohita </td> <td> Malavi </td> <td> Adi </td> <td> Krithi</td> </tr>  <tr> <td> Nilayatakshi nive </td> <td> Vijayasree </td> <td> Rupaka </td> <td> Krithi</td> </tr>  <tr> <td> Ninnu nammi nanu </td> <td> Abhogi </td> <td> Eka </td> <td> Krithi</td> </tr>  <tr> <td> Nityakinne nishkalanke </td> <td> Nattakurinji </td> <td> Adi </td> <td> Krithi</td> </tr>  <tr> <td> Pachiyana turumeni </td> <td> HanumaThodi </td> <td> Adi </td> <td> Krithi</td> </tr>  <tr> <td> Panchasyayane </td> <td> Kaanada </td> <td> Khanda Chapu </td> <td> Krithi</td> </tr>  <tr> <td> Panchavakthramasraye </td> <td> Hamsadeepakam </td> <td> Adi </td> <td> Krithi</td> </tr>  <tr> <td> Pankajanabam </td> <td> Mecha Kalyani </td> <td> Adi </td> <td> Krithi</td> </tr>  <tr> <td> Parama mangalate </td> <td> Dvijayanti </td> <td> Chapu </td> <td> Krithi</td> </tr>  <tr> <td> Paramapavanane </td> <td> Megharanjini </td> <td> Rupaka </td> <td> Krithi</td> </tr>  <tr> <td> Paramapurusha </td> <td> Paadi </td> <td> Adi </td> <td> Krithi</td> </tr>  <tr> <td> Parasu hasthaya </td> <td> Navarasa Kannada </td> <td> Rupaka </td> <td> Krithi</td> </tr>  <tr> <td> Paripurna paratpara </td> <td> Kuntalavarali </td> <td> Adi </td> <td> Krithi</td> </tr>  <tr> <td> Pasupathe namosthuthe </td> <td> Saindhavi </td> <td> Adi </td> <td> Krithi</td> </tr>  <tr> <td> Pasupathi padasevaname </td> <td> Mecha Kalyani </td> <td> Adi </td> <td> Krithi</td> </tr>  <tr> <td> Pasupathimugram </td> <td> Arabhi </td> <td> Khanda Chapu </td> <td> Krithi</td> </tr>  <tr> <td> Pasupatipriya sati </td> <td> Pasupatipriya </td> <td> Rupaka </td> <td> Krithi</td> </tr>  <tr> <td> Pinakine maha prabhave </td> <td> Brindavanasaranga </td> <td> d </td> <td> Krithi</td> </tr>  <tr> <td> Purandara vinuthe </td> <td> Purvikalyani </td> <td> Triputa </td> <td> Krithi</td> </tr>  <tr> <td> Purarthaye namo </td> <td> Hindolam </td> <td> Adi </td> <td> Krithi</td> </tr>  <tr> <td> Purusham pushadante </td> <td> Devamanohari </td> <td> Adi </td> <td> Krithi</td> </tr>  <tr> <td> Rajarajeswari </td> <td> Garudadhwani </td> <td> Adi </td> <td> Krithi</td> </tr>  <tr> <td> Rathnabhushani </td> <td> Yadukulakambhoji </td> <td> Adi </td> <td> Krithi</td> </tr>  <tr> <td> Ratnakanjukadarini </td> <td> Kambhoji </td> <td> Misra Chapu </td> <td> Krithi</td> </tr>  <tr> <td> Rohineeyam </td> <td> Surutti </td> <td> Khanda Chapu </td> <td> Krithi</td> </tr>  <tr> <td> Rundamala lasat </td> <td> Bhushavali </td> <td> Adi </td> <td> Krithi</td> </tr>  <tr> <td> Sachamara Ramavani </td> <td> Hamsanandi </td> <td> Rupaka </td> <td> Krithi</td> </tr>  <tr> <td> Sachidananda vigrahe </td> <td> Devagandhari </td> <td> Chapu </td> <td> Padam</td> </tr>  <tr> <td> Sahajaguna Rama </td> <td> Sankarabharanam </td> <td> Adi </td> <td> Krithi</td> </tr>  <tr> <td> Sahasra sirsha </td> <td> Sudha Lalitha </td> <td> Jhampa </td> <td> Krithi</td> </tr>  <tr> <td> Sahasrakara manadithe </td> <td> Vachaspathi </td> <td> Adi </td> <td> Krithi</td> </tr>  <tr> <td> Sahasraksham sambhavam </td> <td> Nayaki </td> <td> Rupaka </td> <td> Krithi</td> </tr>  <tr> <td> Sahasrapadam </td> <td> Kedaram </td> <td> Misra Chapu </td> <td> Krithi</td> </tr>  <tr> <td> Sainapriya Sivasankara </td> <td> Sama </td> <td> Adi </td> <td> Krithi</td> </tr>  <tr> <td> Sakala sampatprade </td> <td> Ritigaula </td> <td> Jhampa </td> <td> Krithi</td> </tr>  <tr> <td> Saketha Bhupathe </td> <td> Mukhari </td> <td> Adi </td> <td> Krithi</td> </tr>  <tr> <td> Sakthi Vinayaka </td> <td> Sriranjini </td> <td> Adi </td> <td> Krithi</td> </tr>  <tr> <td> Samayamide nannu </td> <td> Budhamanohari </td> <td> Adi </td> <td> Krithi</td> </tr>  <tr> <td> Sampathprade </td> <td> Mecha Kalyani </td> <td> Adi </td> <td> Krithi</td> </tr>  <tr> <td> Sankara gangadhara </td> <td> Sudha Saveri </td> <td> Adi </td> <td> Krithi</td> </tr>  <tr> <td> Sankarisathodari </td> <td> Gaula </td> <td> Adi </td> <td> Krithi</td> </tr>  <tr> <td> Sannutangi </td> <td> Vasantha </td> <td> Adi </td> <td> Varna</td> </tr>  <tr> <td> Sarasakshi ni </td> <td> Mecha Kalyani </td> <td> Ata </td> <td> Krithi</td> </tr>  <tr> <td> Sarasamukhi </td> <td> Garuda Malhar </td> <td> Adi </td> <td> Krithi</td> </tr>  <tr> <td> Saraswatidevi </td> <td> Saraswati Manohari </td> <td> Rupaka </td> <td> Krithi</td> </tr>  <tr> <td> Saravanabhava </td> <td> Pasupatipriya </td> <td> Adi </td> <td> Krithi</td> </tr>  <tr> <td> Sarva mangala rupadhye </td> <td> Paras </td> <td> Misra Chapu </td> <td> Krithi</td> </tr>  <tr> <td> Sarvajna Samba </td> <td> Ravichandrika </td> <td> Rupaka </td> <td> Krithi</td> </tr>  <tr> <td> Sarvjagatvyapanam </td> <td> Manorama </td> <td> Adi </td> <td> Krithi</td> </tr>  <tr> <td> Sasisekhara </td> <td> Purnachandrika </td> <td> Adi </td> <td> Krithi</td> </tr>  <tr> <td> Sathvikam sankaram </td> <td> Amritavarshini </td> <td> Khanda Chapu </td> <td> Krithi</td> </tr>  <tr> <td> Satideviye </td> <td> Shanmukhapriya </td> <td> Adi </td> <td> Krithi</td> </tr>  <tr> <td> Sharanam vijaya </td> <td> Vijayasaraswati </td> <td> Adi </td> <td> Krithi</td> </tr>  <tr> <td> Siddhi Vinayakom </td> <td> Mohanakalyani </td> <td> Adi </td> <td> Krithi</td> </tr>  <tr> <td> Sikhivahana </td> <td> Hamsadeepakam </td> <td> Adi </td> <td> Krithi</td> </tr>  <tr> <td> Simhavahana Amba </td> <td> Simhavahini </td> <td> Rupaka </td> <td> Krithi</td> </tr>  <tr> <td> Siva mahasena janaka </td> <td> Vasantha </td> <td> Khanda Chapu </td> <td> Krithi</td> </tr>  <tr> <td> Siva siva sambho </td> <td> Mecha Kalyani </td> <td> Adi </td> <td> Krithi</td> </tr>  <tr> <td> Sivam vrishbharudram </td> <td> Mohanakalyani </td> <td> Khanda Chapu </td> <td> Krithi</td> </tr>  <tr> <td> Sivapriya </td> <td> Sriranjini </td> <td> Rupaka </td> <td> Krithi</td> </tr>  <tr> <td> Sivaramaya sugunalaya </td> <td> Keeravani </td> <td> Rupaka </td> <td> Krithi</td> </tr>  <tr> <td> Somasundara </td> <td> Sarasangi </td> <td> Adi </td> <td> Krithi</td> </tr>  <tr> <td> Somasuryagni </td> <td> Hamsanandi </td> <td> Misra Chapu </td> <td> Krithi</td> </tr>  <tr> <td> Sri Anjaneya </td> <td> Jaymanohari </td> <td> Adi </td> <td> Krithi</td> </tr>  <tr> <td> Sri bhargavam </td> <td> Sri </td> <td> Adi </td> <td> Krithi</td> </tr>  <tr> <td> Sri bhavamchinmayam </td> <td> Garudadhwani </td> <td> Misra Chapu </td> <td> Krithi</td> </tr>  <tr> <td> Sri karijaya </td> <td> Sri </td> <td> Adi </td> <td> Krithi</td> </tr>  <tr> <td> Sri mahabala saila </td> <td> Sudha Saveri </td> <td> Adi </td> <td> Varnam</td> </tr>  <tr> <td> Sri Mahaganapathe </td> <td> Kambhoji </td> <td> Ata </td> <td> Varnam</td> </tr>  <tr> <td> Sri Mahishasuramardini </td> <td> Hamsagamani </td> <td> Rupaka </td> <td> Krithi</td> </tr>  <tr> <td> Sri Parameswara </td> <td> Madhyamavathi </td> <td> Adi </td> <td> Krithi</td> </tr>  <tr> <td> Sri Raghuvara chinmaya </td> <td> Nayaki </td> <td> Adi </td> <td> Krithi</td> </tr>  <tr> <td> Sri Raja Raja varade </td> <td> Saurashtram </td> <td> Rupaka </td> <td> Krithi</td> </tr>  <tr> <td> Sri rajamatangi </td> <td> Udayaravichandrika </td> <td> Adi </td> <td> Varna</td> </tr>  <tr> <td> Sri Rama kodandarama </td> <td> Bhairavi </td> <td> Misra Chapu </td> <td> Krithi</td> </tr>  <tr> <td> Sri Sailabrahmambika </td> <td> Kamalamanohari </td> <td> Rupaka </td> <td> Krithi</td> </tr>  <tr> <td> Sri Sambasiva sadguru </td> <td> Gurupriya </td> <td> Khanda Chapu </td> <td> Krithi</td> </tr>  <tr> <td> Sri Sambasivaiya </td> <td> Suryakantham </td> <td> Rupaka </td> <td> Krithi</td> </tr>  <tr> <td> Sri Shuba Devi </td> <td> Jaganmohini </td> <td> Rupaka </td> <td> Krithi</td> </tr>  <tr> <td> Sri Sive jaya vaibhave </td> <td> Abhogi </td> <td> Adi </td> <td> Krithi</td> </tr>  <tr> <td> Sri trilokesam </td> <td> Saveri </td> <td> Khanda Chapu </td> <td> Krithi</td> </tr>  <tr> <td> Sri Virabhadram </td> <td> Kannada </td> <td> Adi </td> <td> Krithi</td> </tr>  <tr> <td> Sri Virupaksha </td> <td> Gauri </td> <td> Khanda Chapu </td> <td> Krithi</td> </tr>  <tr> <td> Sri Vishweswara </td> <td> Harikamboji </td> <td> Adi </td> <td> Krithi</td> </tr>  <tr> <td> Srichakrapuravasini </td> <td> Gamanasrama </td> <td> Adi </td> <td> Krithi</td> </tr>  <tr> <td> Srichakravara </td> <td> Janaranjani </td> <td> Adi </td> <td> Krithi</td> </tr>  <tr> <td> Srikanda dayanide </td> <td> Malavi </td> <td> Rupaka </td> <td> Krithi</td> </tr>  <tr> <td> Srikantha dayanidhe </td> <td> Salaga Bhairavi </td> <td> Rupaka </td> <td> Krithi</td> </tr>  <tr> <td> Srimad Simhasaneswari </td> <td> Sudha Saveri </td> <td> Adi </td> <td> Krithi</td> </tr>  <tr> <td> Srimad Tripurasundari </td> <td> Madhyamavathi </td> <td> Adi </td> <td> Krithi</td> </tr>  <tr> <td> Srirama jayabhauma </td> <td> Madhyamavathi </td> <td> Adi </td> <td> Krithi</td> </tr>  <tr> <td> Srisa raravanabhavuni </td> <td> Sumanpriya </td> <td> Adi </td> <td> Krithi</td> </tr>  <tr> <td> Sritrayimurte </td> <td> Jayanarayani </td> <td> Rupaka </td> <td> Krithi</td> </tr>  <tr> <td> Sudhamayi sudhanidhi </td> <td> Amritavarshini </td> <td> Rupaka </td> <td> Krithi</td> </tr>  <tr> <td> Sukshmathanum </td> <td> Hindola Vasantha </td> <td> Khanda Chapu </td> <td> Krithi</td> </tr>  <tr> <td> Suryacharagni </td> <td> Sriranjini </td> <td> Rupaka </td> <td> Krithi</td> </tr>  <tr> <td> Tappa mannisotaye </td> <td> Mayapradeepa </td> <td> Adi </td> <td> Krithi</td> </tr>  <tr> <td> Tappulanaiyu </td> <td> Bauli </td> <td> Rupaka </td> <td> Krithi</td> </tr>  <tr> <td> Taraka nama </td> <td> Mayamalavagaula </td> <td> Adi </td> <td> Krithi</td> </tr>  <tr> <td> Teliyakane </td> <td> Huseni </td> <td> Rupaka </td> <td> Krithi</td> </tr>  <tr> <td> Thaiyidhathil anbiiatha </td> <td> Jonpuri </td> <td> Eka </td> <td> Krithi</td> </tr>  <tr> <td> Tharakamsivan </td> <td> Sriranjini </td> <td> Adi </td> <td> Krithi</td> </tr>  <tr> <td> Thim Thathim </td> <td> Hamsanandi </td> <td> Adi </td> <td> Tillana</td> </tr>  <tr> <td> Thodu nida nive </td> <td> Punnagavarali </td> <td> Adi </td> <td> Krithi</td> </tr>  <tr> <td> Thom tha thom </td> <td> Kaanada </td> <td> Adi </td> <td> Thillana</td> </tr>  <tr> <td> Thyagaraja sadguruvai </td> <td> Hindolam </td> <td> Adi </td> <td> Krithi</td> </tr>  <tr> <td> Tripuranthaka deva </td> <td> Hindusthani Behag </td> <td> Adi </td> <td> Krithi</td> </tr>  <tr> <td> Umadeva mahanubhava </td> <td> Mohana </td> <td> Adi </td> <td> Krithi</td> </tr>  <tr> <td> Urraya Avyak taya </td> <td> Dharmavathi </td> <td> Rupaka </td> <td> Krithi</td> </tr>  <tr> <td> Vageeswari </td> <td> Saraswati </td> <td> Adi </td> <td> Krithi</td> </tr>  <tr> <td> Vajresi mathe </td> <td> Andolika </td> <td> Adi </td> <td> Krithi</td> </tr>  <tr> <td> Valli nayaka </td> <td> Shanmukhapriya </td> <td> Adi </td> <td> Krithi</td> </tr>  <tr> <td> Vanchadomune </td> <td> Karnaranjini </td> <td> Triputa </td> <td> Krithi</td> </tr>  <tr> <td> Vani nityakalyani </td> <td> Saraswati Manohari </td> <td> Adi </td> <td> Krithi</td> </tr>  <tr> <td> Vaninivasini </td> <td> Kedaram </td> <td> Rupaka </td> <td> Krithi</td> </tr>  <tr> <td> Vedamathe vedavinuthe </td> <td> Natta </td> <td> Adi </td> <td> Krithi</td> </tr>  <tr> <td> Vijayambika </td> <td> Vijayanagari </td> <td> Adi </td> <td> Krithi</td> </tr>  <tr> <td> Vindhyachala nivasini </td> <td> Narayanagaula </td> <td> Triputa </td> <td> Krithi</td> </tr>  <tr> <td> Vyomakesam namami </td> <td> Andolika </td> <td> Triputa </td> <td> Krithi</td> </tr>  <tr> <td> Yagnamayum Sankaran </td> <td> Bhavapriya </td> <td> Rupaka </td> <td> Krithi</td> </tr>  <tr> <td> Yogini Ganasevitha </td> <td> Vanaspathi </td> <td> Adi </td> <td> Krithi</td></tr></tbody></table>
p3
sVkind
p4
Vblogger#post
p5
sVlabels
p6
(lp7
VBiography
p8
aVCarnatic
p9
aVClassical
p10
aVComposers
p11
aVList of Carnatic Composers
p12
aVPost Trinity
p13
aVWorks
p14
asVtitle
p15
VMuthaiah Bhagavathar (1877 - 1945) Biography and Works
p16
sVurl
p17
Vhttp://musicinfoguide.blogspot.com/2007/08/muthaiah-bhagavathar-biography-1877.html
p18
sVauthor
p19
(dp20
Vurl
p21
Vhttp://www.blogger.com/profile/16942048825081160415
p22
sVimage
p23
(dp24
Vurl
p25
Vhttp://4.bp.blogspot.com/-ZmH5ruRqlG8/U4uhsUsZ6NI/AAAAAAAAAPw/klEX3rcGsto/s45/*
p26
ssVdisplayName
p27
VKarthik Subramany
p28
sVid
p29
V16942048825081160415
p30
ssVupdated
p31
V2008-08-04T23:18:11-07:00
p32
sVreplies
p33
(dp34
VtotalItems
p35
V2
sVselfLink
p36
Vhttps://www.googleapis.com/blogger/v3/blogs/3207072992206519076/posts/6007044931051181411/comments
p37
ssVblog
p38
(dp39
Vid
p40
V3207072992206519076
p41
ssVpublished
p42
V2007-08-16T22:02:00-07:00
p43
sVid
p44
V6007044931051181411
p45
sVselfLink
p46
Vhttps://www.googleapis.com/blogger/v3/blogs/3207072992206519076/posts/6007044931051181411
p47
s.