(dp1
Vcontent
p2
V<a href="http://bp1.blogger.com/_izbXUVoYKD4/Rr8k8pNe9CI/AAAAAAAAAAs/M3ju00hf13k/s1600-h/dikshitar.jpg"><img id="BLOGGER_PHOTO_ID_5097833927479850018" style="FLOAT: right; MARGIN: 0px 0px 10px 10px; CURSOR: hand" alt="" src="http://bp1.blogger.com/_izbXUVoYKD4/Rr8k8pNe9CI/AAAAAAAAAAs/M3ju00hf13k/s400/dikshitar.jpg" border="0" /></a><br /><br /><span style="font-size:100%;">                                                                                           </span><br /><span style="font-size:100%;"><span style="font-size:130%;"><strong><span style="font-family:times new roman;color:#ff0000;">Muttusvami Dikshitar</span></strong> (<span style="color:#3333ff;">1775-1835</span>)</span> - The youngest of the Carnatic Musical Trinity was born in 1776, brought up with 2 brothers and a sister with great care and acquiring proficiency in both music and Sanskrit. His family moved to Manali, where he became a disciple of Cidambaranaata Yogi and went to Varanaasi. For 5 years he stayed there and learned Hindustani music, especially the Dhrupad style of music. After his guru died, he returned to the south and came to the holy shrine of Tiruttani to pray and meditate before Lord Subramanya. One day the Lord appeared to him, asked him to open his mouth, placed a piece of sugar candy in his mouth, and disappeared. After this, Dikshitar began composing beautiful kritis. The first piece he sang was "ShreenataDi guruguhO jayati jayati." Then he went to Kaanceepuram and sang songs in praise of Ekaambaratanaata and Kaamaakshi. He visited various temples to compose songs, from the TaamrapaaNi River (Shree kaantimateem) and Rameshwaram (Raamanaatham bhajEham) to Kaasi (Kaasi visaalakshi). Then he returned to Tiruvaaroor, where he gathered disciples and taught them his composition. His brothers became proficient at rendering his compositions as well and went to Madurai to teach these songs. Once, because of poverty, Dikshitar did not have the means to make his offerings to the deity. His disciple, the famous dancer Kamalam, offered to pledge her jewels and raise the money. He refused and composed "Tyaagaraajam bhajarE," trusting in God. Soon 2 cartloads of food and articles reached his house as a gift from the manager of the choultry. After the death of his brother Cinnaswaami, his brother Baalaswaami left and was made a Samastaana Vidwaan at ETTayapuram in 1824. Dikshitar left to meet his suriving brother, and on the way fervently sang "Aanandaamruta" in amritavarshini, seeing the dry condition of the land. Apparently, there was a heavy downpour soon afterward. Dikshitar met his brother and attended his marriage as well. Then he returned to Tiuvaaroor. His group kritis include the navagraha kritis in praise of the 7 principal planets and the Kamalaambaa navaavarana kritis - 9 songs in praise of the deity of Tiruvaaroor. He also composed small kritis with SamaashTi caraNams (which include both Anupallavi and CaraNam). 461 songs in 191 raagams are available today. He used characteristic phrases of raagam and was a master of rhyme. He often chose a slow tempo. In 1835 he went to ETTaiyapuram to attend a marriage in the royal family and stayed there. "Meenaakshi mE mudam" is supposed to be one of his last compositions, created in Madurai on his way to ETTaiyapuram, where he passed away on October 21, 1835</span><br /><span style="font-size:100%;"><br /><span style="color:#ff0000;">Early years</span><br /><br />Consistent with the education of Brahmin boys of that time, Muttuswami learnt the Vedas, Sanskrit and other important religious texts. He also obtained his preliminary musical education from his father. While he was still in his teens, his father sent him on a pilgrimage with a wandering monk named Chidambaranatha Yogi, to gain musical and philosophical knowledgde. Over the course of this pilgrimage, he visited many places in North India, and acquired a broad outlook that is reflected in many of his compositions. During their stay in Kashi (Varanasi), his guru Chidambarantha Yogi, presented him with a unique Vina, and passed away shortly thereafter. The Samadhi of Chidambaranatha Yogi can still be seen in the Hanuman Ghat area in Varanasi.<br />Muttuswami Dikshitar attained mastery over the Vina instrument, and the influence of Vina playing is evident in his compositions. He composed his first song "Sri nathadhi guruguho" in the Raga Maya-malava-gowla, in the temple of Tiruttani (near present day Chennai). The song was in praise of his Guru, but also in praise of the Lord Subramanya, who is identified with the concept of a "teacher" or guru in the Hindu theology.               <br /><br /><span style="color:#ff0000;">Contribution </span><br /><br />Muthuswami Dikshitar, it is said, composed his first kriti after having a vision of Lord Subramanya, his favourite deity. He composed the Vara kritis, which are seven in number, one for each day of the week. These are set to the Sooladi Sapta talas. Drawing inspiration from Oothukadu Venkata Kavi, he also composed the Navavarana kritis in praise of Devi (Kamalamba), one for each of the nine days of the Navaratri festival. Being a widely travelled man, he composed several songs in many Hindustani ragas. His songs are normally slow in tempo and bring out the depth and beauty of the raga using ornamentation (gamakas). He also used what is known as Madhyamakala (medium tempo) Sahitya very effectively in his compositions.<br /><br /><span style="color:#ff0000;">Theme</span><br /><br />That he was a much-travelled man is reflected in his compositions. Most of them contain descriptions about famous temples and their chief deities. There are also several others based on Vedas, Upanishads, Tantra, etc.<br /><br /><span style="color:#ff0000;">Languages used</span><br />Mostly Sanskrit and a few in Telugu. He has also composed Manipravala kritis, which is a mixture of two or more languages.<br /><br /><span style="color:#ff0000;">Signature</span>: His signature or mudra is Guruguha, which is another name for Lord Subramanya.<br /><br /><span style="color:#ff0000;">Mudra</span>: Guruguha<br /><br /><span style="color:#ff0000;">Popular kritis</span>: Vatapi Ganapatim (Hamsadhwani), Annapoorne (Sama), Kanjadalayatakshi (Kamalamanohari) and so on.<br /><br /><strong><span style="color:#ff0000;">Compositions Of Muthuswamy Dikshitar (1776-1827)</span></strong><br /><br />These compositions are ordered by Ragam classified by mela. These are followed by the song title, specific janya ragam, and the talam. If you are looking for a particular song in this massive list, I can offer you two suggestions: 1)Hit CTRL+F or go to the edit menu and select find on your browser and enter the contexts you would like to search for.<br /><br /><span style="color:#ff0000;">Melakartas:</span><br /><span style="color:#ff0000;"></span><br />1. Kanakambari - Kanakahngi<br /><br />Kanakambari Karunyamrta Lahari - Kanakambari - Rupakam Akhilandeshvaro Raksatu - Shuddha Saveri - Rupakam<br />Ekamreshanayike - Shuddha Saveri - Adi<br />Muraharena Mukundea - Shuddhamukhari - Rupakam<br /><br />2. Phenadyuti - Ratnangi<br /><br />Shri Daksinamurtimisham - Phenadyuti - Adi<br /><br />3. Ganasamavarali - Ganamurti<br /><br />Brhadishvaro Raksatumam - Ganasamavarali - Rupakam Parameshvarena - Purvavarali - Adi<br />Matsyavatara Mamava - Bhinnapahngamam -Adi<br /><br />4. Bhanumati - Vanaspati<br /><br />Guruguhasvamini - Bhanumati - Khanda Triputa Talam<br />Brhadamba Madamba - Bhanumati - Adi<br /><br />5. Manorahnjani - Manavati<br />Balambike Pahi - Manorahnjani - Matyam<br /><br />6. Tanukirti - Tanarupi Cidambara Natarajamurtim - Tanukirti - Mishra Capu<br /><br />7. Senagrani - Senavati<br />Jhnanambike Palaya Mam - Senagrani - Tishra Ekam<br /><br />8. Janatodi - HanumatodiTodi - Rupakam Todi - Rupakam Mahaganapatim Vande - Todi - Rupakam Palaya Mam Brhadishvari - Todi - Rupakam Ramacandraya - Todi - Mishra Capu Vedaranyeshvaraya - Todi - Adi Shri Krsnam Bhaja Manasa - Todi - Adi Shri Subrahmanyo Mam Raksatu - Todi - Adi Kumarasvaminam - Asaveri - Adi Candram Bhaja Manasa - Asaveri - Caturashra Matyam Ganalole - Nagavarali - Mishra Capu Ehi Annapurne- Punnagavarali - Adi Kamalambikayastava Bhaktoham - Punnagavarali - Rupakam<br /><br />9. Dhunibhinnasadjam - DhenukaCidambareshvam - Dhunibhinnasadjam - Adi Shri Guruguhamurte - Udayaravicandrika - Rupakam Sadacaleshvaram Bhavaye - Bhupalam - Adi Mohananataragapriye Lalite - Mohananata - Adi<br /><br />10. Natabharanam - NatakapriyaVishvanatham Bhajeham - Natabharanam - Adi<br /><br />11. Kokilaravam - KokilapriyaKodandaramam - Kokilaravam - Adi<br /><br />12. RupavatiShri Krsnam Bhajare - Rupavati - Tishra Ekam<br /><br />13. Geyahejjajji - GayakapriyaRamacandrabhaktam - Geyahejjajji - Adi<br /><br />14. Vativasantabhairavi - VakulabharanamPrasannavehnkatesham - Vativasantabhairavi - Triputa Brhadishvarim Bhajare - Lalitapahncamam - Adi<br /><br />15. MayamalavagaulaNilotpalambikayastava - Mayamalavagaula - Mishra Capu Shri Nathadi Guruguho Jayati - Mayamalavagaula - Adi Shri Ganeshatparam - Ardradeshi - Jhampa Agastishvaram - Lalita - Mishra Capu Hiranmayim Laksmim - Lalita - Rupakam Renukadevi - Kannada Bahngala - Mishra Jhampa Gunijanadi - Gujjari - Adi Rajarajendra - Gundakriya - Triputa Tyagaraja Palaya - Gaula - Adi Nilotpalambikayah Param - Gaula - Rupakam Mahisasuramardini - Gaula - Khanda Capu Shri Mahaganapati- Gaula - Mishra Capu Krsnananda Mukundamurare - Gaulipantu - Mishra Capu Gauri Girirajakumari - Gauri - Rupakam Shri Minaksi Gauri - Gauri - Rupakam Nilotpalambike - Chayagaula - Rupakam Sarasvatya Bhagavatya Samraksitoham - Chayagaula - Mishra Capu Namaste Paradevate - Devarahnji - Tishra Ekam Sundaramurtim Ashrayami - Takka - Rupakam Nilakanthaya - Nadanamakriya - Mishra Capu Pratyahngirabhagavatim - Nadanamakriya - Mishra Capu Shri Guruna Palitosmi- Padi - Rupakam Cintaye Mahalihnga - Pharaj - Adi Madhuramba Jayati - Pharaj - Mishra Capu Mahalihngeshvaram - Pharaj - Adi Shri Shukrabhagavantam- Pharaj - Khanda Ata Sadhujanacitta Sarasijodayam - Purnapahncamam - Triputa Shri Guruguhasya Dasoham - Purvi - Mishra Capu Shri Parvatiparameshvarau Vande- Bauli - Adi Shri Bhargavi - Mahngalakaishiki - Mishra Capu Pahncamatahngamukha Ganapatina - Malahari - Rupakam Vighineshvaram - Malahari - Adi Vasudevamupasmahe - Malavapahncamam - Rupakam Maruvakadi Malini Sulini - Maruva - Adi Mahngaladevate Paradevate - Margadeshi - Adi Vehnkateshvara Yadava Bhupatim - Megharahnjani - Rupakam Govindarajena Raksitoham - Mecabauli - Rupakam Rama Rama - Ramakali - Rupakam Sharavanabhava - Revagupti - Rupakam Sadavinathasadare - Revagupti - Rupakam Nilakantha - Vasanta - Rupakam Brhadambikayai - Vasanta - Mishra Capu Marakatalihngam - Vasanta - Adi Ramacandram Bhavayami - Vasanta - Rupakam Hariharaputram- Vasanta - Khanda Ekam Avyajakarunakataksi - Salahnganata - Tishra Triputa Karikalabhamukham- Saveri - Rupakam Shri Rajagopala - Saveri - Adi Gokarneshvara - Saurastram - Adi Varalaksmim - Saurastram - Adi Suryamurte Namostute- Saurastram - Caturashra Dhruvam<br /><br />16. Toyavegavahini - CakravakamKailasanatham - Vegavahini - Adi Gajananayutam - Vegavahini - Caturashra Ekam Varahim Vaisnavim - Vegavahini - Mishra Capu Vinayaka Vihna - Vegavahini - Rupakam Vinapustakadharinim - Vegavahini - Khanda Ekam<br /><br />17. Chayavati - SuryakantamChayavatim Anandavallim - Chayavati - Adi<br /><br />18. Jayashuddhamalavi - HatakambariNaraharimashrayami - Jayashuddhamalavi - Triputa<br /><br />19. Jhahnkarabhramari - JhahnkaradhvaniHimacalakumarim Bhaje - Jhahnkarabhramari - Rupakam<br /><br />20. Nariritigaula - NatabhairaviNilotpalambam- Nariritigaula - Mishra Capu Shri Nilotpalanayike - Nariritigaula - Rupakam Abhayamba Nayaka Harisayaka - Anandabhairavi - Adi Anandeshvarena - Anandabhairavi - Mishra Capu Kamalamba Samraksatu Mam- Anandabhairavi - Mishra Capu Tyagarajayogavaibhavam - Anandabhairavi - Rupakam Dandayudhapanim - Anandabhairavi - Rupakam Paradevate - Anandabhairavi - Adi Manasa Guruguha - Anandabhairavi - Rupakam Sami Ni - Anandabhairavi - Adi Vinabheri- Abheri - Adi Kusumakara - Ahiri - Adi Shri Kamalamba Jayati- Ahiri - Rupakam Balakrsnam - Gopikavasantam - Adi Shri Kamalambike Avava - Ghanta - Adi Shri Mahngalambikam - Ghanta - Jhampa Paradevata Brhatkucamba - Dhanyashi - Adi Mahngaladevataya - Dhanyashi - Rupakam Mayuranatham - Dhanyashi - Mishra Capu Ramacandradanyam - Dhanyashi - Khanda Capu Vedapurishvaram - Dhanyashi - Adi Shri Rahnganathaya - Dhanyashi - Rupakam Navaratna Vilasa Vaibhava - Navaratnavilasam - Adi Nagagandhari - Nagagandhari - Adi Sarasijanabha Sodari- Nagagandhari - Rupakam Aryam Abhayambam Bhajare - Bhairavi - Khanda Jati Ata Cintaya Makanda - Bhairavi - Rupakam Trilocanamohinim - Bhairavi - Adi Devi Jagadishvari - Bhairavi - Rupakam Balagopala - Bhairavi - Adi Lalitambikayai - Bhairavi - Mishra Capu Shri Kamalambikayah Param Nahi Re- Bhairavi - Mishra Jhampa Ramacandrena - Mahnji - Rupakam Shri Sarasvati Hite - Mahnji - Adi Candrasekharam- Margahindolam - Adi Margahindolaraga - Margahindolam - Adi Ekamranathaya - Mukhari - Rupakam Govindarajam - Mukhari - Mishra Capu Pahi Mam Ratnacalanayaka - Mukhari - Adi Govarddhana Girisham - Hindolam - Rupakam Nirajaksi Kamaksi - Hindolam - Rupakam Sarasvati Vidhiyuvati- Hindolam - Rupakam Tyagaraja - Hindolam - Rupakam Santana Ramasvaminam- Hindolavasantam - Adi<br /><br />21. Kiranavali - KiravaniPahncabhutakiranavalim - Kiranavali - Khanda Ekam Shri Vehnkatesham - Kalyanavasantam<br /><br />22. Shri Raga - KharaharapriyaKameshvarena - Shri - Adi Tyagaraja Mahadhvajaroha - Shri - Adi Shri Abhayamba - Shri - Adi Shri Kamalambike- Shri - Khanda Ekam Shri Muladharacakravinayaka - Shri - Adi Shri Varalaksmi - Shri - Rupakam Shri Laksmivaraham- Abhogi - Adi Nilotpalambikaya - Kannadagaula - Adi Balambikayah - Kanada (Kapi) - Adi Vishveshvaro Raksatu - Kanada (Kapi) - Adi Virahanumate Namo- Kapi - Rupakam Vehnkatacalapate - Kapi - Adi Shri Maharahnji (Manipravalam) - Kapi - Khanda Ekam Kayarohanesham- Devagandharam - Rupakam Pahncashatpitharupini- Devagandharam - Adi Tripurasundari - Devamanohari - Adi Bharati Mathisna - Devamanohari - Rupakam Mahadevena - Devamanohari - Adi Varahim - Devamanohari - Triputa Tyagarajadanyam - Darbar - Adi Halasyanatham - Darbar - Adi Palaya Mam Brhadishvara - Nayaki - Rupakam Pranatartiharam - Nayaki - Adi Rahnganayakam Bhavayeham- Nayaki - Adi Rahngapuravihara - Brndavana Sarahnga - Rupakam Saundararajam Ashraye - Brndavana Sarahnga - Rupakam Svaminathena - Brndavana Sarahnga - Adi Kalabhairavam - Bhairavam - Rupakam Mamava Pattabhirama - Manirahngu - Mishra Capu Dharmasamvardhani- Madhyamavati - Rupakam Pannagashayana - Madhyamavati - Adi Mahatripurasundari - Madhyamavati - Rupakam Shri Rajarajeshvarim - Madhyamavati - Rupakam Kanakasabhapatim - Malavashri - Adi Mahngalambayai Namaste - Malavashri - Jhampa Mahalaksmi Karunarasalahari - Madhavamanohari - Adi Gananayakam Bhajeham Bhaje - Rudrapriya - Adi Tyagesham Bhajare - Rudrapriya - Adi Parashaktim - Rudrapriya - Adi Rudrakopa - Rudrapriya - Rupakam Shivakayarohaneshaya - Rudrapriya - Rupakam Shri Tyagarajasya - Rudrapriya - Mishra Capu Shri Parthasarathina - Shuddha Dhanyashi - Rupakam Subrahmanyena Raksitoham - Shuddha Dhanyashi - Adi Kamaksi Mam Pahi - Shuddhadeshi - Rupakam Ni Sati Daivamu (Telugu Daru) - Shrirahnjani - Rupakam Parvatarajakumari - Shrirahnjani - Adi Balambikaya - Shrirahnjani - Caturashra Ekam Shri Dum Durge - Shrirahnjani - Khanda Ekam Shri Ramacandro - Shrirahnjani - Mishra Capu Abhayambayam Bhaktim Karomi - Sahana - Triputa Ishanadi Shivakaramahnce - Sahana - Rupakam Ramakrsnena - Sahana - Adi Shri Kamalambikayam Bhaktim Karomi - Sahana - Tishra Triputa Tyagarajena - Salagabhairavi - Adi Saindhaviragapriye - Saindhavi - Adi Paradevate Bhaktapujite - Huseni - Adi Shri Kalahastisha - Huseni - Khanda Capu<br /><br />23. Gaurivelavali - GaurimanohariKaumari Gauri Velavali - Gaurivelavali - Adi Parashakti Ishvari - Gaurivelavali - Adi<br /><br />24. Viravasantam - VarunapriyaEkamranathaya - Viravasantam - Rupakam Viravasanta Tyagaraja - Viravasantam - Adi<br /><br />25. Sharavati - MararahnjaniSharavatitata - Sharavati - Rupakam<br /><br />26. Tarahngini - CarukeshiPalaya Mam Parameshvari - Tarahngini - Rupakam Maye Tvam Yahi - Tarahngini - Adi<br /><br />27. Saurasena - SarasahngiSaurasenesham Vallisham - Saurasena - Adi<br /><br />28. Harikedaragaula - HarikambhojiAbhayamba Nayaka Varadayaka - Kedaragaula - Adi Abhayambaya Anyam Na Jane - Kedaragaula - Jhampa Nilakantham Bhajeham - Kedaragaula - Rupakam Nilotpalambikayai - Kedaragaula - Adi Balambikayah - Kedaragaula - Rupakam Tyagarajo - Atana - Rupakam Brahaspate Tarapate - Atana - Tishra Triputa Mahalihngeshvaraya - Athana - Adi Vamahngastitaya - Athana - Khanda Ekam Shri Daksinamurtim - Athana - Khanda Ekam Shri Madhurambikaya - Athana - Mishra Capu Shri Vaidyanatham - Athana - Adi Herambaya - Athana - Rupakam Brhannayaki - Andhali - Adi Ananta Balakrsna - Ishamanohari - Adi Jagadishamanohari - Ishamanohari - Rupakam Shri Gananatham - Ishamanohari - Rupakam Giticakrarathastitayai - Kannada - Mishra Capu Palaya Mam Parvatisha - Kannada - Rupakam Shri Matrbhutam - Kannada - Mishra Capu Dandanathaya - Kamas - Adi Shri Svaminathaya - Kamas - Khanda Capu Sadanane - Kamas - Adi Santanagopalakrsnam - Kamas - Rupakam Sarasadalanayana - Kamas - Triputa Enta Ninne Dhelupudura - Kamas - Tishra Ekam Kamalambikayai Kanakamshukayai - Kambhoji - Khanda Ata Kashi Vishveshvara Ehi - Kambhoji - Ata Kailasanathena - Kambhoji - Mishra Capu Gopalakrsnaya Namaste - Kambhoji - Adi Marakatavallim Manasa - Kambhoji - Adi Shri Valmikalihngam - Kambhoji - Ata Shri Subrahmanyaya Namaste - Kambhoji - Rupakam Sambasadashivaya - Kambhoji - Adi Sarasvati Chayatarahngini - Chayatarahngini - Adi Gahnge Mam Pahi - Juhnjuthi - Khanda Ekam Gajamba Nayako - Juhnjuthi - Mishra Capu Ganesha Kumara - Juhnjuthi - Caturashra Ekam Akhilandeshvari - Jujavanti - Adi Cetas Shri Balakrsnam Bhajare- Jujavanti - Rupakam Shrirama - Jujavanti - Rupakam Madhuramba Samraksatu - Devakriya - Adi Lalitambikam - Devakriya - Adi Shri Guruguha Tarayasumam- Devakriya - Rupakam Shri Vatukanatha - Devakriya - Mishra Capu Sandhya Devim - Devakriya - Adi Mahaganapate Palayasu - Natanarayani - Adi Gajadishadanyam - Natakurahnji - Mishra Capu Parvatikumaram - Natakurahnji - Rupakam Balambikayai - Natakurahnji - Rupakam Budham Ashrayami- Natakurahnji - Mishra Jhampa Shivakamipatim - Natakurahnji - Adi Nilotpalamba Jayati - Narayanagaula - Mishra Capu Shri Ramam Ravikulabdhi - Narayanagaula - Adi Guruguhadanyam - Balahamsa - Jhampa Mamava Raghuvira - Mahuri - Mishra Capu Abhayambikayai Ashvarudhayai- Yadukulakambhoji - Rupakam (2 Kalai) Tyagarajam Bhajare - Yadukulakambhoji - Mishra Capu Divakaratanujam Shanaishcaram- Yadukulakambhoji - Caturashra Ekam Annapurne Vishalaksi - Sama - Adi Guruguhaya - Sama - Adi Tripurasundari - Sama - Rupakam Parvatavardhani - Sama - Adi Ahngarakam Ashrayami Aham- Surati - Rupakam Govindarajaya Namaste - Surati - Rupakam Balakucambike - Surati - Rupakam Balasubrahmanyam - Surati - Adi Lalitaparameshvari - Surati - Adi Shri Vahncanatha - Surati - Adi Shri Vehnkatagirisham - Surati - Adi<br /><br />29. DhirashahnkarabharanamAksayalihngavibho - Shahnkarabharanam - Mishra Capu Gajananaya Namaste - Shahnkarabharanam - Rupakam Girijayajaya Abhayamibikaya - Shahnkarabharanam - Adi Tarakeshvara - Shahnkarabharanam - Adi Daksinamurte - Shahnkarabharanam - Mishra Jhampa Nagalihngam Bhajeham - Shahnkarabharanam - Adi Pavanatmajam - Shahnkarabharanam - Adi Brhadishvaraya - Shahnkarabharanam - Adi Shri Kamalambikaya Kataksitoham- Shahnkarabharanam - Rupakam Shri Venugopalam - Shahnkarabharanam - Rupakam Sadashivamupasmahe - Shahnkarabharanam - Adi Sundareshvaraya - Shahnkarabharanam - Rupakam Shahnkarabharanam Nottusvara:  Ahnjaneyam - Tishra Ekam  Kamalasana - Caturashra Ekam  Kahncisham - Tishra Ekam  Guruguha Sarasija - Caturashra Ekam  Guruguhapadapahnkaja - Tishra Ekam  Gurumurte - Rupakam  Cintayeham Sada - Caturashra Ekam  Jagadisha - Caturashra Ekam  Dasharathe - Tishra Ekam  Dinabandho - Tishra Ekam  Pahnkajamukha - Tishra Ekam  Paradevata - Tishram  Paradevate - Rupakam  Parvatipate - Caturashra Ekam  Pahi Durge - Caturashra Ekam  Pahi Mam - Tishra Ekam  Pitavarnam - Tishra Ekam  Maye Citkale - Tishra Ekam  Mucukundavarada - Tishra Ekam  Rajivalocanam - Tishra Ekam  Rama Janardana - Tishra Ekam  Ramacandram - Caturashra Ekam  Vande Minaksi - Caturashra Ekam  Varadaraja Pahi - Tishra Ekam  Varashivabalam - Caturashra Ekam  Vagdevi - Caturashra Ekam  Shaktisahita - Tishra Ekam  Shahnkaravara - Rupakam  Shaurividhi Nute - Caturashra Ekam  Shyamale Minaksi - Caturashra Ekam  Shri Shahnkara - Tishram  Sakalasuravinuta - Caturashra Ekam  Sadashiva Jaye - Caturashra Ekam  Santatam Govindarajam - Tishra Ekam  Santatam Pahimam - Tishra Ekam  Santanasaubhagya - Tishra Ekam  Samaganapriye - Caturashra Ekam  Subrahmanyam - Caturashra Ekam  Somaskandam - Tishra Ekam  He Maye - Tishra Ekam Akhilandeshvaryai - Arabhi - Adi Adipurishvaram - Arabhi - Adi Ganarajena - Arabhi - Mishra Capu Gaurishaya Namaste - Arabhi - Triputa Marakoti Koti Lavanya - Arabhi - Jhampa Shivakameshvaram - Arabhi - Adi Shri Sarasvati Namostute - Arabhi - Rupakam Shvetaranyeshvaram - Arabhi - Adi Shri Venugopala - Kurahnji - Jhampa Ambikaya Abhayambikaya- Kedaram - Adi Anandanatanaprakasham - Kedaram - Mishra Capu Cidambara Natarajam - Kedaram - Adi Kumbheshvaraya - Kedaram - Rupakam Ksitijaramanam - Devagandhari - Adi Vadanyeshvaram - Devagandhari - Adi Shalivatishvaram - Devagandhari - Adi Shri Minambikayah - Devagandhari - Rupakam Amba Nilayataksi - Nilambari - Adi Tyagarajam Bhajeham - Nilambari - Rupakam Nilahngam - Nilambari - Khanda Ekam Siddhishvaraya - Nilambari - Mishra Capu Hastivadanaya Namastubhyam - Navaroj - Mishra Capu Brhadishvaram Bhajare - Nagadhvani - Adi Shahnkaranarayanam - Narayanadeshaksi - Adi Mahisasuramardinim - Narayani - Mishra Capu Shahnkhacakragadha Panim - Purnacandrika - Rupakam Shri Rajarajeshvari - Purnacandrika - Adi Shri Rahnganathamupasmahe - Purnacandrika - Adi Nilotpalambikayam - Purvagaula - Rupakam Ekadantam Bhajeham - Bilahari - Mishra Capu Kamaksi Varalaksmi - Bilahari - Adi Shri Balasubrahmanyagaccha - Bilahari - Mishra Capu Shri Madhurapuriviharini - Bilahari - Rupakam Shri Sambashivam - Bilahari - Adi Hatakeshvara - Bilahari - Rupakam Tyagarajaya Namaste - Begada - Rupakam Madhurambayah - Begada - Mishra Capu Vallabhanayakasya Bhakto - Begada - Rupakam Shri Matah Shivavamahnge - Begada - Adi Somasundareshvaram - Shuddhavasantam - Adi Sarasvati Manohari Shahnkari - Sarasvatimanohari - Adi Parvatipatim - Hamsadhvani - Adi Vatapi Ganapatim Bhajeham - Hamsadhvani - Adi<br /><br />30. Nagabharanam - NaganandiniNagabharanam - Nagabharanam - Adi Pranatartiharaya - Samanta - Adi Vishvanathena - Samanta - Adi<br /><br />31. Kalavati - YagapriyaKalavati Kamalasana Yuvati - Kalavati - Adi<br /><br />32. Ragacudamani - RagavardhaniShvetaganapatim - Ragacudamani - Triputa<br /><br />33. Gahngatarahngini - GahngeyabhusaniVaradaraja Vava Vahncitadhika - Gahngatarahngini - Rupakam Kahnjadalayataksi Kamaksi Kamalamanohari Tripurasundari - Manohari - Adi Shahnkaramabhiramimanoharam - Manohari - Rupakam<br /><br />34. Bhogachayanata - VagadishvariBhogachayanatakapriye - Bhogachayanata - Adi<br /><br />35. Shailadeshaksi - ShuliniShailarajakumari - Shailadeshaksi - Adi Shri Shulinim Shri Tapalini - Shailadeshaksi - Adi<br /><br />36. Calanata - CalanataParameshvara Jagadishvara - Calanata - Adi Pavanatmajagaccha - Calanata - Jhampa Mahaganapatim Manasa Smarami - Calanata - Caturashra Ekam Svaminatha Paripalayasumam - Calanata - Adi Sakala Sadanakela - Nata<br /><br />37. Saugandini - SalagamKamakotipithavasini - Saugandini - Adi<br /><br />38. Jaganmohini - JalarnavamShri Vidya Rajagopalam - Jaganmohini - Tishra Ekam<br /><br />39. Dhalivarali - JhalavaraliMamava Minaksi - Varali - Mishra Capu Lambodaraya - Varali - Khanda Capu Shesacalanayakam - Varali - Rupakam<br /><br />40. Nabhomani - NavanitamNabhomani Candrahni Nayanam - Nabhomani - Mishra Capu Shri Nathasodarim - Nabhomani - Rupakam<br /><br />41. Kumbhini - PavaniSaccidanandamaya - Kumbhini - Adi<br /><br />42. Ravikriya - RaghupriyaHimagirikumari Ishvari - Ravikriya - Adi<br /><br />43. Girvani - GavambodhiNamonamaste Girvani - Girvani - Mishra Capu<br /><br />44. Bhavani - BhavapriyaJayati Shiva Bhavani - Bhavani - Rupakam<br /><br />45. Shivapantuvarali - ShubhapantuvaraliPashupatishvaram - Shivapantuvarali - Adi Shri Satyanarayanam - Shivapantuvarali - Rupakam Sadashivena - Sindhuramakriya - Adi Bhagavatishvaram - Shubhapantuvarali - Adi<br /><br />46. Stavarajam - SadvidhamarginiMadhurambam Bhajare - Stavarajam - Adi Stavarajadinuta - Stavarajam - Mishra Capu<br /><br />47. Sauviram - SuvarnahngiSarasa Sauvira - Sauviram - Adi<br /><br />48. Jivantika - DivyamaniBrhadishakataksena - Jivantika - Rupakam<br /><br />49. Dhavalahngam - DhavalambariShrhngaradi - Dhavalahngam - Khanda Ekam<br /><br />50. Namadeshi - NamanarayaniNarmada Kaveri Nilaiye - Namadeshi - Mishra Capu<br /><br />51. Kashiramakriya - KamavardhiniUccista Ganapatau - Kashiramakriya - Adi Margasahayashvaram - Kashiramakriya - Mishra Capu Ramanatham Bhajeham - Kashiramakriya - Rupakam Vishalaksim Vishveshim - Kashiramakriya - Triputa Shri Sundararajam - Kashiramakriya - Adi Senapate - Kashiramakriya - Adi Arddhanarishvaram - Kumudakriya - Rupakam<br /><br />52. Ramamanohari - RamapriyaMatahngi Shriraja - Ramamanohari - Rupakam Shrhngarashaktyayudha - Ramamanohari - Jhampa Smaramyaham Sada Rahum - Ramamanohari - Rupakam<br /><br />53. Gamakakriya - GamanashramaEkamranatham - Gamakakriya - Adi Kashi Vishalaksim - Gamakakriya - Rupakam Tiruvatishvaram - Gamakakriya - Rupakam Navaratnamalinim - Gamakakriya - Khanda Ekam Minaksi Me Mudam Dehi - Gamakakriya - Adi<br /><br />54. Vamshavati - VishvambariBhaktavatsalam - Vamshavati - Adi Vamshavati - Vamshavati - Adi<br /><br />55. Shyamalam - ShyamalahngiShyamalahngi - Shyamalam - Adi<br /><br />56. Camaram - ShanmukhapriyaEkamreshanayakim - Camaram - Adi Sadashraye Abhayambike - Camaram - Rupakam Siddhivinayakam Anisham- Camaram - Rupakam Mahasuram Ketumaham<- Camaram/Rupakam<br /><br />57. Sumadyuti - SimhendramadhyamamKamaksi Kamakoti Pithavasini - Sumadyuti - Rupakam Nilacalanatham - Sumadyuti - Adi Pamarajanapalini - Sumadyuti - Rupakam Shaileshvaram - Sumadyuti - Adi<br /><br />58. Deshisimharavam - HemavatiMadhurambikayam - Deshisimharavam - Rupakam Shri Kantimatim - Deshisimharavam - Adi Hariyuvatim Haimavatim - Deshisimharavam - Rupakam<br /><br />59. Dhamavati - DharmavatiParandhamavati Yuvati- Dhamavati - Rupakam Ramacandrasya - Dhamavati - Adi<br /><br />60. Nisadam - NitimatiNisadadi Deshadhipatinuta - Nisadam - Mishra Capu<br /><br />61. Kuntalam - KantamaniShri Sugandhikuntalambike - Kuntalam - Rupakam<br /><br />62. Ratipriya - RishabhapriyaMararatipriyam Bhaktipriyam - Ratipriya - Adi<br /><br />63. Gitapriya - LatahngiSadhujanavinutam - Gitapriya - Triputa<br /><br />64. Bhusavati - VacaspatiAbhiramim - Bhusavati - Rupakam Parvatishvarena - Bhusavati - Adi Bhusavatim - Bhusavati - Rupakam<br /><br />65. Shantakalyani - MecakalyaniAbhayamba Jagadamba Raksatu - Kalyani - Adi (2 Kalai) Kamalambam Bhajare - Kalyani - Adi Kamaksim Kalyanim - Kalyani - Rupakam Kumbheshvaraya - Kalyani - Mishra Capu Kumbheshvarena Samraksitoham - Kalyani - Adi Ganapate - Kalyani - Rupakam Jhnanaprasunambike - Kalyani - Rupakam Brahmavidyambike - Kalyani - Adi Bhajare Re Citta - Kalyani - Mishra Capu Shivakameshvarim Cintayeham - Kalyani - Adi Shri Mahngalambike - Kalyani - Ata Shri Madhurambike - Kalyani - Khanda Capu Kadambaripriyayai - Mohanam - Mishra Capu Gopika Manoharam - Mohanam - Rupakam Narasimha Agaccha - Mohanam - Mishra Capu Nagalihngam Namami - Mohanam - Adi Pahi Mam Parvati - Mohanam - Rupakam Raktaganapatim - Mohanam - Adi Rajagopalam - Mohanam - Rupakam Jambupate - Yamunakalyani - Rupakam Nandagopala Mukundagokul - Yamunakalyani - Adi Paramashivatmajam - Yamunakalyani - Adi Arunacalanatham - Sarahnga - Rupakam Tyagaraje Krtyakrtyam - Sarahnga - Jhampa Varadarajamupasmahe - Sarahnga - Rupakam Sarahngaragapriye - Sarahnga - Mishra Capu Parimalarahnganatham - Hamirkalyani - Rupakam Puraharanandana - Hamirkalyani - Adi<br /><br />66. Caturahngini - CitrambariEkamranatheshvarena - Caturahngini - Adi Guruguha Bhavantarahnginim - Caturahngini - Mishra Capu Anandamrtakarsini Amrtavarsini - Amrtavarsini - Adi Himagirikumari - Amrtavarsini - Adi<br /><br />67. Santanamahnjari - SucaritramSantanamahnjari - Santanamahnjari - Adi<br /><br />68. Jyoti Raga - JyotisvarupiniParamjyotismati Parvati - Jyoti - Adi Rame Bharatapalita - Jyoti - Khanda Capu<br /><br />69. Dhautapahncamam - DhatuvardhaniMatahngi Marakatahngi - Dhautapahncamam - Rupakam<br /><br />70. Nasamani - NasikabhusaniShri Krsno Mam Raksatu - Nasamani - Rupakam Shri Rama Sarasvatisevitam - Nasamani - Adi<br /><br />71. Kusumakaram - KosalamKusumakarashobhita - Kusumakaram - Rupakam<br /><br />72. Rasamahnjari - RasikapriyaShrhngararasamahnjarim - Rasamahnjari - Rupakam </span><br /></span>
p3
sVkind
p4
Vblogger#post
p5
sVlabels
p6
(lp7
VBiography
p8
aVCarnatic
p9
aVClassical
p10
aVComposers
p11
aVCompositions
p12
aVDikshitar
p13
aVDivine
p14
aVHistory
p15
aVIndian
p16
aVKarnatic
p17
aVList of Carnatic Composers
p18
aVMusic
p19
aVMutthuswami
p20
aVOrigin
p21
aVSouth
p22
aVTraditional
p23
aVTrinity
p24
aVWorks
p25
asVtitle
p26
VMUTHUSWAMI DIKSHITAR (1775 - 1835) - BIOGRAPHY AND COMPLETE WORKS
p27
sVurl
p28
Vhttp://musicinfoguide.blogspot.com/2007/08/muthuswami-dikshitar-1775-1835.html
p29
sVauthor
p30
(dp31
Vurl
p32
Vhttp://www.blogger.com/profile/16942048825081160415
p33
sVimage
p34
(dp35
Vurl
p36
Vhttp://4.bp.blogspot.com/-ZmH5ruRqlG8/U4uhsUsZ6NI/AAAAAAAAAPw/klEX3rcGsto/s45/*
p37
ssVdisplayName
p38
VKarthik Subramany
p39
sVid
p40
V16942048825081160415
p41
ssVupdated
p42
V2007-08-12T08:38:00-07:00
p43
sVreplies
p44
(dp45
VtotalItems
p46
V2
sVselfLink
p47
Vhttps://www.googleapis.com/blogger/v3/blogs/3207072992206519076/posts/6809926223444075096/comments
p48
ssVblog
p49
(dp50
Vid
p51
V3207072992206519076
p52
ssVpublished
p53
V2007-08-12T08:18:00-07:00
p54
sVid
p55
V6809926223444075096
p56
sVselfLink
p57
Vhttps://www.googleapis.com/blogger/v3/blogs/3207072992206519076/posts/6809926223444075096
p58
s.