(lp0
(dp1
S'arg1'
p2
Vvijay sardeshmukh
p3
sS'arg2'
p4
Vjune_1952
p5
sS'full_sentence'
p6
VVijay Sardeshmukh, born in June 1952 was initiated into music by his Father, Vitthalrao Sardeshmukh.\u000a
p7
sS'rel'
p8
Vbear in
p9
sa(dp10
g2
Valladiya khan
p11
sg4
Vgaan samraat
p12
sg6
VAlladiya Khan was an Indian classical singer, known as Gaan Samraat.\u000a
p13
sg8
Vknow as
p14
sa(dp15
g2
Valladiya khan
p16
sg4
Vclassical singer
p17
sg6
VAlladiya Khan was an Indian classical singer, known as Gaan Samraat.\u000a
p18
sg8
S'is a'
p19
sa(dp20
g2
Valladiya khan
p21
sg4
Vsinger
p22
sg6
VAlladiya Khan was an Indian classical singer, known as Gaan Samraat.\u000a
p23
sg8
S'is a'
p24
sa(dp25
g2
Valladiya khan
p26
sg4
Vindian singer
p27
sg6
VAlladiya Khan was an Indian classical singer, known as Gaan Samraat.\u000a
p28
sg8
S'is a'
p29
sa(dp30
g2
Vgharana
p31
sg4
Vjaipur-atrauli
p32
sg6
VKhan founded the Jaipur-Atrauli gharana based on the Agra gharana.\u000a
p33
sg8
Vgharana 's
p34
sa(dp35
g2
g31
sg4
Vgharana
p36
sg6
VKhan founded the Jaipur-Atrauli gharana based on the Agra gharana.\u000a
p37
sg8
Vbase on
p38
sa(dp39
g2
g36
sg4
Vjaipur-atrauli
p40
sg6
VKhan founded the Jaipur-Atrauli gharana based on the Agra gharana.\u000a
p41
sg8
Vgharana 's
p42
sa(dp43
g2
Valladiya khan
p44
sg4
S'#unknown'
p45
sg6
VAlladiya Khan served in the court of various kings of Rajasthan, including that of Amlata.\u000a
p46
sg8
Vserve include
p47
sa(dp48
g2
Valladiya khan
p49
sg4
Vcourt
p50
sg6
VAlladiya Khan served in the court of various kings of Rajasthan, including that of Amlata.\u000a
p51
sg8
Vserve in
p52
sa(dp53
g2
Vbandish
p54
sg4
Vthey
p55
sg6
VHearing the Haveli sangeet Khansahab took many of the Raag-based Bhajans and created Raags and Bandishes with them.\u000a
p56
sg8
Vbandish with
p57
sa(dp58
g2
Vvilayat khan
p59
sg4
Vbritish_india
p60
sg6
VVilayat Khan was born in Gauripur, British India to Enayat Khan, a sitar maestro.\u000a
p61
sg8
Vbear in
p62
sa(dp63
g2
Vvilayat khan
p64
sg4
Vgauripur
p65
sg6
VVilayat Khan was born in Gauripur, British India to Enayat Khan, a sitar maestro.\u000a
p66
sg8
Vbear in
p67
sa(dp68
g2
Vvilayat khan
p69
sg4
Vmuch
p70
sg6
VVilayat Khan spent much of his life living in Calcutta.\u000a
p71
sg8
Vspend
p72
sa(dp73
g2
V53431
p74
sg4
Vcompilation
p75
sg6
V53431 is a Greatest Hits compilation by the electro-pop band Swami.\u000a
p76
sg8
S'is a'
p77
sa(dp78
g2
V53431
p79
sg4
Vgreatest hits
p80
sg6
V53431 is a Greatest Hits compilation by the electro-pop band Swami.\u000a
p81
sg8
Vcompilation 's
p82
sa(dp83
g2
V53431
p84
sg4
Velectro-pop band swami
p85
sg6
V53431 is a Greatest Hits compilation by the electro-pop band Swami.\u000a
p86
sg8
Vcompilation by
p87
sa(dp88
g2
Vgharana
p89
sg4
Vbhendibazar
p90
sg6
VMerukhand techniques were developed within the Bhendibazar gharana and popularized by masters like Aman Ali Khan and Abdul Waheed Khan.\u000a
p91
sg8
Vgharana 's
p92
sa(dp93
g2
Vmerukhand
p94
sg4
Vpart
p95
sg6
VMerukhand is now a part of the improvisational strategy within the Indore gharana founded by Amir Khan.\u000a
p96
sg8
S'is a'
p97
sa(dp98
g2
Vgharana
p99
sg4
Vindore
p100
sg6
VMerukhand is now a part of the improvisational strategy within the Indore gharana founded by Amir Khan.\u000a
p101
sg8
Vgharana 's
p102
sa(dp103
g2
Vmerukhand
p104
sg4
Vimprovisational strategy
p105
sg6
VMerukhand is now a part of the improvisational strategy within the Indore gharana founded by Amir Khan.\u000a
p106
sg8
Vpart of
p107
sa(dp108
g2
Vgulubhai jasdanwalla
p109
sg4
Vutd
p110
sg6
VGulubhai Jasdanwalla also learned from Utd.\u000a
p111
sg8
Vlearn from
p112
sa(dp113
g2
Vmanji khan
p114
sg4
Vpt
p115
sg6
VManji Khan noticed Pt.\u000a
p116
sg8
Vnotice
p117
sa(dp118
g2
Vpakhavaj
p119
sg4
Vlow tone
p120
sg6
VThe pakhavaj has a low, mellow tone, very rich in harmonics.\u000a
p121
sg8
Vhave
p122
sa(dp123
g2
Vgharana
p124
sg4
Vhindustani music
p125
sg6
VHe belongs to the Mewati gharana of Hindustani classical music.\u000a
p126
sg8
Vgharana of
p127
sa(dp128
g2
g124
sg4
Vmewati
p129
sg6
VHe belongs to the Mewati gharana of Hindustani classical music.\u000a
p130
sg8
Vgharana 's
p131
sa(dp132
g2
Vjasraj
p133
sg4
Vsawai_gandharva_music_festival
p134
sg6
VJasraj participated at the Sawai Gandharva Music Festival.\u000a
p135
sg8
Vparticipate at
p136
sa(dp137
g2
Vgharana
p138
sg4
Vpatiala
p139
sg6
VHe studied voice and Raag Vidya under Ashiq Ali Khan of the Patiala gharana.\u000a
p140
sg8
Vgharana 's
p141
sa(dp142
g2
Vgharana
p143
sg4
Vjaipur-atrauli
p144
sg6
VRajashekhar Mansur is a Hindustani Classical vocalist of the Jaipur-Atrauli gharana.\u000a
p145
sg8
Vgharana 's
p146
sa(dp147
g2
Vgharana
p148
sg4
Vmusic
p149
sg6
VHe belongs to Sikar gharana of music who have given several stalwarts to Indian classical music.\u000a
p150
sg8
Vgharana of
p151
sa(dp152
g2
Vsabir khan
p153
sg4
Vmusic
p154
sg6
VSabir Khan started was exposed to music when he was six year old through his grand father Ustad Gulab khan.\u000a
p155
sg8
Vexpose to
p156
sa(dp157
g2
Vsabir khan
p158
sg4
Vhis father
p159
sg6
VSabir khan performs with his father in concert and also solo.\u000a
p160
sg8
Vperform with
p161
sa(dp162
g2
Vsabir khan
p163
sg4
Vsolo
p164
sg6
VSabir khan performs with his father in concert and also solo.\u000a
p165
sg8
Vperform with
p166
sa(dp167
g2
Vkaushiki chakrabarty
p168
sg4
Vindian vocalist
p169
sg6
VKaushiki Chakrabarty is a prominent Indian classical vocalist.\u000a
p170
sg8
S'is a'
p171
sa(dp172
g2
Vkaushiki chakrabarty
p173
sg4
Vvocalist
p174
sg6
VKaushiki Chakrabarty is a prominent Indian classical vocalist.\u000a
p175
sg8
S'is a'
p176
sa(dp177
g2
Vkaushiki chakrabarty
p178
sg4
Vprominent vocalist
p179
sg6
VKaushiki Chakrabarty is a prominent Indian classical vocalist.\u000a
p180
sg8
S'is a'
p181
sa(dp182
g2
Vkaushiki chakrabarty
p183
sg4
Vclassical vocalist
p184
sg6
VKaushiki Chakrabarty is a prominent Indian classical vocalist.\u000a
p185
sg8
S'is a'
p186
sa(dp187
g2
Vbhinnashadaja
p188
sg4
Vhindustani_classical_music
p189
sg6
VHowever, Carnatic Ragas Chandrakauns, Daka and Dakka of Dheerasankarabharanam Melkarta are scale-congruent with Bhinnashadaja of Hindustani Classical Music.\u000a
p190
sg8
Vof
p191
sa(dp192
g2
Vlakshmi shankar
p193
sg4
V30
p194
sg6
VLakshmi Shankar passed away on 30th December 2013.\u000a
p195
sg8
Vpass on
p196
sa(dp197
g2
Vlakshmi shankar
p198
sg4
V30
p199
sg6
VLakshmi Shankar passed away on 30 December 2013 in USA.\u000a
p200
sg8
Vpass on
p201
sa(dp202
g2
Vlakshmi shankar
p203
sg4
Vusa
p204
sg6
VLakshmi Shankar passed away on 30 December 2013 in USA.\u000a
p205
sg8
Vpass in
p206
sa(dp207
g2
Vraga
p208
sg4
Vgentle incarnation
p209
sg6
VLuiz Martinez Jose argued that the raga was named for a gentle and guarding incarnation of the Hindu deity Shiva.\u000a
p210
sg8
Vname for
p211
sa(dp212
g2
Vraga
p213
sg4
Vraga asavari
p214
sg6
VJoep Bor argued that the raga appears to be related to raga Asavari.\u000a
p215
sg8
Vrelate to
p216
sa(dp217
g2
Vasavari
p218
sg4
Vhindustani
p219
sg6
VAsavari is a Hindustani classical raga.\u000a
p220
sg8
Vraga 's
p221
sa(dp222
g2
Vasavari
p223
sg4
Vclassical raga
p224
sg6
VAsavari is a Hindustani classical raga.\u000a
p225
sg8
S'is a'
p226
sa(dp227
g2
Vasavari
p228
sg4
Vraga
p229
sg6
VAsavari is a Hindustani classical raga.\u000a
p230
sg8
S'is a'
p231
sa(dp232
g2
Vthumri
p233
sg4
Vfeminist perspective
p234
sg6
VKnown for composing and performing thumris from a feminist perspective, her contributions include compositions of Kabir and Meera bhajans.\u000a
p235
sg8
Vthumri from
p236
sa(dp237
g2
Vshamim ahmed khan
p238
sg4
Vstudent
p239
sg6
VShamim Ahmed Khan was a sitarist and composer, and notably, a student of Pandit Ravi Shankar.\u000a
p240
sg8
S'is a'
p241
sa(dp242
g2
Vshamim ahmed khan
p243
sg4
Vpandit ravi_shankar
p244
sg6
VShamim Ahmed Khan was a sitarist and composer, and notably, a student of Pandit Ravi Shankar.\u000a
p245
sg8
Vstudent of
p246
sa(dp247
g2
Vsarangi
p248
sg4
Vstatus
p249
sg6
VSarangi now enjoys the status of a solo classical instrument due to the single-handed efforts of Ram Narayan.\u000a
p250
sg8
Venjoy
p251
sa(dp252
g2
Vgharana
p253
sg4
Vindian music
p254
sg6
VHe belongs to the Sufiana gharana of Indian classical music.\u000a
p255
sg8
Vgharana of
p256
sa(dp257
g2
g253
sg4
Vsufiana
p258
sg6
VHe belongs to the Sufiana gharana of Indian classical music.\u000a
p259
sg8
Vgharana 's
p260
sa(dp261
g2
Vabdul wahid khan
p262
sg4
Vclassical singer
p263
sg6
VAbdul Wahid Khan was an Indian classical singer, from the Kirana gharana.\u000a
p264
sg8
S'is a'
p265
sa(dp266
g2
Vabdul wahid khan
p267
sg4
Vsinger
p268
sg6
VAbdul Wahid Khan was an Indian classical singer, from the Kirana gharana.\u000a
p269
sg8
S'is a'
p270
sa(dp271
g2
Vabdul wahid khan
p272
sg4
Vindian singer
p273
sg6
VAbdul Wahid Khan was an Indian classical singer, from the Kirana gharana.\u000a
p274
sg8
S'is a'
p275
sa(dp276
g2
Vgharana
p277
sg4
Vkirana
p278
sg6
VAbdul Wahid Khan was an Indian classical singer, from the Kirana gharana.\u000a
p279
sg8
Vgharana 's
p280
sa(dp281
g2
Vanand bhate
p282
sg4
Vclassical vocalist
p283
sg6
VAnand Bhate also known as Anand Gandharva is a Hindustani classical vocalist from the Kirana Gharana.\u000a
p284
sg8
S'is a'
p285
sa(dp286
g2
Vanand bhate
p287
sg4
Vvocalist
p288
sg6
VAnand Bhate also known as Anand Gandharva is a Hindustani classical vocalist from the Kirana Gharana.\u000a
p289
sg8
S'is a'
p290
sa(dp291
g2
Vanand bhate
p292
sg4
Vanand_gandharva
p293
sg6
VAnand Bhate also known as Anand Gandharva is a Hindustani classical vocalist from the Kirana Gharana.\u000a
p294
sg8
Vknow as
p295
sa(dp296
g2
Vanand bhate
p297
sg4
Vhindustani
p298
sg6
VAnand Bhate also known as Anand Gandharva is a Hindustani classical vocalist from the Kirana Gharana.\u000a
p299
sg8
Vvocalist 's
p300
sa(dp301
g2
Vanand bhate
p302
sg4
Vkirana_gharana
p303
sg6
VAnand Bhate also known as Anand Gandharva is a Hindustani classical vocalist from the Kirana Gharana.\u000a
p304
sg8
Vvocalist from
p305
sa(dp306
g2
Vanand bhate
p307
sg4
V1971
p308
sg6
VAnand Bhate was born in Pune, India in 1971, in a family active in classical music.\u000a
p309
sg8
Vbear in
p310
sa(dp311
g2
Vanand bhate
p312
sg4
Vfamily active
p313
sg6
VAnand Bhate was born in Pune, India in 1971, in a family active in classical music.\u000a
p314
sg8
Vbear in
p315
sa(dp316
g2
Vanand bhate
p317
sg4
Vindia
p318
sg6
VAnand Bhate was born in Pune, India in 1971, in a family active in classical music.\u000a
p319
sg8
Vbear in
p320
sa(dp321
g2
Vanand bhate
p322
sg4
Vclassical music
p323
sg6
VAnand Bhate was born in Pune, India in 1971, in a family active in classical music.\u000a
p324
sg8
Vbear in
p325
sa(dp326
g2
Vanand bhate
p327
sg4
Vpune
p328
sg6
VAnand Bhate was born in Pune, India in 1971, in a family active in classical music.\u000a
p329
sg8
Vbear in
p330
sa(dp331
g2
Vkhyal
p332
sg4
Vclassical singing
p333
sg6
VKhyal is the modern genre of classical singing in North India.\u000a
p334
sg8
Vgenre of
p335
sa(dp336
g2
Vkhyal
p337
sg4
Vgenre
p338
sg6
VKhyal is the modern genre of classical singing in North India.\u000a
p339
sg8
S'is a'
p340
sa(dp341
g2
Vkhyal
p342
sg4
Vmodern genre
p343
sg6
VKhyal is the modern genre of classical singing in North India.\u000a
p344
sg8
S'is a'
p345
sa(dp346
g2
Vgharana
p347
sg4
Vvocal music
p348
sg6
VHe is an exponent of the Gwalior gharana of vocal music.\u000a
p349
sg8
Vgharana of
p350
sa(dp351
g2
g347
sg4
Vgwalior
p352
sg6
VHe is an exponent of the Gwalior gharana of vocal music.\u000a
p353
sg8
Vgharana 's
p354
sa(dp355
g2
Vmalabika kanan
p356
sg4
Vhindustani vocalist
p357
sg6
VMalabika Kanan was a Hindustani classical vocalist.\u000a
p358
sg8
S'is a'
p359
sa(dp360
g2
Vmalabika kanan
p361
sg4
Vvocalist
p362
sg6
VMalabika Kanan was a Hindustani classical vocalist.\u000a
p363
sg8
S'is a'
p364
sa(dp365
g2
Vmalabika kanan
p366
sg4
Vclassical vocalist
p367
sg6
VMalabika Kanan was a Hindustani classical vocalist.\u000a
p368
sg8
S'is a'
p369
sa(dp370
g2
Vraga
p371
sg4
Vpopular vivadi
p372
sg6
VExamples of popular Vivadi ragas are : Nata, Varali, Vagadheeswari.\u000a
p373
sg8
Vraga 's
p374
sa(dp375
g2
Vdebasis chakroborty
p376
sg4
Vclassical player
p377
sg6
VDebasis Chakroborty is an Indian classical slide guitar player who belongs to the Senia-Maihar Gharana.\u000a
p378
sg8
S'is a'
p379
sa(dp380
g2
Vdebasis chakroborty
p381
sg4
Vslide player
p382
sg6
VDebasis Chakroborty is an Indian classical slide guitar player who belongs to the Senia-Maihar Gharana.\u000a
p383
sg8
S'is a'
p384
sa(dp385
g2
Vdebasis chakroborty
p386
sg4
Vplayer
p387
sg6
VDebasis Chakroborty is an Indian classical slide guitar player who belongs to the Senia-Maihar Gharana.\u000a
p388
sg8
S'is a'
p389
sa(dp390
g2
Vdebasis chakroborty
p391
sg4
Vindian player
p392
sg6
VDebasis Chakroborty is an Indian classical slide guitar player who belongs to the Senia-Maihar Gharana.\u000a
p393
sg8
S'is a'
p394
sa(dp395
g2
Vdebasis chakroborty
p396
sg4
Vguitar player
p397
sg6
VDebasis Chakroborty is an Indian classical slide guitar player who belongs to the Senia-Maihar Gharana.\u000a
p398
sg8
S'is a'
p399
sa(dp400
g2
Vdebasis chakroborty
p401
sg4
Vsenia-maihar gharana
p402
sg6
VDebasis Chakroborty is an Indian classical slide guitar player who belongs to the Senia-Maihar Gharana.\u000a
p403
sg8
Vbelong to
p404
sa(dp405
g2
Vrishab prasanna
p406
sg4
Vflute
p407
sg6
VRishab Prasanna is an Indian flute or bansuri player.\u000a
p408
sg8
S'is a'
p409
sa(dp410
g2
Vrishab prasanna
p411
sg4
Vplayer
p412
sg6
VRishab Prasanna is an Indian flute or bansuri player.\u000a
p413
sg8
S'is a'
p414
sa(dp415
g2
Vrishab prasanna
p416
sg4
Vindian player
p417
sg6
VRishab Prasanna is an Indian flute or bansuri player.\u000a
p418
sg8
S'is a'
p419
sa(dp420
g2
Vrishab prasanna
p421
sg4
Vbansurus player
p422
sg6
VRishab Prasanna is an Indian flute or bansuri player.\u000a
p423
sg8
S'is a'
p424
sa(dp425
g2
Vrishab prasanna
p426
sg4
Vindian flute
p427
sg6
VRishab Prasanna is an Indian flute or bansuri player.\u000a
p428
sg8
S'is a'
p429
sa(dp430
g2
Vrishab prasanna
p431
sg4
Vindian music
p432
sg6
VRishab Prasanna learned Indian classical music from his grandfather, Pt.\u000a
p433
sg8
Vlearn
p434
sa(dp435
g2
Vgharana
p436
sg4
Vsitar playing
p437
sg6
VHe was recognized as the foremost representative of the Senia gharana of sitar playing in the mid-20th century.\u000a
p438
sg8
Vgharana of
p439
sa(dp440
g2
g436
sg4
Vsenia
p441
sg6
VHe was recognized as the foremost representative of the Senia gharana of sitar playing in the mid-20th century.\u000a
p442
sg8
Vgharana 's
p443
sa(dp444
g2
Vsurbahar
p445
sg4
Vplaying
p446
sg6
VThe Surbahar was originally designed to felicitate the playing of Alap.\u000a
p447
sg8
Vfelicitate
p448
sa(dp449
g2
Vsurbahar
p450
sg4
Vthree
p451
sg6
VSteven Landsberg is Khansahibs only student to have studied the Surbahar, the technique with three mizrabas, and tarparan.\u000a
p452
sg8
Vtechnique with
p453
sa(dp454
g2
Vsurbahar
p455
sg4
Vtechnique
p456
sg6
VSteven Landsberg is Khansahibs only student to have studied the Surbahar, the technique with three mizrabas, and tarparan.\u000a
p457
sg8
S'is a'
p458
sa(dp459
g2
Vtappa
p460
sg4
Vform
p461
sg6
VTappa is a form of Indian semi-classical vocal music.\u000a
p462
sg8
S'is a'
p463
sa(dp464
g2
Vtappa
p465
sg4
Vindian music
p466
sg6
VTappa is a form of Indian semi-classical vocal music.\u000a
p467
sg8
Vform of
p468
sa(dp469
g2
Vtappa
p470
sg4
Vramnidhi_gupta bengali
p471
sg6
VIn Bengal, Ramnidhi Gupta composed Bengali tappas and they are called as Nidhu Babus Tappa.\u000a
p472
sg8
Vtappa 's
p473
sa(dp474
g2
Vsanam marvi
p475
sg4
Vprogramme
p476
sg6
VSanam Marvi debuted at ` Virsa Heritage ', a programme on PTV.\u000a
p477
sg8
Vdebut at
p478
sa(dp479
g2
Vsanam marvi
p480
sg4
Vvirsa_heritage '
p481
sg6
VSanam Marvi debuted at ` Virsa Heritage ', a programme on PTV.\u000a
p482
sg8
Vdebut at
p483
sa(dp484
g2
Vjahan-e-khusrau
p485
sg4
Vsufi
p486
sg6
VShe made her debut in with a solo performance at 2010s Jahan-e-Khusrau, the Sufi music festival.\u000a
p487
sg8
Vfestival 's
p488
sa(dp489
g2
Vjahan-e-khusrau
p490
sg4
Vfestival
p491
sg6
VShe made her debut in with a solo performance at 2010s Jahan-e-Khusrau, the Sufi music festival.\u000a
p492
sg8
S'is a'
p493
sa(dp494
g2
Vjahan-e-khusrau
p495
sg4
Vmusic festival
p496
sg6
VShe made her debut in with a solo performance at 2010s Jahan-e-Khusrau, the Sufi music festival.\u000a
p497
sg8
S'is a'
p498
sa(dp499
g2
Vrasoolan bai
p500
sg4
Vmusician
p501
sg6
VRasoolan Bai was a leading Indian Hindustani classical music vocal musician.\u000a
p502
sg8
S'is a'
p503
sa(dp504
g2
Vrasoolan bai
p505
sg4
Vvocal musician
p506
sg6
VRasoolan Bai was a leading Indian Hindustani classical music vocal musician.\u000a
p507
sg8
S'is a'
p508
sa(dp509
g2
Vrasoolan bai
p510
sg4
Vhindustani musician
p511
sg6
VRasoolan Bai was a leading Indian Hindustani classical music vocal musician.\u000a
p512
sg8
S'is a'
p513
sa(dp514
g2
Vrasoolan bai
p515
sg4
Vclassical musician
p516
sg6
VRasoolan Bai was a leading Indian Hindustani classical music vocal musician.\u000a
p517
sg8
S'is a'
p518
sa(dp519
g2
Vrasoolan bai
p520
sg4
Vlead musician
p521
sg6
VRasoolan Bai was a leading Indian Hindustani classical music vocal musician.\u000a
p522
sg8
S'is a'
p523
sa(dp524
g2
Vrasoolan bai
p525
sg4
Vindian musician
p526
sg6
VRasoolan Bai was a leading Indian Hindustani classical music vocal musician.\u000a
p527
sg8
S'is a'
p528
sa(dp529
g2
Vrasoolan bai
p530
sg4
Vmusic musician
p531
sg6
VRasoolan Bai was a leading Indian Hindustani classical music vocal musician.\u000a
p532
sg8
S'is a'
p533
sa(dp534
g2
Vgharana
p535
sg4
Vbenaras
p536
sg6
VBelonging to the Benaras gharana, she specialized in the romantic Purab Ang of the Thumri musical genre and tappa.\u000a
p537
sg8
Vgharana 's
p538
sa(dp539
g2
Vbaburaj
p540
sg4
Vmusic
p541
sg6
VBaburaj has rendered music to many evergreen Malayalam film songs.\u000a
p542
sg8
Vrender
p543
sa(dp544
g2
Vbaburaj
p545
sg4
V29_march_1921
p546
sg6
VBaburaj was born on 29 March 1921 in Kozhikode, then known as Calicut.\u000a
p547
sg8
Vbear on
p548
sa(dp549
g2
Vbaburaj
p550
sg4
Vkozhikode
p551
sg6
VBaburaj was born on 29 March 1921 in Kozhikode, then known as Calicut.\u000a
p552
sg8
Vbear in
p553
sa(dp554
g2
Vbaburaj
p555
sg4
Vfatherless song
p556
sg6
VBaburaj thus became a fatherless, often singing songs in trains to make a living.\u000a
p557
sg8
Vbecome
p558
sa(dp559
g2
Vbaburaj
p560
sg4
Vplayer
p561
sg6
VBaburaj was also an accomplished singer and harmonium player.\u000a
p562
sg8
S'is a'
p563
sa(dp564
g2
Vbaburaj
p565
sg4
Vsinger
p566
sg6
VBaburaj was also an accomplished singer and harmonium player.\u000a
p567
sg8
S'is a'
p568
sa(dp569
g2
Vbaburaj
p570
sg4
Vharmonium player
p571
sg6
VBaburaj was also an accomplished singer and harmonium player.\u000a
p572
sg8
S'is a'
p573
sa(dp574
g2
Vbaburaj
p575
sg4
Vaccomplished singer
p576
sg6
VBaburaj was also an accomplished singer and harmonium player.\u000a
p577
sg8
S'is a'
p578
sa(dp579
g2
Vbaburaj
p580
sg4
Vaccomplished player
p581
sg6
VBaburaj was also an accomplished singer and harmonium player.\u000a
p582
sg8
S'is a'
p583
sa(dp584
g2
Vbaburaj
p585
sg4
Vearly death
p586
sg6
VBaburaj died an early death, on 7 October 1978 at the age of 57.\u000a
p587
sg8
Vdie
p588
sa(dp589
g2
Vgharana
p590
sg4
Vpatiala
p591
sg6
VHis music is strongly influenced by thumri and khayal genres of the Patiala gharana.\u000a
p592
sg8
Vgharana 's
p593
sa(dp594
g2
Vkeherwa
p595
sg4
Vmany variation
p596
sg6
VKeherwa has many variations including dhumaali, bhajani, and qawwali.\u000a
p597
sg8
Vhave
p598
sa(dp599
g2
Vfaiyaz khan
p600
sg4
Vagra gharana
p601
sg6
VHe also received instruction from Anant Manohar Joshi and later under Faiyaz Khan of Agra gharana.\u000a
p602
sg8
Vof
p603
sa(dp604
g2
Vdhrupad
p605
sg4
Vstyle
p606
sg6
VAs a vocalist he sang Dhrupad and Khayal styles of Agra gharana.\u000a
p607
sg8
S'is a'
p608
sa(dp609
g2
Vdhrupad
p610
sg4
Vagra gharana
p611
sg6
VAs a vocalist he sang Dhrupad and Khayal styles of Agra gharana.\u000a
p612
sg8
Vstyle of
p613
sa(dp614
g2
Vdhrupad
p615
sg4
Vkhayal
p616
sg6
VAs a vocalist he sang Dhrupad and Khayal styles of Agra gharana.\u000a
p617
sg8
Vstyle 's
p618
sa(dp619
g2
Vgharana
p620
sg4
Vjaipur-atrauli
p621
sg6
VAs a vocalist of the Jaipur-Atrauli gharana, she has performed in numerous concerts and festivals in various cities.\u000a
p622
sg8
Vgharana 's
p623
sa(dp624
g2
Vgharana
p625
sg4
Vjaipur-atrauli
p626
sg6
VHer performance on AIR was heard by the maestro of the Jaipur-Atrauli gharana, Pandit Nivruttibua Sarnaik.\u000a
p627
sg8
Vgharana 's
p628
sa(dp629
g2
Vimrat khan
p630
sg4
Vsitar
p631
sg6
VImrat Khan is a leading sitar and surbahar player.\u000a
p632
sg8
S'is a'
p633
sa(dp634
g2
Vimrat khan
p635
sg4
Vplayer
p636
sg6
VImrat Khan is a leading sitar and surbahar player.\u000a
p637
sg8
S'is a'
p638
sa(dp639
g2
Vimrat khan
p640
sg4
Vlead sitar
p641
sg6
VImrat Khan is a leading sitar and surbahar player.\u000a
p642
sg8
S'is a'
p643
sa(dp644
g2
Vimrat khan
p645
sg4
Vsurbahar player
p646
sg6
VImrat Khan is a leading sitar and surbahar player.\u000a
p647
sg8
S'is a'
p648
sa(dp649
g2
Vimdad khan
p650
sg4
Vhis family
p651
sg6
VHe was still quite young when Imdad Khan moved to Kolkata from Etawah with his family.\u000a
p652
sg8
Vmove with
p653
sa(dp654
g2
Vimdad khan
p655
sg4
Vkolkata
p656
sg6
VHe was still quite young when Imdad Khan moved to Kolkata from Etawah with his family.\u000a
p657
sg8
Vmove to
p658
sa(dp659
g2
Vimdad khan
p660
sg4
Vetawah
p661
sg6
VHe was still quite young when Imdad Khan moved to Kolkata from Etawah with his family.\u000a
p662
sg8
Vmove from
p663
sa(dp664
g2
Vwahid khan
p665
sg4
Vpatiala_darbar
p666
sg6
VWahid Khan also served the Patiala Darbar for 3 years as its Court-musician.\u000a
p667
sg8
Vserve
p668
sa(dp669
g2
Vwahid khan
p670
sg4
Vall_india_radio
p671
sg6
VWahid Khan was a regular performer at the All India Radio.\u000a
p672
sg8
Vperformer at
p673
sa(dp674
g2
Vwahid khan
p675
sg4
Vperformer
p676
sg6
VWahid Khan was a regular performer at the All India Radio.\u000a
p677
sg8
S'is a'
p678
sa(dp679
g2
Vwahid khan
p680
sg4
Vregular performer
p681
sg6
VWahid Khan was a regular performer at the All India Radio.\u000a
p682
sg8
S'is a'
p683
sa(dp684
g2
Vbharatiya sangeet vadya
p685
sg4
Vbook
p686
sg6
VBharatiya Sangeet Vadya is a book written by Dr. Lalmani Misra.\u000a
p687
sg8
S'is a'
p688
sa(dp689
g2
Vkumar bose
p690
sg4
Vindian music
p691
sg6
VKumar Bose is an Indian tabla maestro and composer of Indian classical music.\u000a
p692
sg8
Vcomposer of
p693
sa(dp694
g2
Vkumar bose
p695
sg4
Vindian composer
p696
sg6
VKumar Bose is an Indian tabla maestro and composer of Indian classical music.\u000a
p697
sg8
S'is a'
p698
sa(dp699
g2
Vkumar bose
p700
sg4
Vtablum maestro
p701
sg6
VKumar Bose is an Indian tabla maestro and composer of Indian classical music.\u000a
p702
sg8
S'is a'
p703
sa(dp704
g2
Vkumar bose
p705
sg4
Vindian maestro
p706
sg6
VKumar Bose is an Indian tabla maestro and composer of Indian classical music.\u000a
p707
sg8
S'is a'
p708
sa(dp709
g2
Vkumar bose
p710
sg4
Vcomposer
p711
sg6
VKumar Bose is an Indian tabla maestro and composer of Indian classical music.\u000a
p712
sg8
S'is a'
p713
sa(dp714
g2
Vkumar bose
p715
sg4
Vmaestro
p716
sg6
VKumar Bose is an Indian tabla maestro and composer of Indian classical music.\u000a
p717
sg8
S'is a'
p718
sa(dp719
g2
Vequalize
p720
sg4
Vurban desi
p721
sg6
VEqualize is an Urban Desi album by the UK band Swami released on September 24, 2007.\u000a
p722
sg8
Valbum 's
p723
sa(dp724
g2
Vequalize
p725
sg4
Valbum
p726
sg6
VEqualize is an Urban Desi album by the UK band Swami released on September 24, 2007.\u000a
p727
sg8
S'is a'
p728
sa(dp729
g2
Vshafaatullah khan
p730
sg4
Vtablum
p731
sg6
VShafaatullah Khan is a tabla, sitar and surbahar player.\u000a
p732
sg8
S'is a'
p733
sa(dp734
g2
Vtafo khan
p735
sg4
Vgharana
p736
sg6
VTafo Khan was formed in the Punjab gharana.\u000a
p737
sg8
Vform in
p738
sa(dp739
g2
g736
sg4
Vpunjab
p740
sg6
VTafo Khan was formed in the Punjab gharana.\u000a
p741
sg8
Vgharana 's
p742
sa(dp743
g2
Vnatya sangeet
p744
sg4
Vform
p745
sg6
VNatya Sangeet is a form of Indian classical and semi-classical music.\u000a
p746
sg8
S'is a'
p747
sa(dp748
g2
Vnatya sangeet
p749
sg4
Vindian music
p750
sg6
VNatya Sangeet is a form of Indian classical and semi-classical music.\u000a
p751
sg8
Vform of
p752
sa(dp753
g2
Vnatya sangeet
p754
sg4
Vindian music
p755
sg6
VNatya Sangeet is a form of Indian classical and semi-classical music.\u000a
p756
sg8
Vform of
p757
sa(dp758
g2
Vmogubai kurdikar
p759
sg4
Vmusic vocalist
p760
sg6
VMogubai Kurdikar was a renowned Hindustani classical music vocalist of the Jaipur-Atrauli gharana.\u000a
p761
sg8
S'is a'
p762
sa(dp763
g2
Vmogubai kurdikar
p764
sg4
Vvocalist
p765
sg6
VMogubai Kurdikar was a renowned Hindustani classical music vocalist of the Jaipur-Atrauli gharana.\u000a
p766
sg8
S'is a'
p767
sa(dp768
g2
Vmogubai kurdikar
p769
sg4
Vclassical vocalist
p770
sg6
VMogubai Kurdikar was a renowned Hindustani classical music vocalist of the Jaipur-Atrauli gharana.\u000a
p771
sg8
S'is a'
p772
sa(dp773
g2
Vgharana
p774
sg4
Vjaipur-atrauli
p775
sg6
VMogubai Kurdikar was a renowned Hindustani classical music vocalist of the Jaipur-Atrauli gharana.\u000a
p776
sg8
Vgharana 's
p777
sa(dp778
g2
Vmogubai kurdikar
p779
sg4
g774
sg6
VMogubai Kurdikar was a renowned Hindustani classical music vocalist of the Jaipur-Atrauli gharana.\u000a
p780
sg8
Vvocalist of
p781
sa(dp782
g2
Vmogubai kurdikar
p783
sg4
Vrenowned hindustani
p784
sg6
VMogubai Kurdikar was a renowned Hindustani classical music vocalist of the Jaipur-Atrauli gharana.\u000a
p785
sg8
Vvocalist 's
p786
sa(dp787
g2
Valladiya khan
p788
sg4
Vbombay
p789
sg6
VAfter some eighteen months, Alladiya Khan moved to Bombay, and Mogu followed.\u000a
p790
sg8
Vmove to
p791
sa(dp792
g2
Valladiya khan
p793
sg4
Vmonth
p794
sg6
VAfter some eighteen months, Alladiya Khan moved to Bombay, and Mogu followed.\u000a
p795
sg8
Vmove after
p796
sa(dp797
g2
Varup chattopadhyay
p798
sg4
Vtablum player
p799
sg6
VArup Chattopadhyay is an Indian tabla player.\u000a
p800
sg8
S'is a'
p801
sa(dp802
g2
Varup chattopadhyay
p803
sg4
Vindian player
p804
sg6
VArup Chattopadhyay is an Indian tabla player.\u000a
p805
sg8
S'is a'
p806
sa(dp807
g2
Varup chattopadhyay
p808
sg4
Vplayer
p809
sg6
VArup Chattopadhyay is an Indian tabla player.\u000a
p810
sg8
S'is a'
p811
sa(dp812
g2
Vsadarang
p813
sg4
Vmusical composer
p814
sg6
VSadarang was the pen name of the Hindustani musical composer and artist Niyamat Khan.\u000a
p815
sg8
Vname of
p816
sa(dp817
g2
Vsadarang
p818
sg4
Vartist niyamat khan
p819
sg6
VSadarang was the pen name of the Hindustani musical composer and artist Niyamat Khan.\u000a
p820
sg8
Vname of
p821
sa(dp822
g2
Vsadarang
p823
sg4
Vname
p824
sg6
VSadarang was the pen name of the Hindustani musical composer and artist Niyamat Khan.\u000a
p825
sg8
S'is a'
p826
sa(dp827
g2
Vsadarang
p828
sg4
Vpen name
p829
sg6
VSadarang was the pen name of the Hindustani musical composer and artist Niyamat Khan.\u000a
p830
sg8
S'is a'
p831
sa(dp832
g2
Vsadarang
p833
sg4
Vtheir composition
p834
sg6
VSadarang and Adarang remain influential in Hindustani classical music, mainly through their compositions.\u000a
p835
sg8
Vinfluential through
p836
sa(dp837
g2
Vsadarang
p838
sg4
Vhindustani music
p839
sg6
VSadarang and Adarang remain influential in Hindustani classical music, mainly through their compositions.\u000a
p840
sg8
Vinfluential in
p841
sa(dp842
g2
Vgharana
p843
sg4
Vmusical tradition
p844
sg6
VThis gharana is claimed to combine the musical traditions of Delhi gharana, Gwalior Gharana and Jaipur-Atrauli Gharana.\u000a
p845
sg8
Vcombine
p846
sa(dp847
g2
Vgharana
p848
sg4
Vnotable pupil
p849
sg6
VThe gharana has many notable pupils including Ustad Bade Ghulam Ali Khan, Malika Pukhraj and Gauhar Jan.\u000a
p850
sg8
Vhave
p851
sa(dp852
g2
Vsurinder sandhu
p853
sg4
Vsarangi player
p854
sg6
VSurinder Sandhu is a sarangi player and composer.\u000a
p855
sg8
S'is a'
p856
sa(dp857
g2
Vsurinder sandhu
p858
sg4
Vplayer
p859
sg6
VSurinder Sandhu is a sarangi player and composer.\u000a
p860
sg8
S'is a'
p861
sa(dp862
g2
Vsurinder sandhu
p863
sg4
Vcomposer
p864
sg6
VSurinder Sandhu is a sarangi player and composer.\u000a
p865
sg8
S'is a'
p866
sa(dp867
g2
Vsurinder sandhu
p868
sg4
Vsarangi composer
p869
sg6
VSurinder Sandhu is a sarangi player and composer.\u000a
p870
sg8
S'is a'
p871
sa(dp872
g2
Vgharana
p873
sg4
Vsenia_rampur_moradabad
p874
sg6
VHe is a student of Sabri Khan of the Senia Rampur Moradabad gharana.\u000a
p875
sg8
Vgharana 's
p876
sa(dp877
g2
Vhirabai barodekar
p878
sg4
Vclassical singer
p879
sg6
VHirabai Barodekar was a renowned Indian Hindustani classical music singer, of Kirana gharana.\u000a
p880
sg8
S'is a'
p881
sa(dp882
g2
Vhirabai barodekar
p883
sg4
Vsinger
p884
sg6
VHirabai Barodekar was a renowned Indian Hindustani classical music singer, of Kirana gharana.\u000a
p885
sg8
S'is a'
p886
sa(dp887
g2
Vhirabai barodekar
p888
sg4
Vmusic singer
p889
sg6
VHirabai Barodekar was a renowned Indian Hindustani classical music singer, of Kirana gharana.\u000a
p890
sg8
S'is a'
p891
sa(dp892
g2
Vhirabai barodekar
p893
sg4
Vkirana gharana
p894
sg6
VHirabai Barodekar was a renowned Indian Hindustani classical music singer, of Kirana gharana.\u000a
p895
sg8
Vsinger of
p896
sa(dp897
g2
Vhirabai barodekar
p898
sg4
Vindian renowned hindustani
p899
sg6
VHirabai Barodekar was a renowned Indian Hindustani classical music singer, of Kirana gharana.\u000a
p900
sg8
Vsinger 's
p901
sa(dp902
g2
Vgharana
p903
sg4
Vjaipur
p904
sg6
VHe has received training in the Jaipur gharana.\u000a
p905
sg8
Vgharana 's
p906
sa(dp907
g2
Valka yagnik
p908
sg4
Vplayback singer
p909
sg6
VAlka Yagnik is amongst the best-known playback singers of Hindi cinema with a career spanning three decades.\u000a
p910
sg8
Vbe amongst
p911
sa(dp912
g2
Valka yagnik
p913
sg4
V20
p914
sg6
VAlka Yagnik was born in Kolkata on 20 March 1966.\u000a
p915
sg8
Vbear on
p916
sa(dp917
g2
Valka yagnik
p918
sg4
Vkolkata
p919
sg6
VAlka Yagnik was born in Kolkata on 20 March 1966.\u000a
p920
sg8
Vbear in
p921
sa(dp922
g2
Vpakad
p923
sg4
Vyaman
p924
sg6
VFor example, here is a pakad for raga Yaman, a prominent raga from Hindustani Music :.\u000a
p925
sg8
Vpakad for
p926
sa(dp927
g2
g923
sg4
Vexample
p928
sg6
VFor example, here is a pakad for raga Yaman, a prominent raga from Hindustani Music :.\u000a
p929
sg8
Vbe for
p930
sa(dp931
g2
Vsitar
p932
sg4
Vset
p933
sg6
V, Harrison picked up a sitar left on the set as a prop and attempted to play it.\u000a
p934
sg8
Vleave on
p935
sa(dp936
g2
g932
sg4
S'#unknown'
p937
sg6
V, Harrison picked up a sitar left on the set as a prop and attempted to play it.\u000a
p938
sg8
Vleave as
p939
sa(dp940
g2
g932
sg4
Vit
p941
sg6
V, Harrison picked up a sitar left on the set as a prop and attempted to play it.\u000a
p942
sg8
Vplay
p943
sa(dp944
g2
Vkirit khan
p945
sg4
Vkidney failure
p946
sg6
VKirit Khan died prematurely in 2006 due to kidney failure.\u000a
p947
sg8
Vdie to
p948
sa(dp949
g2
Vkirit khan
p950
sg4
V2006
p951
sg6
VKirit Khan died prematurely in 2006 due to kidney failure.\u000a
p952
sg8
Vdie in
p953
sa(dp954
g2
Vgharana
p955
sg4
Vparampara '
p956
sg6
VHe started a documentary film called ` Gharana and Parampara ' which has been sponsored by Government of India.\u000a
p957
sg8
S'is a'
p958
sa(dp959
g2
Vsitar
p960
sg4
Vindian_music_academy
p961
sg6
VHe was a visiting teacher on sitar in Indian Music Academy in Frankfurt, Germany.\u000a
p962
sg8
Vsitar in
p963
sa(dp964
g2
Vsantoor
p965
sg4
V13 age
p966
sg6
VLearning the santoor at age 13, he wasnt completely sure of pursuing music until he turned 17.\u000a
p967
sg8
Vlearn at
p968
sa(dp969
g2
Vgharana
p970
sg4
Vajrada
p971
sg6
VHe learnt the tabla performing art for years from Ustad Habeebuddin Khan, the doyen of the Ajrada gharana.\u000a
p972
sg8
Vgharana 's
p973
sa(dp974
g2
Vtappa
p975
sg4
Vvarious ornamentation
p976
sg6
VHe composed Tappa using various ornamentations with Taan, Jamjama, Khatka, etc.\u000a
p977
sg8
Vuse
p978
sa(dp979
g2
Vpannalal ghosh
p980
sg4
Vbackground
p981
sg6
VPannalal Ghosh jointly scoring the background for  Aandhiyan  in 1952 along with Ustad Ali Akbar Khan and Pandit Ravi Shankar.\u000a
p982
sg8
Vscore
p983
sa(dp984
g2
Vayaan ali khan
p985
sg4
Vseventh generation
p986
sg6
VAyaan Ali Khan represents the seventh generation of a musical lineage known as the Senia Bangash School.\u000a
p987
sg8
Vrepresent
p988
sa(dp989
g2
Varvind parikh
p990
sg4
Vplayer
p991
sg6
VArvind Parikh is a Hindustani classical musician and sitar player.\u000a
p992
sg8
S'is a'
p993
sa(dp994
g2
Varvind parikh
p995
sg4
Vclassical musician
p996
sg6
VArvind Parikh is a Hindustani classical musician and sitar player.\u000a
p997
sg8
S'is a'
p998
sa(dp999
g2
Varvind parikh
p1000
sg4
Vmusician
p1001
sg6
VArvind Parikh is a Hindustani classical musician and sitar player.\u000a
p1002
sg8
S'is a'
p1003
sa(dp1004
g2
Varvind parikh
p1005
sg4
Vsitar player
p1006
sg6
VArvind Parikh is a Hindustani classical musician and sitar player.\u000a
p1007
sg8
S'is a'
p1008
sa(dp1009
g2
Varvind parikh
p1010
sg4
Vhindustani
p1011
sg6
VArvind Parikh is a Hindustani classical musician and sitar player.\u000a
p1012
sg8
Vmusician 's
p1013
sa(dp1014
g2
Varvind parikh
p1015
sg4
Vperform career
p1016
sg6
VArvind Parikh is having a performing career spanning over six decades.\u000a
p1017
sg8
Vhave
p1018
sa(dp1019
g2
Varvind parikh
p1020
sg4
Vsix
p1021
sg6
VArvind Parikh is having a performing career spanning over six decades.\u000a
p1022
sg8
Vspan over
p1023
sa(dp1024
g2
Vsitar
p1025
sg4
Vfather his himself
p1026
sg6
VHe learned sitar from his father Ustad Rahim Bakhsh Khan, who himself was a student of Ustad Imdad Khan.\u000a
p1027
sg8
Vsitar from
p1028
sa(dp1029
g2
Vvichitra veena
p1030
sg4
Vkhan ustad_abdul_aziz beenkar
p1031
sg6
VHe learned vichitra veena from Ustad Abdul Aziz Khan Beenkar.\u000a
p1032
sg8
Vveena from
p1033
sa(dp1034
g2
Vgharana
p1035
sg4
Vsitar
p1036
sg6
VUstad Sharif Khan Poonchwala, belongs to Poonch gharana of sitar.\u000a
p1037
sg8
Vgharana of
p1038
sa(dp1039
g2
Vsitar
p1040
sg4
Vpakistan
p1041
sg6
VHe played a key role in promoting the sitar in Pakistan.\u000a
p1042
sg8
Vsitar in
p1043
sa(dp1044
g2
Vgharana
p1045
sg4
Vtabla
p1046
sg6
VPt Bhai Gaitonde, living legend of Farukhabad gharana of Tabla, received his initial training from Pt Jagannath Buwa.\u000a
p1047
sg8
Vgharana of
p1048
sa(dp1049
g2
g1045
sg4
Vfarukhabad
p1050
sg6
VPt Bhai Gaitonde, living legend of Farukhabad gharana of Tabla, received his initial training from Pt Jagannath Buwa.\u000a
p1051
sg8
Vgharana 's
p1052
sa(dp1053
g2
Vvilayat khan
p1054
sg4
Vadmiration
p1055
sg6
VHe not only received excellent training from Vilayat Khan but his admiration as well.\u000a
p1056
sg8
S'is a'
p1057
sa(dp1058
g2
Vvilayat khan
p1059
sg4
Vhis admiration
p1060
sg6
VHe not only received excellent training from Vilayat Khan but his admiration as well.\u000a
p1061
sg8
S'is a'
p1062
sa(dp1063
g2
Vbansuri guru
p1064
sg4
Vindian film
p1065
sg6
VBansuri Guru is a 2013 Indian documentary film about the life of classical instrumentalist Pandit Hariprasad Chaurasia.\u000a
p1066
sg8
S'is a'
p1067
sa(dp1068
g2
Vbansuri guru
p1069
sg4
Vdocumentary film
p1070
sg6
VBansuri Guru is a 2013 Indian documentary film about the life of classical instrumentalist Pandit Hariprasad Chaurasia.\u000a
p1071
sg8
S'is a'
p1072
sa(dp1073
g2
Vbansuri guru
p1074
sg4
V2013 film
p1075
sg6
VBansuri Guru is a 2013 Indian documentary film about the life of classical instrumentalist Pandit Hariprasad Chaurasia.\u000a
p1076
sg8
S'is a'
p1077
sa(dp1078
g2
Vbansuri guru
p1079
sg4
Vfilm
p1080
sg6
VBansuri Guru is a 2013 Indian documentary film about the life of classical instrumentalist Pandit Hariprasad Chaurasia.\u000a
p1081
sg8
S'is a'
p1082
sa(dp1083
g2
Vbansuri guru
p1084
sg4
Vlife
p1085
sg6
VBansuri Guru is a 2013 Indian documentary film about the life of classical instrumentalist Pandit Hariprasad Chaurasia.\u000a
p1086
sg8
Vfilm about
p1087
sa(dp1088
g2
Vgharana
p1089
sg4
Vjaipur-atrauli
p1090
sg6
VKesarbai Kerkar was an Indian classical vocalist of the Jaipur-Atrauli gharana.\u000a
p1091
sg8
Vgharana 's
p1092
sa(dp1093
g2
Vkalyani bondre
p1094
sg4
Vmusical family
p1095
sg6
VKalyani Bondre was born in Pune, India, into a musical family.\u000a
p1096
sg8
Vbear into
p1097
sa(dp1098
g2
Vkalyani bondre
p1099
sg4
Vpune
p1100
sg6
VKalyani Bondre was born in Pune, India, into a musical family.\u000a
p1101
sg8
Vbear in
p1102
sa(dp1103
g2
Vkalyani bondre
p1104
sg4
Vindia
p1105
sg6
VKalyani Bondre was born in Pune, India, into a musical family.\u000a
p1106
sg8
Vbear in
p1107
sa(dp1108
g2
Vsantoor
p1109
sg4
Vinstrument
p1110
sg6
VThe Santoor is a folk instrument from Kashmir and Jammu.\u000a
p1111
sg8
S'is a'
p1112
sa(dp1113
g2
Vsantoor
p1114
sg4
Vfolk instrument
p1115
sg6
VThe Santoor is a folk instrument from Kashmir and Jammu.\u000a
p1116
sg8
S'is a'
p1117
sa(dp1118
g2
Vsantoor
p1119
sg4
Vjammu
p1120
sg6
VThe Santoor is a folk instrument from Kashmir and Jammu.\u000a
p1121
sg8
Vinstrument from
p1122
sa(dp1123
g2
Vsantoor
p1124
sg4
Vkashmir
p1125
sg6
VThe Santoor is a folk instrument from Kashmir and Jammu.\u000a
p1126
sg8
Vinstrument from
p1127
sa(dp1128
g2
Vdildar hussain
p1129
sg4
Vtablum
p1130
sg6
VDildar Hussain learned tabla from Ustad Allah Rakha Khan.\u000a
p1131
sg8
Vlearn
p1132
sa(dp1133
g2
Vveena sahasrabuddhe
p1134
sg4
Vhindustani music
p1135
sg6
VVeena Sahasrabuddhe is a leading Indian vocalist and composer of Hindustani classical music.\u000a
p1136
sg8
Vcomposer of
p1137
sa(dp1138
g2
Vveena sahasrabuddhe
p1139
sg4
Vindian vocalist
p1140
sg6
VVeena Sahasrabuddhe is a leading Indian vocalist and composer of Hindustani classical music.\u000a
p1141
sg8
S'is a'
p1142
sa(dp1143
g2
Vveena sahasrabuddhe
p1144
sg4
Vvocalist
p1145
sg6
VVeena Sahasrabuddhe is a leading Indian vocalist and composer of Hindustani classical music.\u000a
p1146
sg8
S'is a'
p1147
sa(dp1148
g2
Vveena sahasrabuddhe
p1149
sg4
Vcomposer
p1150
sg6
VVeena Sahasrabuddhe is a leading Indian vocalist and composer of Hindustani classical music.\u000a
p1151
sg8
S'is a'
p1152
sa(dp1153
g2
Vveena sahasrabuddhe
p1154
sg4
Vlead vocalist
p1155
sg6
VVeena Sahasrabuddhe is a leading Indian vocalist and composer of Hindustani classical music.\u000a
p1156
sg8
S'is a'
p1157
sa(dp1158
g2
Vgharana
p1159
sg4
Vgwalior
p1160
sg6
VHer singing style has its roots in Gwalior gharana, but it also borrows from Jaipur and Kirana gharanas.\u000a
p1161
sg8
Vgharana 's
p1162
sa(dp1163
g2
Vsantoor
p1164
sg4
Vsharma
p1165
sg6
VKabra plays slide guitar, Sharma santoor, Chaurasia bansuri and Tabla was played by Manikrao Popatkar.\u000a
p1166
sg8
Vsantoor 's
p1167
sa(dp1168
g2
Vsuphala
p1169
sg4
Vtablum artist
p1170
sg6
VSuphala is a tabla artist, composer, and producer.\u000a
p1171
sg8
S'is a'
p1172
sa(dp1173
g2
Vsuphala
p1174
sg4
Vartist
p1175
sg6
VSuphala is a tabla artist, composer, and producer.\u000a
p1176
sg8
S'is a'
p1177
sa(dp1178
g2
Vsuphala
p1179
sg4
Vmusic
p1180
sg6
VBorn in the United States by Indian immigrant parents, Suphala has studied music in India.\u000a
p1181
sg8
Vstudy
p1182
sa(dp1183
g2
Vsuphala
p1184
sg4
Vfirst artist
p1185
sg6
VIn January 2005, Suphala was the first artist to perform in Afghanistan after the fall of the Taliban.\u000a
p1186
sg8
S'is a'
p1187
sa(dp1188
g2
Vsuphala
p1189
sg4
Vartist
p1190
sg6
VIn January 2005, Suphala was the first artist to perform in Afghanistan after the fall of the Taliban.\u000a
p1191
sg8
S'is a'
p1192
sa(dp1193
g2
Vsuphala
p1194
sg4
Vfall
p1195
sg6
VIn January 2005, Suphala was the first artist to perform in Afghanistan after the fall of the Taliban.\u000a
p1196
sg8
Vperform after
p1197
sa(dp1198
g2
Vsuphala
p1199
sg4
Vafghanistan
p1200
sg6
VIn January 2005, Suphala was the first artist to perform in Afghanistan after the fall of the Taliban.\u000a
p1201
sg8
Vperform in
p1202
sa(dp1203
g2
Vgharana
p1204
sg4
Vhindustani music
p1205
sg6
VPandit Jnan Prakash Ghosh was an Indian tabla player from Farukhabad gharana of Hindustani classical music and musicologist.\u000a
p1206
sg8
Vgharana of
p1207
sa(dp1208
g2
g1204
sg4
Vmusicologist
p1209
sg6
VPandit Jnan Prakash Ghosh was an Indian tabla player from Farukhabad gharana of Hindustani classical music and musicologist.\u000a
p1210
sg8
Vgharana of
p1211
sa(dp1212
g2
g1204
sg4
Vfarukhabad
p1213
sg6
VPandit Jnan Prakash Ghosh was an Indian tabla player from Farukhabad gharana of Hindustani classical music and musicologist.\u000a
p1214
sg8
Vgharana 's
p1215
sa(dp1216
g2
Vbadeji khan
p1217
sg4
Vutd
p1218
sg6
VBadeji Khan was the first son and child of Utd.\u000a
p1219
sg8
Vchild of
p1220
sa(dp1221
g2
Vbadeji khan
p1222
sg4
Vson
p1223
sg6
VBadeji Khan was the first son and child of Utd.\u000a
p1224
sg8
S'is a'
p1225
sa(dp1226
g2
Vbadeji khan
p1227
sg4
Vfirst child
p1228
sg6
VBadeji Khan was the first son and child of Utd.\u000a
p1229
sg8
S'is a'
p1230
sa(dp1231
g2
Vbadeji khan
p1232
sg4
Vfirst son
p1233
sg6
VBadeji Khan was the first son and child of Utd.\u000a
p1234
sg8
S'is a'
p1235
sa(dp1236
g2
Vbadeji khan
p1237
sg4
Vchild
p1238
sg6
VBadeji Khan was the first son and child of Utd.\u000a
p1239
sg8
S'is a'
p1240
sa(dp1241
g2
Valladiya khan
p1242
sg4
Vprospective student
p1243
sg6
VAlladiya Khan, being his fathers most prospective student.\u000a
p1244
sg8
Vbe
p1245
sa(dp1246
g2
Vbadeji khan
p1247
sg4
Vhis tutelage
p1248
sg6
VBadeji Khan was not able to complete his musical tutelage due to health ailments related to Cricket.\u000a
p1249
sg8
Vcomplete
p1250
sa(dp1251
g2
Vbadeji khan
p1252
sg4
Vmusic briefly
p1253
sg6
VBadeji Khan continued learning music briefly from his cousin, Utd.\u000a
p1254
sg8
Vlearn
p1255
sa(dp1256
g2
Vbadeji khan
p1257
sg4
Vnotable disciple
p1258
sg6
VBadeji Khan did not produce notable disciples.\u000a
p1259
sg8
Vnot produce
p1260
sa(dp1261
g2
Vgharana
p1262
sg4
Vagra
p1263
sg6
VShe belonged to the Agra gharana.\u000a
p1264
sg8
Vgharana 's
p1265
sa(dp1266
g2
Vgharana
p1267
sg4
Vth century
p1268
sg6
VThe gharana is believed to have been founded in the 16th century by.\u000a
p1269
sg8
Vfound in
p1270
sa(dp1271
g2
Virshad khan
p1272
sg4
Vsurbahar
p1273
sg6
VIrshad Khan is a surbahar and sitar player based in Canada.\u000a
p1274
sg8
S'is a'
p1275
sa(dp1276
g2
Virshad khan
p1277
sg4
Vsitar player
p1278
sg6
VIrshad Khan is a surbahar and sitar player based in Canada.\u000a
p1279
sg8
S'is a'
p1280
sa(dp1281
g2
Virshad khan
p1282
sg4
Vplayer
p1283
sg6
VIrshad Khan is a surbahar and sitar player based in Canada.\u000a
p1284
sg8
S'is a'
p1285
sa(dp1286
g2
Virshad khan
p1287
sg4
Vuniversal_academy_for_musicians
p1288
sg6
VIrshad Khan is the founder / president of Universal Academy for Musicians, based in Mississauga and Mumbai.\u000a
p1289
sg8
Vpresident of
p1290
sa(dp1291
g2
Virshad khan
p1292
sg4
Vfounder president
p1293
sg6
VIrshad Khan is the founder / president of Universal Academy for Musicians, based in Mississauga and Mumbai.\u000a
p1294
sg8
S'is a'
p1295
sa(dp1296
g2
Virshad khan
p1297
sg4
V/ president
p1298
sg6
VIrshad Khan is the founder / president of Universal Academy for Musicians, based in Mississauga and Mumbai.\u000a
p1299
sg8
S'is a'
p1300
sa(dp1301
g2
Virshad khan
p1302
sg4
Vpresident
p1303
sg6
VIrshad Khan is the founder / president of Universal Academy for Musicians, based in Mississauga and Mumbai.\u000a
p1304
sg8
S'is a'
p1305
sa(dp1306
g2
Vgharana
p1307
sg4
Vgwalior
p1308
sg6
VHe belongs to the Gwalior gharana and the lineage of Sangeet Maharshi Pandit Vishnu Digambar Paluskar contributed to his background.\u000a
p1309
sg8
Vgharana 's
p1310
sa(dp1311
g2
Vvidyadhar vyas
p1312
sg4
Vgayanacharya_pandit_narayanrao_vyas
p1313
sg6
VVidyadhar Vyas was born in Maharashtra to Gayanacharya Pandit Narayanrao Vyas, a disciple of Pandit Paluskar.\u000a
p1314
sg8
Vbear to
p1315
sa(dp1316
g2
Vvidyadhar vyas
p1317
sg4
Vmaharashtra
p1318
sg6
VVidyadhar Vyas was born in Maharashtra to Gayanacharya Pandit Narayanrao Vyas, a disciple of Pandit Paluskar.\u000a
p1319
sg8
Vbear in
p1320
sa(dp1321
g2
Vgharana
p1322
sg4
Vpatiala
p1323
sg6
VThe Patiala gharana tends to favor pentatonic ragas for their ornamentation and execution of intricate taans.\u000a
p1324
sg8
Vgharana 's
p1325
sa(dp1326
g2
g1322
sg4
Vpentatonic raga
p1327
sg6
VThe Patiala gharana tends to favor pentatonic ragas for their ornamentation and execution of intricate taans.\u000a
p1328
sg8
Vfavor
p1329
sa(dp1330
g2
Vraju ananthaswamy
p1331
sg4
Vtablum
p1332
sg6
VRaju Ananthaswamy displayed musical aptitude from a young age and began playing tabla in his father 's troupe.\u000a
p1333
sg8
Vplay
p1334
sa(dp1335
g2
Vraju ananthaswamy
p1336
sg4
Vmusical aptitude
p1337
sg6
VRaju Ananthaswamy displayed musical aptitude from a young age and began playing tabla in his father 's troupe.\u000a
p1338
sg8
Vdisplay
p1339
sa(dp1340
g2
Vraju ananthaswamy
p1341
sg4
Vtalented singer
p1342
sg6
VRaju Ananthaswamy has been the most talented singer in recent times.\u000a
p1343
sg8
Vbe
p1344
sa(dp1345
g2
Vjugalbandi
p1346
sg4
Vlead instrumentalist
p1347
sg6
VMajumdar is also known for a number of collaborations and jugalbandis with other leading instrumentalists.\u000a
p1348
sg8
Vjugalbandi with
p1349
sa(dp1350
g2
Vagra gharana
p1351
sg4
Vjaipur
p1352
sg6
VHe studied under Ustad Khadim Hussain of Agra gharana, who settled in Mumbai from Jaipur.\u000a
p1353
sg8
Vsettle from
p1354
sa(dp1355
g2
Vagra gharana
p1356
sg4
Vmumbai
p1357
sg6
VHe studied under Ustad Khadim Hussain of Agra gharana, who settled in Mumbai from Jaipur.\u000a
p1358
sg8
Vsettle in
p1359
sa(dp1360
g2
Vgayaki
p1361
sg4
Vother
p1362
sg6
VIn Dilli Gharana, Gayaki is quite different from others.\u000a
p1363
sg8
Vdifferent from
p1364
sa(dp1365
g2
Vgayaki
p1366
sg4
Vdilli_gharana
p1367
sg6
VIn Dilli Gharana, Gayaki is quite different from others.\u000a
p1368
sg8
Vdifferent in
p1369
sa(dp1370
g2
Vraga
p1371
sg4
Vfirst raginus
p1372
sg6
VThis raga appears in the Ragmala as the first ragini of Sri raga.\u000a
p1373
sg8
Vappear as
p1374
sa(dp1375
g2
g1371
sg4
Vragmala
p1376
sg6
VThis raga appears in the Ragmala as the first ragini of Sri raga.\u000a
p1377
sg8
Vappear in
p1378
sa(dp1379
g2
Vraga
p1380
sg4
Vsri
p1381
sg6
VThis raga appears in the Ragmala as the first ragini of Sri raga.\u000a
p1382
sg8
Vraga 's
p1383
sa(dp1384
g2
Vbairari
p1385
sg4
Vregional tune
p1386
sg6
VThe possibility always exists that Bairari was a regional tune.\u000a
p1387
sg8
S'is a'
p1388
sa(dp1389
g2
Vbairari
p1390
sg4
Vtune
p1391
sg6
VThe possibility always exists that Bairari was a regional tune.\u000a
p1392
sg8
S'is a'
p1393
sa(dp1394
g2
Vraga
p1395
sg4
Vevening
p1396
sg6
VThis raga is performed during the evening and it is currently assigned to the Marva thata.\u000a
p1397
sg8
Vperform during
p1398
sa(dp1399
g2
Vraga
p1400
sg4
Vpage
p1401
sg6
VIn the Guru Granth Sahib there are 2 pages dedicated to this raga from page 719 to 721.\u000a
p1402
sg8
Vraga from
p1403
sa(dp1404
g2
Vbandish
p1405
sg4
Vliterature element
p1406
sg6
VA bandish provides the literature element in the music, for standard structured singing.\u000a
p1407
sg8
Vprovide
p1408
sa(dp1409
g2
Vswara
p1410
sg4
Vsanskrit
p1411
sg6
VIn the context of Indian classical music, Swara is a Sanskrit word that means a note in the octave.\u000a
p1412
sg8
Vword 's
p1413
sa(dp1414
g2
Vswara
p1415
sg4
Vnote
p1416
sg6
VIn the context of Indian classical music, Swara is a Sanskrit word that means a note in the octave.\u000a
p1417
sg8
Vmean
p1418
sa(dp1419
g2
Vswara
p1420
sg4
Vword
p1421
sg6
VIn the context of Indian classical music, Swara is a Sanskrit word that means a note in the octave.\u000a
p1422
sg8
S'is a'
p1423
sa(dp1424
g2
Vswara
p1425
sg4
Vmusic
p1426
sg6
VThe swaras in Carnatic music are slightly different in the twelve-note system.\u000a
p1427
sg8
Vswara in
p1428
sa(dp1429
g2
Vswara
p1430
sg4
Vone
p1431
sg6
VAlso, each swara is associated with one of the seven chakras of the body.\u000a
p1432
sg8
Vassociate with
p1433
sa(dp1434
g2
Vsriram parasuram
p1435
sg4
Vhindustani vocalist
p1436
sg6
VSriram Parasuram is an Hindustani classical vocalist.\u000a
p1437
sg8
S'is a'
p1438
sa(dp1439
g2
Vsriram parasuram
p1440
sg4
Vvocalist
p1441
sg6
VSriram Parasuram is an Hindustani classical vocalist.\u000a
p1442
sg8
S'is a'
p1443
sa(dp1444
g2
Vsriram parasuram
p1445
sg4
Vclassical vocalist
p1446
sg6
VSriram Parasuram is an Hindustani classical vocalist.\u000a
p1447
sg8
S'is a'
p1448
sa(dp1449
g2
Vjhala
p1450
sg4
Vclassical music
p1451
sg6
VJhala is a term in Hindustani classical music which denotes the fast-paced conclusions of classical compositions or raga.\u000a
p1452
sg8
Vterm in
p1453
sa(dp1454
g2
Vjhala
p1455
sg4
Vterm
p1456
sg6
VJhala is a term in Hindustani classical music which denotes the fast-paced conclusions of classical compositions or raga.\u000a
p1457
sg8
S'is a'
p1458
sa(dp1459
g2
Vraga
p1460
sg4
Vseries
p1461
sg6
VA raga uses a series of five or more musical notes upon which a melody is constructed.\u000a
p1462
sg8
Vuse
p1463
sa(dp1464
g2
Vraga
p1465
sg4
Vparticular time
p1466
sg6
VMany Hindustani ragas are prescribed for the particular time of a day or a season.\u000a
p1467
sg8
Vprescribe for
p1468
sa(dp1469
g2
g1465
sg4
Vmany hindustani
p1470
sg6
VMany Hindustani ragas are prescribed for the particular time of a day or a season.\u000a
p1471
sg8
Vraga 's
p1472
sa(dp1473
g2
Vraga
p1474
sg4
Vits effect
p1475
sg6
VWhen performed at the suggested time, the raga has its maximum effect.\u000a
p1476
sg8
Vhave
p1477
sa(dp1478
g2
Vraga
p1479
sg4
Vdescend order
p1480
sg6
VThose ragas that do not follow the strict ascending or descending order of swaras are called vakra ragas.\u000a
p1481
sg8
Vnot follow
p1482
sa(dp1483
g2
g1479
sg4
Vstrict ascending
p1484
sg6
VThose ragas that do not follow the strict ascending or descending order of swaras are called vakra ragas.\u000a
p1485
sg8
g1482
sa(dp1486
g2
Vraga
p1487
sg4
Vjanya
p1488
sg6
VIn Carnatic music, ragas are classified as Janaka ragas and Janya ragas.\u000a
p1489
sg8
Vraga 's
p1490
sa(dp1491
g2
Vraga
p1492
sg4
Vjanya
p1493
sg6
VIn Carnatic music, ragas are classified as Janaka ragas and Janya ragas.\u000a
p1494
sg8
Vraga 's
p1495
sa(dp1496
g2
Vraga
p1497
sg4
g1487
sg6
VIn Carnatic music, ragas are classified as Janaka ragas and Janya ragas.\u000a
p1498
sg8
Vclassify as
p1499
sa(dp1500
g2
g1497
sg4
g1492
sg6
VIn Carnatic music, ragas are classified as Janaka ragas and Janya ragas.\u000a
p1501
sg8
Vclassify as
p1502
sa(dp1503
g2
g1497
sg4
Vmusic
p1504
sg6
VIn Carnatic music, ragas are classified as Janaka ragas and Janya ragas.\u000a
p1505
sg8
Vclassify in
p1506
sa(dp1507
g2
Vraga
p1508
sg4
Vjanaka
p1509
sg6
VJanaka ragas are the ragas from which the Janya ragas are created.\u000a
p1510
sg8
Vraga 's
p1511
sa(dp1512
g2
Vraga
p1513
sg4
Vjanaka
p1514
sg6
VJanaka ragas are the ragas from which the Janya ragas are created.\u000a
p1515
sg8
Vraga 's
p1516
sa(dp1517
g2
Vraga
p1518
sg4
Vscheme
p1519
sg6
VJanaka ragas are grouped together using a scheme called Katapayadi sutra and are organised as Melakarta ragas.\u000a
p1520
sg8
Vuse
p1521
sa(dp1522
g2
g1518
sg4
Vjanaka
p1523
sg6
VJanaka ragas are grouped together using a scheme called Katapayadi sutra and are organised as Melakarta ragas.\u000a
p1524
sg8
Vraga 's
p1525
sa(dp1526
g2
Vraga
p1527
sg4
Vjanaka
p1528
sg6
VJanaka ragas are grouped together using a scheme called Katapayadi sutra and are organised as Melakarta ragas.\u000a
p1529
sg8
Vraga 's
p1530
sa(dp1531
g2
g1518
sg4
g1527
sg6
VJanaka ragas are grouped together using a scheme called Katapayadi sutra and are organised as Melakarta ragas.\u000a
p1532
sg8
Vorganise as
p1533
sa(dp1534
g2
Vraga
p1535
sg4
Vmelakarta
p1536
sg6
VSome Melakarta ragas are Harikambhoji, Kalyani, Kharaharapriya, Mayamalavagowla, Sankarabharanam and Todi.\u000a
p1537
sg8
Vraga 's
p1538
sa(dp1539
g2
Vraga
p1540
sg4
Vjanya
p1541
sg6
VJanya ragas are derived from the Janaka ragas using a combination of the swarams from the parent raga.\u000a
p1542
sg8
Vraga 's
p1543
sa(dp1544
g2
g1540
sg4
Vraga
p1545
sg6
VJanya ragas are derived from the Janaka ragas using a combination of the swarams from the parent raga.\u000a
p1546
sg8
Vderive from
p1547
sa(dp1548
g2
g1545
sg4
Vjanya
p1549
sg6
VJanya ragas are derived from the Janaka ragas using a combination of the swarams from the parent raga.\u000a
p1550
sg8
Vraga 's
p1551
sa(dp1552
g2
g1540
sg4
Vcombination
p1553
sg6
VJanya ragas are derived from the Janaka ragas using a combination of the swarams from the parent raga.\u000a
p1554
sg8
Vuse
p1555
sa(dp1556
g2
Vraga
p1557
sg4
Vdefinite collection
p1558
sg6
VEach raga has a definite collection and orders of swaras.\u000a
p1559
sg8
Vhave
p1560
sa(dp1561
g2
g1557
sg4
Vorder
p1562
sg6
VEach raga has a definite collection and orders of swaras.\u000a
p1563
sg8
g1560
sa(dp1564
g2
Vgharana
p1565
sg4
Vsenia
p1566
sg6
VSharat Chandra Srivastava is a North Indian classical violinist of the Senia gharana.\u000a
p1567
sg8
Vgharana 's
p1568
sa(dp1569
g2
Vthumri
p1570
sg4
Vexpression
p1571
sg6
VThe Thumri is an expression of Shringar Rasa - a passionate, playful utterances of the young woman in love.\u000a
p1572
sg8
S'is a'
p1573
sa(dp1574
g2
Vthumri
p1575
sg4
Vshringar rasa
p1576
sg6
VThe Thumri is an expression of Shringar Rasa - a passionate, playful utterances of the young woman in love.\u000a
p1577
sg8
Vexpression of
p1578
sa(dp1579
g2
Vthumri
p1580
sg4
Vplayful utterance
p1581
sg6
VThe Thumri is an expression of Shringar Rasa - a passionate, playful utterances of the young woman in love.\u000a
p1582
sg8
Vexpression -
p1583
sa(dp1584
g2
Vthumri
p1585
sg4
Vpassionate
p1586
sg6
VThe Thumri is an expression of Shringar Rasa - a passionate, playful utterances of the young woman in love.\u000a
p1587
sg8
Vexpression -
p1588
sa(dp1589
g2
Vragini trivedi
p1590
sg4
Vvichitra veena
p1591
sg6
VRagini Trivedi is Indian classical musician performing on vichitra veena, sitar and jal tarang.\u000a
p1592
sg8
Vperform on
p1593
sa(dp1594
g2
Vragini trivedi
p1595
sg4
Vmusician
p1596
sg6
VRagini Trivedi is Indian classical musician performing on vichitra veena, sitar and jal tarang.\u000a
p1597
sg8
S'is a'
p1598
sa(dp1599
g2
Vragini trivedi
p1600
sg4
Vindian musician
p1601
sg6
VRagini Trivedi is Indian classical musician performing on vichitra veena, sitar and jal tarang.\u000a
p1602
sg8
S'is a'
p1603
sa(dp1604
g2
Vragini trivedi
p1605
sg4
Vclassical musician
p1606
sg6
VRagini Trivedi is Indian classical musician performing on vichitra veena, sitar and jal tarang.\u000a
p1607
sg8
S'is a'
p1608
sa(dp1609
g2
Vomkarnath thakur
p1610
sg4
Vground floor
p1611
sg6
VOmkarnath Thakur stayed on the ground floor.Thus aesthetics and academics of music helped refine sensibilities of the chidren.\u000a
p1612
sg8
Vstay on
p1613
sa(dp1614
g2
Vvichitra veena
p1615
sg4
Vbhopal
p1616
sg6
VVichitra Veena was first presented at Bharat Bhawan, Bhopal.\u000a
p1617
sg8
Vpresent at
p1618
sa(dp1619
g2
Vvichitra veena
p1620
sg4
Vbharat_bhawan
p1621
sg6
VVichitra Veena was first presented at Bharat Bhawan, Bhopal.\u000a
p1622
sg8
Vpresent at
p1623
sa(dp1624
g2
Vshankar jaikishan
p1625
sg4
Vwestern classical
p1626
sg6
VShankar Jaikishan also used the western classical - based waltz rhythm in a number of songs.\u000a
p1627
sg8
Vuse
p1628
sa(dp1629
g2
Vshankar jaikishan
p1630
sg4
Vmajor contribution
p1631
sg6
VShankar Jaikishan made a major contribution towards the development of Jazz music in India and the new genre Indo Jazz.\u000a
p1632
sg8
Vmake
p1633
sa(dp1634
g2
Vraga
p1635
sg4
Vits rule
p1636
sg6
VIn addition each raga has its natural register and portamento rules.\u000a
p1637
sg8
Vhave
p1638
sa(dp1639
g2
Vdhrupad
p1640
sg4
Vstructure
p1641
sg6
VHe created the qawwali genre, which fuses Persian melody and beat on a dhrupad like structure.\u000a
p1642
sg8
Vdhrupad like
p1643
sa(dp1644
g2
Vsadarang
p1645
sg4
Vfather
p1646
sg6
VThey suggest that while khyal already existed in some form, Sadarang may have been the father of modern khyal.\u000a
p1647
sg8
Vbe
p1648
sa(dp1649
g2
Vvishnu digambar paluskar
p1650
sg4
V12 age
p1651
sg6
VVishnu Digambar Paluskar emerged as a talented musician and organizer despite having been blinded at age 12.\u000a
p1652
sg8
Vhave at
p1653
sa(dp1654
g2
Vvishnu digambar paluskar
p1655
sg4
Vtalented organizer
p1656
sg6
VVishnu Digambar Paluskar emerged as a talented musician and organizer despite having been blinded at age 12.\u000a
p1657
sg8
Vemerge as
p1658
sa(dp1659
g2
Vvishnu digambar paluskar
p1660
sg4
Vtalented organizer
p1661
sg6
VVishnu Digambar Paluskar emerged as a talented musician and organizer despite having been blinded at age 12.\u000a
p1662
sg8
Vemerge as
p1663
sa(dp1664
g2
Vraga
p1665
sg4
Vhindustani
p1666
sg6
VA typical rendition of Hindustani raga involves two stages :.\u000a
p1667
sg8
Vraga 's
p1668
sa(dp1669
g2
Vdhrupad
p1670
sg4
Vold style
p1671
sg6
VDhrupad is an old style of singing, traditionally performed by male singers.\u000a
p1672
sg8
S'is a'
p1673
sa(dp1674
g2
Vdhrupad
p1675
sg4
Vstyle
p1676
sg6
VDhrupad is an old style of singing, traditionally performed by male singers.\u000a
p1677
sg8
S'is a'
p1678
sa(dp1679
g2
Vdhrupad
p1680
sg4
Vsinging
p1681
sg6
VDhrupad is an old style of singing, traditionally performed by male singers.\u000a
p1682
sg8
Vstyle of
p1683
sa(dp1684
g2
Valap
p1685
sg4
Vjhalum section
p1686
sg6
VThe alap gradually unfolds into more rhythmic jod and jhala sections.\u000a
p1687
sg8
Vunfold into
p1688
sa(dp1689
g2
Vkhyal
p1690
sg4
Vvocal music
p1691
sg6
VKhyal is a Hindustani form of vocal music, adopted from medieval Persian music and based on Dhrupad.\u000a
p1692
sg8
Vform of
p1693
sa(dp1694
g2
Vkhyal
p1695
sg4
Vpersian music
p1696
sg6
VKhyal is a Hindustani form of vocal music, adopted from medieval Persian music and based on Dhrupad.\u000a
p1697
sg8
Vadopt from
p1698
sa(dp1699
g2
Vkhyal
p1700
sg4
Vhindustani form
p1701
sg6
VKhyal is a Hindustani form of vocal music, adopted from medieval Persian music and based on Dhrupad.\u000a
p1702
sg8
S'is a'
p1703
sa(dp1704
g2
Vkhyal
p1705
sg4
Vform
p1706
sg6
VKhyal is a Hindustani form of vocal music, adopted from medieval Persian music and based on Dhrupad.\u000a
p1707
sg8
S'is a'
p1708
sa(dp1709
g2
Vkhyal
p1710
sg4
Vdhrupad
p1711
sg6
VKhyal is a Hindustani form of vocal music, adopted from medieval Persian music and based on Dhrupad.\u000a
p1712
sg8
Vbase on
p1713
sa(dp1714
g2
Vkhyal
p1715
sg4
Veight-line lyric
p1716
sg6
VA Khyal is a two - to eight-line lyric set to a melody.\u000a
p1717
sg8
Vto
p1718
sa(dp1719
g2
Vkhyal
p1720
sg4
Vgreater embellishment
p1721
sg6
VKhyal contains a greater variety embellishments and ornamentations compared to dhrupad.\u000a
p1722
sg8
Vcontain
p1723
sa(dp1724
g2
Vkhyal
p1725
sg4
Vornamentation
p1726
sg6
VKhyal contains a greater variety embellishments and ornamentations compared to dhrupad.\u000a
p1727
sg8
g1723
sa(dp1728
g2
Vraga
p1729
sg4
Vkhyal
p1730
sg6
VThe singer improvises and finds inspiration within the raga to depict the Khyal.\u000a
p1731
sg8
Vdepict
p1732
sa(dp1733
g2
Venayat khan
p1734
sg4
Vfamily
p1735
sg6
VEnayat Khan was born in Uttar Pradesh into a family of musicians.\u000a
p1736
sg8
Vbear into
p1737
sa(dp1738
g2
Venayat khan
p1739
sg4
Vuttar_pradesh
p1740
sg6
VEnayat Khan was born in Uttar Pradesh into a family of musicians.\u000a
p1741
sg8
Vbear in
p1742
sa(dp1743
g2
Venayat khan
p1744
sg4
Vfour
p1745
sg6
VEnayat Khan died young, with four children.\u000a
p1746
sg8
Vdie with
p1747
sa(dp1748
g2
Vraga
p1749
sg4
Vlaya tempo
p1750
sg6
VThe slow melodic development of the raga in Vilambit laya slow tempo was the most characteristic aspect of his music.\u000a
p1751
sg8
Vraga in
p1752
sa(dp1753
g2
Vgharana
p1754
sg4
Vgwalior
p1755
sg6
VHe was also influenced by Rehmet Khan of the Gwalior gharana and adopted the direct style of presentation.\u000a
p1756
sg8
Vgharana 's
p1757
sa(dp1758
g2
Vgharana
p1759
sg4
Vbanaras
p1760
sg6
VGirija Devi is an Indian classical singer of the Banaras gharana.\u000a
p1761
sg8
Vgharana 's
p1762
sa(dp1763
g2
Vsipra bose
p1764
sg4
Vkolkata
p1765
sg6
VSipra Bose was a noted singer in the Hindustani classical music tradition from Kolkata, India.\u000a
p1766
sg8
Vsinger from
p1767
sa(dp1768
g2
Vsipra bose
p1769
sg4
Vindia
p1770
sg6
VSipra Bose was a noted singer in the Hindustani classical music tradition from Kolkata, India.\u000a
p1771
sg8
Vsinger from
p1772
sa(dp1773
g2
Vsipra bose
p1774
sg4
Vclassical tradition
p1775
sg6
VSipra Bose was a noted singer in the Hindustani classical music tradition from Kolkata, India.\u000a
p1776
sg8
Vsinger in
p1777
sa(dp1778
g2
Vsipra bose
p1779
sg4
Vnoted singer
p1780
sg6
VSipra Bose was a noted singer in the Hindustani classical music tradition from Kolkata, India.\u000a
p1781
sg8
S'is a'
p1782
sa(dp1783
g2
Vsipra bose
p1784
sg4
Vsinger
p1785
sg6
VSipra Bose was a noted singer in the Hindustani classical music tradition from Kolkata, India.\u000a
p1786
sg8
S'is a'
p1787
sa(dp1788
g2
Vgharana
p1789
sg4
Vbenaras
p1790
sg6
VShe also worked with Naina Devi of the Benaras gharana and Pandit Ravi Shankar.\u000a
p1791
sg8
Vgharana 's
p1792
sa(dp1793
g2
Vgharana
p1794
sg4
Vdagar-bani
p1795
sg6
VThis Gharana mainly evolved from Dagar-bani of Dhrupad, however it also absorbed finer essence of Gauhar-bani and Khandar-bani.\u000a
p1796
sg8
Vevolve from
p1797
sa(dp1798
g2
Valladiya khan
p1799
sg4
Vcourt musician
p1800
sg6
VAlladiya Khan migrated to the court of Shahu Maharaj in Kolhapur and became his court musician.\u000a
p1801
sg8
Vbecome
p1802
sa(dp1803
g2
Valladiya khan
p1804
sg4
Vcourt
p1805
sg6
VAlladiya Khan migrated to the court of Shahu Maharaj in Kolhapur and became his court musician.\u000a
p1806
sg8
Vmigrate to
p1807
sa(dp1808
g2
Vmeend
p1809
sg4
Vinfluence
p1810
sg6
VThe Meend of his gayaki can be traced to this influence.\u000a
p1811
sg8
Vtrace to
p1812
sa(dp1813
g2
g1809
sg4
Vhis gayakus
p1814
sg6
VThe Meend of his gayaki can be traced to this influence.\u000a
p1815
sg8
Vmeend of
p1816
sa(dp1817
g2
Vmeend
p1818
sg4
Vaalap
p1819
sg6
VMeend in aalap and gamak in taan are the hallmark of this gayaki.\u000a
p1820
sg8
Vin
p1821
sa(dp1822
g2
Vmeend
p1823
sg4
Vgamak
p1824
sg6
VMeend in aalap and gamak in taan are the hallmark of this gayaki.\u000a
p1825
sg8
S'is a'
p1826
sa(dp1827
g2
Vmeend
p1828
sg4
Vhallmark
p1829
sg6
VMeend in aalap and gamak in taan are the hallmark of this gayaki.\u000a
p1830
sg8
S'is a'
p1831
sa(dp1832
g2
Vmeend
p1833
sg4
Vgayakus
p1834
sg6
VMeend in aalap and gamak in taan are the hallmark of this gayaki.\u000a
p1835
sg8
Vhallmark of
p1836
sa(dp1837
g2
Vmeend
p1838
sg4
Vtaan
p1839
sg6
VMeend in aalap and gamak in taan are the hallmark of this gayaki.\u000a
p1840
sg8
Vgamak in
p1841
sa(dp1842
g2
Vgharana
p1843
sg4
Vjaipur-atrauli
p1844
sg6
VShruti Sadolikar Katkar is an Indian classical singer of the khyal style in the Jaipur-Atrauli gharana.\u000a
p1845
sg8
Vgharana 's
p1846
sa(dp1847
g2
Vbhajan sopori
p1848
sg4
Vindian instrumentalist
p1849
sg6
VBhajan Sopori is an Indian instrumentalist.\u000a
p1850
sg8
S'is a'
p1851
sa(dp1852
g2
Vbhajan sopori
p1853
sg4
Vinstrumentalist
p1854
sg6
VBhajan Sopori is an Indian instrumentalist.\u000a
p1855
sg8
S'is a'
p1856
sa(dp1857
g2
Vgharana
p1858
sg4
Vindian music
p1859
sg6
VHe belongs to the Sufiana gharana of Indian classical music.\u000a
p1860
sg8
Vgharana of
p1861
sa(dp1862
g2
g1858
sg4
Vsufiana
p1863
sg6
VHe belongs to the Sufiana gharana of Indian classical music.\u000a
p1864
sg8
Vgharana 's
p1865
sa(dp1866
g2
Vsarod
p1867
sg4
Vhis performance
p1868
sg6
VHe plays instruments like Dotara and sarod give his performance on both classical and folk.\u000a
p1869
sg8
Vgive
p1870
sa(dp1871
g2
Vchatur lal
p1872
sg4
Vtablum player
p1873
sg6
VChatur Lal was an Indian tabla player.\u000a
p1874
sg8
S'is a'
p1875
sa(dp1876
g2
Vchatur lal
p1877
sg4
Vindian player
p1878
sg6
VChatur Lal was an Indian tabla player.\u000a
p1879
sg8
S'is a'
p1880
sa(dp1881
g2
Vchatur lal
p1882
sg4
Vplayer
p1883
sg6
VChatur Lal was an Indian tabla player.\u000a
p1884
sg8
S'is a'
p1885
sa(dp1886
g2
Vchatur lal
p1887
sg4
Vudaipur
p1888
sg6
VChatur Lal was born 1925 in Udaipur, Rajasthan.\u000a
p1889
sg8
Vbear in
p1890
sa(dp1891
g2
Vchatur lal
p1892
sg4
Vrajasthan
p1893
sg6
VChatur Lal was born 1925 in Udaipur, Rajasthan.\u000a
p1894
sg8
Vbear in
p1895
sa(dp1896
g2
Vakhtar sadmani
p1897
sg4
Vsevere heart-attack
p1898
sg6
VAkhtar Sadmani suffered a severe heart-attack and died on 30 December 2003.\u000a
p1899
sg8
Vsuffer
p1900
sa(dp1901
g2
Vakhtar sadmani
p1902
sg4
V30_december_2003
p1903
sg6
VAkhtar Sadmani suffered a severe heart-attack and died on 30 December 2003.\u000a
p1904
sg8
Vdie on
p1905
sa(dp1906
g2
Vraga
p1907
sg4
Vthat
p1908
sg6
VThe raga does not fit into any of Bhatkhande s thats and so its origin is uncertain.\u000a
p1909
sg8
Vs
p1910
sa(dp1911
g2
Vraga
p1912
sg4
Vvarious name
p1913
sg6
VHowever, the raga has various names across India.\u000a
p1914
sg8
Vhave
p1915
sa(dp1916
g2
Vraga
p1917
sg4
Vcarnatic music
p1918
sg6
VIn Carnatic Music, the raga is called Raga Vaasanthi.\u000a
p1919
sg8
Vcall in
p1920
sa(dp1921
g2
Vraga
p1922
sg4
Vraga
p1923
sg6
VThe Raga is a morning raga.\u000a
p1924
sg8
S'is a'
p1925
sa(dp1926
g2
Vraga
p1927
sg4
Vmorning raga
p1928
sg6
VThe Raga is a morning raga.\u000a
p1929
sg8
S'is a'
p1930
sa(dp1931
g2
Vgharana
p1932
sg4
Vagra
p1933
sg6
VLalith J. Rao is an Indian classical singer and a representative of the Agra gharana.\u000a
p1934
sg8
Vgharana 's
p1935
sa(dp1936
g2
Vusha parkhi
p1937
sg4
Vdoctorate
p1938
sg6
VUsha Parkhi has a doctorate in music from Gandharva Mahavidyalaya.\u000a
p1939
sg8
Vhave
p1940
sa(dp1941
g2
Vnico
p1942
sg4
Vcologne
p1943
sg6
VNico was born Christa Paffgen in Cologne.\u000a
p1944
sg8
Vbear in
p1945
sa(dp1946
g2
Vnico
p1947
sg4
Vseamstress
p1948
sg6
VIn 1946, Nico and her mother relocated to downtown Berlin, where Nico worked as a seamstress.\u000a
p1949
sg8
Vwork as
p1950
sa(dp1951
g2
Vnico
p1952
sg4
Vher mother
p1953
sg6
VIn 1946, Nico and her mother relocated to downtown Berlin, where Nico worked as a seamstress.\u000a
p1954
sg8
S'is a'
p1955
sa(dp1956
g2
Vnico
p1957
sg4
Vmother
p1958
sg6
VIn 1946, Nico and her mother relocated to downtown Berlin, where Nico worked as a seamstress.\u000a
p1959
sg8
S'is a'
p1960
sa(dp1961
g2
Vnico
p1962
sg4
Vdowntown berlin
p1963
sg6
VIn 1946, Nico and her mother relocated to downtown Berlin, where Nico worked as a seamstress.\u000a
p1964
sg8
Vrelocate to
p1965
sa(dp1966
g2
Vnico
p1967
sg4
V1946
p1968
sg6
VIn 1946, Nico and her mother relocated to downtown Berlin, where Nico worked as a seamstress.\u000a
p1969
sg8
Vrelocate in
p1970
sa(dp1971
g2
Vnico
p1972
sg4
Vsmall role
p1973
sg6
VAfter appearing in several television advertisements, Nico got a small role in Alberto Lattuada s film La Tempesta.\u000a
p1974
sg8
Vget
p1975
sa(dp1976
g2
Vnico
p1977
sg4
Vhis song
p1978
sg6
VIn 1967 Nico recorded his song Ill Keep It with Mine for her first album, Chelsea Girl.\u000a
p1979
sg8
Vrecord
p1980
sa(dp1981
g2
Vnico
p1982
sg4
Vlittle say
p1983
sg6
VNico was not satisfied with the album and had little say in production matters.\u000a
p1984
sg8
Vhave
p1985
sa(dp1986
g2
Vnico
p1987
sg4
Vtime
p1988
sg6
VIn California, Nico spent time with Jim Morrison of The Doors.\u000a
p1989
sg8
Vspend
p1990
sa(dp1991
g2
Vnico
p1992
sg4
Vown song
p1993
sg6
VMorrison encouraged Nico to write her own songs.\u000a
p1994
sg8
Vwrite
p1995
sa(dp1996
g2
Vnico
p1997
sg4
Vmusic
p1998
sg6
VFor The Marble Index, released in 1969, Nico wrote the lyrics and music.\u000a
p1999
sg8
Vwrite
p2000
sa(dp2001
g2
Vnico
p2002
sg4
Vlyric
p2003
sg6
VFor The Marble Index, released in 1969, Nico wrote the lyrics and music.\u000a
p2004
sg8
g2000
sa(dp2005
g2
Vnico
p2006
sg4
Vtwo
p2007
sg6
VNico released two more solo albums in the 1970s, Desertshore and The End.\u000a
p2008
sg8
Vrelease
p2009
sa(dp2010
g2
Vnico
p2011
sg4
Vharmonium
p2012
sg6
VNico wrote the music, sang, and played the harmonium.\u000a
p2013
sg8
Vplay
p2014
sa(dp2015
g2
Vnico
p2016
sg4
Vmusic
p2017
sg6
VNico wrote the music, sang, and played the harmonium.\u000a
p2018
sg8
Vwrite
p2019
sa(dp2020
g2
Vnico
p2021
sg4
Vfilm
p2022
sg6
VBetween 1970 and 1979, Nico made about seven films with French director Philippe Garrel.\u000a
p2023
sg8
Vmake
p2024
sa(dp2025
g2
Vnico
p2026
sg4
Vmusic
p2027
sg6
VNico also supplied the music for this film and collaborated closely with the director.\u000a
p2028
sg8
Vsupply
p2029
sa(dp2030
g2
Vnico
p2031
sg4
Vdirector
p2032
sg6
VNico also supplied the music for this film and collaborated closely with the director.\u000a
p2033
sg8
Vcollaborate with
p2034
sa(dp2035
g2
Vnico
p2036
sg4
V13_december_1974
p2037
sg6
VOn 13 December 1974, Nico opened for Tangerine Dream s infamous concert at Reims Cathedral in Reims, France.\u000a
p2038
sg8
Vopen on
p2039
sa(dp2040
g2
Vnico
p2041
sg4
Vtangerine dream
p2042
sg6
VOn 13 December 1974, Nico opened for Tangerine Dream s infamous concert at Reims Cathedral in Reims, France.\u000a
p2043
sg8
Vopen for
p2044
sa(dp2045
g2
Vnico
p2046
sg4
Vmusician german lutz_ulbrich
p2047
sg6
VAround this time, Nico became involved with German musician Lutz Ulbrich, guitarist for Ash Ra Tempel.\u000a
p2048
sg8
Vinvolve with
p2049
sa(dp2050
g2
Vnico
p2051
sg4
Vtime
p2052
sg6
VAround this time, Nico became involved with German musician Lutz Ulbrich, guitarist for Ash Ra Tempel.\u000a
p2053
sg8
Vinvolve around
p2054
sa(dp2055
g2
Vnico
p2056
sg4
Vcanet_roc festival
p2057
sg6
VIn February 1978, Nico performed at the Canet Roc 78 festival in Spain.\u000a
p2058
sg8
Vperform at
p2059
sa(dp2060
g2
Vnico
p2061
sg4
Vfebruary_1978
p2062
sg6
VIn February 1978, Nico performed at the Canet Roc 78 festival in Spain.\u000a
p2063
sg8
Vperform in
p2064
sa(dp2065
g2
Vnico
p2066
sg4
Vfrance
p2067
sg6
VIn France, Nico was introduced to photographer Antoine Giacomoni.\u000a
p2068
sg8
Vintroduce in
p2069
sa(dp2070
g2
Vnico
p2071
sg4
Vantoine_giacomoni
p2072
sg6
VIn France, Nico was introduced to photographer Antoine Giacomoni.\u000a
p2073
sg8
Vphotographer
p2074
sa(dp2075
g2
Vnico
p2076
sg4
Vdrama_of_exile
p2077
sg6
VNico recorded her next studio album, Drama of Exile, in 1981.\u000a
p2078
sg8
Vrecord
p2079
sa(dp2080
g2
Vnico
p2081
sg4
Vnext album
p2082
sg6
VNico recorded her next studio album, Drama of Exile, in 1981.\u000a
p2083
sg8
g2079
sa(dp2084
g2
Vnico
p2085
sg4
Vquilichini-produced / saeta single philippe vegas
p2086
sg6
VIn 1981, Nico released the Philippe Quilichini-produced single Saeta/Vegas on Flicknife Records.\u000a
p2087
sg8
Vrelease
p2088
sa(dp2089
g2
Vnico
p2090
sg4
Vbauhaus
p2091
sg6
VAt Salford University in 1982, Nico would join Bauhaus for a performance of  I 'm Waiting For The Man.\u000a
p2092
sg8
Vjoin
p2093
sa(dp2094
g2
Vnico
p2095
sg4
Vdeeside_leisure_centre
p2096
sg6
VIn September 1982, Nico performed at the Deeside Leisure Centre for the Futurama Festival.\u000a
p2097
sg8
Vperform at
p2098
sa(dp2099
g2
Vnico
p2100
sg4
Vfuturama_festival
p2101
sg6
VIn September 1982, Nico performed at the Deeside Leisure Centre for the Futurama Festival.\u000a
p2102
sg8
Vperform for
p2103
sa(dp2104
g2
Vnico
p2105
sg4
Vseptember_1982
p2106
sg6
VIn September 1982, Nico performed at the Deeside Leisure Centre for the Futurama Festival.\u000a
p2107
sg8
Vperform in
p2108
sa(dp2109
g2
Vnico
p2110
sg4
Vsong
p2111
sg6
VAs an encore, Nico performed a song from The End ...,  You Forget To Answer.\u000a
p2112
sg8
Vperform
p2113
sa(dp2114
g2
Vnico
p2115
sg4
Vdifficulty
p2116
sg6
VDelon denied paternity and Nico had difficulty raising Ari, so the boy was raised by Delons parents.\u000a
p2117
sg8
Vhave
p2118
sa(dp2119
g2
Vnico
p2120
sg4
Vaddict
p2121
sg6
VNico was a heroin addict for over 15 years.\u000a
p2122
sg8
S'is a'
p2123
sa(dp2124
g2
Vnico
p2125
sg4
Vheroin addict
p2126
sg6
VNico was a heroin addict for over 15 years.\u000a
p2127
sg8
S'is a'
p2128
sa(dp2129
g2
Vnico
p2130
sg4
Vone
p2131
sg6
VNico was deaf in one ear, which made it difficult for her to hear what others were saying.\u000a
p2132
sg8
Vdeaf in
p2133
sa(dp2134
g2
Vnico
p2135
sg4
Vmother plot
p2136
sg6
VNico was buried in her mothers plot in Grunewald Forest Cemetery in Berlin.\u000a
p2137
sg8
Vbury in
p2138
sa(dp2139
g2
Vnico
p2140
sg4
Vdave_stewart
p2141
sg6
VFor her 2002 album, Kissin Time, Marianne Faithfull recorded Song for Nico, cowritten with Dave Stewart.\u000a
p2142
sg8
Vcowritten with
p2143
sa(dp2144
g2
Vnico
p2145
sg4
Vinfluence
p2146
sg6
VNatasha Khan has quoted Nico as an influence in particular Desertshore.\u000a
p2147
sg8
Vquote
p2148
sa(dp2149
g2
Vgharana
p2150
sg4
Vpunjab
p2151
sg6
VAfter his death the khalifa-ship of the Punjab gharana passed to his nephew Khalifa Akhtar Hussain.\u000a
p2152
sg8
Vgharana 's
p2153
sa(dp2154
g2
Vdildar hussain
p2155
sg4
Vtablum
p2156
sg6
VDildar Hussain learned tabla from Ustad Allah Rakha Khan.\u000a
p2157
sg8
Vlearn
p2158
sa(dp2159
g2
Vrasika
p2160
sg4
Vaesthete
p2161
sg6
VA rasika is a term for an aesthete of Hindustani classical music.\u000a
p2162
sg8
Vterm for
p2163
sa(dp2164
g2
Vgharana
p2165
sg4
Vindian music
p2166
sg6
VBhatkhande visited many of the gharanas of North Indian classical music, conducting a detailed analysis of Indian raga.\u000a
p2167
sg8
Vgharana of
p2168
sa(dp2169
g2
Vraga
p2170
sg4
Vnight
p2171
sg6
VRagas are normally ascribed to certain periods of the day and night.\u000a
p2172
sg8
Vascribe to
p2173
sa(dp2174
g2
g2170
sg4
Vcertain period
p2175
sg6
VRagas are normally ascribed to certain periods of the day and night.\u000a
p2176
sg8
Vascribe to
p2177
sa(dp2178
g2
Vgharana
p2179
sg4
Vgwalior
p2180
sg6
VHe studied under Gwalior gharana with Balakrishnabuwa Ichalkaranjikar.\u000a
p2181
sg8
Vgharana 's
p2182
sa(dp2183
g2
g2179
sg4
Vbalakrishnabuwa ichalkaranjikar
p2184
sg6
VHe studied under Gwalior gharana with Balakrishnabuwa Ichalkaranjikar.\u000a
p2185
sg8
Vgharana with
p2186
sa(dp2187
g2
Vzeelaf
p2188
sg4
Vraga
p2189
sg6
VZeelaf is a raga in Hindustani classical music.\u000a
p2190
sg8
S'is a'
p2191
sa(dp2192
g2
Vzeelaf
p2193
sg4
Vhindustani music
p2194
sg6
VZeelaf is a raga in Hindustani classical music.\u000a
p2195
sg8
Vraga in
p2196
sa(dp2197
g2
Vsaptak
p2198
sg4
Vgamut
p2199
sg6
VSaptak means gamut or the series of seven notes.\u000a
p2200
sg8
Vmean
p2201
sa(dp2202
g2
Vsaptak
p2203
sg4
Vseries
p2204
sg6
VSaptak means gamut or the series of seven notes.\u000a
p2205
sg8
g2201
sa(dp2206
g2
Vraga
p2207
sg4
Vnote
p2208
sg6
VGenerally, a raga involves notes from three saptaks.\u000a
p2209
sg8
Vinvolve
p2210
sa(dp2211
g2
Vbudhaditya mukherjee
p2212
sg4
Vsitar
p2213
sg6
VBudhaditya Mukherjee is a Hindustani classical sitar and surbahar player of the Imdadkhani Gharana.\u000a
p2214
sg8
S'is a'
p2215
sa(dp2216
g2
Vbudhaditya mukherjee
p2217
sg4
Vplayer
p2218
sg6
VBudhaditya Mukherjee is a Hindustani classical sitar and surbahar player of the Imdadkhani Gharana.\u000a
p2219
sg8
S'is a'
p2220
sa(dp2221
g2
Vbudhaditya mukherjee
p2222
sg4
Vclassical sitar
p2223
sg6
VBudhaditya Mukherjee is a Hindustani classical sitar and surbahar player of the Imdadkhani Gharana.\u000a
p2224
sg8
S'is a'
p2225
sa(dp2226
g2
Vbudhaditya mukherjee
p2227
sg4
Vsurbahar player
p2228
sg6
VBudhaditya Mukherjee is a Hindustani classical sitar and surbahar player of the Imdadkhani Gharana.\u000a
p2229
sg8
S'is a'
p2230
sa(dp2231
g2
Vbudhaditya mukherjee
p2232
sg4
Vhindustani
p2233
sg6
VBudhaditya Mukherjee is a Hindustani classical sitar and surbahar player of the Imdadkhani Gharana.\u000a
p2234
sg8
Vplayer 's
p2235
sa(dp2236
g2
Vbudhaditya mukherjee
p2237
sg4
Vimdadkhani gharana
p2238
sg6
VBudhaditya Mukherjee is a Hindustani classical sitar and surbahar player of the Imdadkhani Gharana.\u000a
p2239
sg8
Vsitar of
p2240
sa(dp2241
g2
Vbudhaditya mukherjee
p2242
sg4
Vdoctorate
p2243
sg6
VBudhaditya Mukherjee holds a doctorate in metallurgical engineering.\u000a
p2244
sg8
Vhold
p2245
sa(dp2246
g2
Vsangeetha katti
p2247
sg4
Vclassical vocalist
p2248
sg6
VSangeetha Katti popularly known as Sangeetha Katti is a Hindustani classical vocalist in India.\u000a
p2249
sg8
S'is a'
p2250
sa(dp2251
g2
Vsangeetha katti
p2252
sg4
Vvocalist
p2253
sg6
VSangeetha Katti popularly known as Sangeetha Katti is a Hindustani classical vocalist in India.\u000a
p2254
sg8
S'is a'
p2255
sa(dp2256
g2
Vsangeetha katti
p2257
sg4
Vsangeetha_katti
p2258
sg6
VSangeetha Katti popularly known as Sangeetha Katti is a Hindustani classical vocalist in India.\u000a
p2259
sg8
Vknow as
p2260
sa(dp2261
g2
Vsangeetha katti
p2262
sg4
Vhindustani
p2263
sg6
VSangeetha Katti popularly known as Sangeetha Katti is a Hindustani classical vocalist in India.\u000a
p2264
sg8
Vvocalist 's
p2265
sa(dp2266
g2
Vsangeetha katti
p2267
sg4
Vindia
p2268
sg6
VSangeetha Katti popularly known as Sangeetha Katti is a Hindustani classical vocalist in India.\u000a
p2269
sg8
Vvocalist in
p2270
sa(dp2271
g2
Vraga
p2272
sg4
Vmayamalavagowla
p2273
sg6
VThis raga corresponds to Mayamalavagowla in Carnatic music.\u000a
p2274
sg8
Vcorrespond to
p2275
sa(dp2276
g2
g2272
sg4
Vmusic
p2277
sg6
VThis raga corresponds to Mayamalavagowla in Carnatic music.\u000a
p2278
sg8
Vcorrespond in
p2279
sa(dp2280
g2
Vektara
p2281
sg4
Vinstrument
p2282
sg6
VEktara is a one-string instrument most often used in traditional music from Bangladesh, India, Egypt, and Pakistan.\u000a
p2283
sg8
S'is a'
p2284
sa(dp2285
g2
Vektara
p2286
sg4
Vone-string instrument
p2287
sg6
VEktara is a one-string instrument most often used in traditional music from Bangladesh, India, Egypt, and Pakistan.\u000a
p2288
sg8
S'is a'
p2289
sa(dp2290
g2
Vektara
p2291
sg4
Vtraditional music
p2292
sg6
VEktara is a one-string instrument most often used in traditional music from Bangladesh, India, Egypt, and Pakistan.\u000a
p2293
sg8
Vuse in
p2294
sa(dp2295
g2
Vektara
p2296
sg4
Vpakistan
p2297
sg6
VEktara is a one-string instrument most often used in traditional music from Bangladesh, India, Egypt, and Pakistan.\u000a
p2298
sg8
Vuse in
p2299
sa(dp2300
g2
Vektara
p2301
sg4
Vsinger
p2302
sg6
VTraditional and modern forms of bhangra sometimes use an ektara or tumbi to accompany the singer and dhol.\u000a
p2303
sg8
Vaccompany
p2304
sa(dp2305
g2
g2301
sg4
Vdhol
p2306
sg6
VTraditional and modern forms of bhangra sometimes use an ektara or tumbi to accompany the singer and dhol.\u000a
p2307
sg8
g2304
sa(dp2308
g2
Velectric sitar
p2309
sg4
Vstring
p2310
sg6
VSome electric sitars have drone strings in lieu of sympathetic strings.\u000a
p2311
sg8
Vdrone
p2312
sa(dp2313
g2
Vajrara gharana
p2314
sg4
Vajrada
p2315
sg6
VAjrara gharana or Ajrada gharana is one of the six main traditional schools in tabla drum.\u000a
p2316
sg8
Vgharana 's
p2317
sa(dp2318
g2
Vajrara gharana
p2319
sg4
Vgharana
p2320
sg6
VAjrara gharana or Ajrada gharana is one of the six main traditional schools in tabla drum.\u000a
p2321
sg8
S'is a'
p2322
sa(dp2323
g2
Vgharana
p2324
sg4
Vdelhi_gharana
p2325
sg6
VThis Gharana is an offshoot of the Delhi Gharana.\u000a
p2326
sg8
Voffshoot of
p2327
sa(dp2328
g2
Vgharana
p2329
sg4
Voffshoot
p2330
sg6
VThis Gharana is an offshoot of the Delhi Gharana.\u000a
p2331
sg8
S'is a'
p2332
sa(dp2333
g2
Vvichitra veena
p2334
sg4
Vform
p2335
sg6
VThe Vichitra Veena is the modern form of ancient Ektantri Veena.\u000a
p2336
sg8
S'is a'
p2337
sa(dp2338
g2
Vvichitra veena
p2339
sg4
Vmodern form
p2340
sg6
VThe Vichitra Veena is the modern form of ancient Ektantri Veena.\u000a
p2341
sg8
S'is a'
p2342
sa(dp2343
g2
Vvichitra veena
p2344
sg4
Vancient ektantri_veena
p2345
sg6
VThe Vichitra Veena is the modern form of ancient Ektantri Veena.\u000a
p2346
sg8
Vform of
p2347
sa(dp2348
g2
Vvilayat khan
p2349
sg4
Vunique gat
p2350
sg6
VOn the 15th day Vilayat Khan played a unique Gat whose joda Ustad Salari Khansaheb could not produce.\u000a
p2351
sg8
Vplay
p2352
sa(dp2353
g2
Vfarukhabad gharana
p2354
sg4
Vgharana
p2355
sg6
VThe Farukhabad Gharana is the oldest gharana of Tabla.\u000a
p2356
sg8
S'is a'
p2357
sa(dp2358
g2
Vfarukhabad gharana
p2359
sg4
Voldest gharana
p2360
sg6
VThe Farukhabad Gharana is the oldest gharana of Tabla.\u000a
p2361
sg8
S'is a'
p2362
sa(dp2363
g2
Vfarukhabad gharana
p2364
sg4
Vtabla
p2365
sg6
VThe Farukhabad Gharana is the oldest gharana of Tabla.\u000a
p2366
sg8
Vgharana of
p2367
sa(dp2368
g2
Vgharana
p2369
sg4
Vfarukhabad
p2370
sg6
VThe playing style of the Farukhabad gharana contains similarities to its strong, resonant sounds.\u000a
p2371
sg8
Vgharana 's
p2372
sa(dp2373
g2
Vshahid parvez
p2374
sg4
Vsabha
p2375
sg6
VShahid Parvez performed and supported the sabha.\u000a
p2376
sg8
Vsupport
p2377
sa(dp2378
g2
Vshubhendra shankar
p2379
sg4
Vrigorous training
p2380
sg6
VShubhendra Shankar had rigorous training in Sitar under the tutelage of his mother.\u000a
p2381
sg8
Vhave
p2382
sa(dp2383
g2
Vraga
p2384
sg4
Vswara
p2385
sg6
VIn Indian classical music, Sampurna ragas have all seven swaras in their scale.\u000a
p2386
sg8
Vhave
p2387
sa(dp2388
g2
g2385
sg4
Vtheir scale
p2389
sg6
VIn Indian classical music, Sampurna ragas have all seven swaras in their scale.\u000a
p2390
sg8
Vswara in
p2391
sa(dp2392
g2
g2384
sg4
Vsampurna
p2393
sg6
VIn Indian classical music, Sampurna ragas have all seven swaras in their scale.\u000a
p2394
sg8
Vraga 's
p2395
sa(dp2396
g2
Vswara
p2397
sg4
Vavarohana
p2398
sg6
VIn general, the swaras in the Arohana and Avarohana strictly follow the ascending and descending scale as well.\u000a
p2399
sg8
Vswara in
p2400
sa(dp2401
g2
g2397
sg4
Varohana
p2402
sg6
VIn general, the swaras in the Arohana and Avarohana strictly follow the ascending and descending scale as well.\u000a
p2403
sg8
Vswara in
p2404
sa(dp2405
g2
g2397
sg4
Vdescend scale
p2406
sg6
VIn general, the swaras in the Arohana and Avarohana strictly follow the ascending and descending scale as well.\u000a
p2407
sg8
Vfollow
p2408
sa(dp2409
g2
g2397
sg4
Vascending
p2410
sg6
VIn general, the swaras in the Arohana and Avarohana strictly follow the ascending and descending scale as well.\u000a
p2411
sg8
g2408
sa(dp2412
g2
Vraga
p2413
sg4
Vmelakarta
p2414
sg6
VSome examples of Melakarta ragas are Mayamalavagowla, Todi, Sankarabharanam and Kharaharapriya.\u000a
p2415
sg8
Vraga 's
p2416
sa(dp2417
g2
Vpannalal ghosh
p2418
sg4
Vbansuri
p2419
sg6
VPannalal Ghosh elevated the Bansuri from a folk instrument to the stage of serious classical music.\u000a
p2420
sg8
Velevate
p2421
sa(dp2422
g2
Vjhoomra
p2423
sg4
Vmusic
p2424
sg6
VJhoomra is a tala of Hindustani music.\u000a
p2425
sg8
Vtalum of
p2426
sa(dp2427
g2
Vjhoomra
p2428
sg4
Vtalum
p2429
sg6
VJhoomra is a tala of Hindustani music.\u000a
p2430
sg8
S'is a'
p2431
sa(dp2432
g2
Vtilwada
p2433
sg4
Vkheyal
p2434
sg6
VTilwada is often used in Kheyal.\u000a
p2435
sg8
Vuse in
p2436
sa(dp2437
g2
Vjayateerth mevundi
p2438
sg4
V1972
p2439
sg6
VJayateerth Mevundi, born in 1972, is a Hindustani classical vocalist of the Kirana Gharana.\u000a
p2440
sg8
Vbear in
p2441
sa(dp2442
g2
Vjayateerth mevundi
p2443
sg4
Vkirana_gharana
p2444
sg6
VJayateerth Mevundi, born in 1972, is a Hindustani classical vocalist of the Kirana Gharana.\u000a
p2445
sg8
Vvocalist of
p2446
sa(dp2447
g2
Vjayateerth mevundi
p2448
sg4
Vhindustani vocalist
p2449
sg6
VJayateerth Mevundi, born in 1972, is a Hindustani classical vocalist of the Kirana Gharana.\u000a
p2450
sg8
S'is a'
p2451
sa(dp2452
g2
Vjayateerth mevundi
p2453
sg4
Vvocalist
p2454
sg6
VJayateerth Mevundi, born in 1972, is a Hindustani classical vocalist of the Kirana Gharana.\u000a
p2455
sg8
S'is a'
p2456
sa(dp2457
g2
Vjayateerth mevundi
p2458
sg4
Vclassical vocalist
p2459
sg6
VJayateerth Mevundi, born in 1972, is a Hindustani classical vocalist of the Kirana Gharana.\u000a
p2460
sg8
S'is a'
p2461
sa(dp2462
g2
Vjayateerth mevundi
p2463
sg4
Vhubli
p2464
sg6
VJayateerth Mevundi hails from Hubli in North Karnataka.\u000a
p2465
sg8
Vhail from
p2466
sa(dp2467
g2
Vjayateerth mevundi
p2468
sg4
Vnorth_karnataka
p2469
sg6
VJayateerth Mevundi hails from Hubli in North Karnataka.\u000a
p2470
sg8
Vhail in
p2471
sa(dp2472
g2
Vgharana
p2473
sg4
Vbenares
p2474
sg6
VIn 1964, Kamat became a Gandabandhan disciple of Samta Prasad of the Benares gharana.\u000a
p2475
sg8
Vgharana 's
p2476
sa(dp2477
g2
Vsanjoy bandopadhyay
p2478
sg4
Vplayer
p2479
sg6
VSanjoy Bandopadhyay is a Bengali Hindustani classical sitar player.\u000a
p2480
sg8
S'is a'
p2481
sa(dp2482
g2
Vsanjoy bandopadhyay
p2483
sg4
Vsitar player
p2484
sg6
VSanjoy Bandopadhyay is a Bengali Hindustani classical sitar player.\u000a
p2485
sg8
S'is a'
p2486
sa(dp2487
g2
Vsanjoy bandopadhyay
p2488
sg4
Vclassical player
p2489
sg6
VSanjoy Bandopadhyay is a Bengali Hindustani classical sitar player.\u000a
p2490
sg8
S'is a'
p2491
sa(dp2492
g2
Vsanjoy bandopadhyay
p2493
sg4
Vbengali hindustani
p2494
sg6
VSanjoy Bandopadhyay is a Bengali Hindustani classical sitar player.\u000a
p2495
sg8
Vplayer 's
p2496
sa(dp2497
g2
Vesraj
p2498
sg4
Vaccompanying instrument
p2499
sg6
VThe esraj is mostly used as an accompanying instrument.\u000a
p2500
sg8
Vuse as
p2501
sa(dp2502
g2
Vesraj
p2503
sg4
Vmany decade
p2504
sg6
VBoth the dilruba and the esraj had been declining in popularity for many decades.\u000a
p2505
sg8
Vdecline for
p2506
sa(dp2507
g2
g2503
sg4
Vpopularity
p2508
sg6
VBoth the dilruba and the esraj had been declining in popularity for many decades.\u000a
p2509
sg8
Vdecline in
p2510
sa(dp2511
g2
Vswara
p2512
sg4
Vmusic notation
p2513
sg6
VIts structure using swaras in Carnatic music notation is as follows.\u000a
p2514
sg8
Vuse in
p2515
sa(dp2516
g2
Vshubha mudgal
p2517
sg4
Vmarried aneesh pradhan
p2518
sg6
VShubha Mudgal however got divorced from him, and married Aneesh Pradhan.\u000a
p2519
sg8
Vdivorce from
p2520
sa(dp2521
g2
Vshubha mudgal
p2522
sg4
Vhe
p2523
sg6
VShubha Mudgal however got divorced from him, and married Aneesh Pradhan.\u000a
p2524
sg8
Vdivorce from
p2525
sa(dp2526
g2
Vbhopali
p2527
sg4
Vclassical raga
p2528
sg6
VBhopali, also known as Bhoop, Bhoopali or Bhupali, is a Hindustani classical raga.\u000a
p2529
sg8
S'is a'
p2530
sa(dp2531
g2
Vbhopali
p2532
sg4
Vraga
p2533
sg6
VBhopali, also known as Bhoop, Bhoopali or Bhupali, is a Hindustani classical raga.\u000a
p2534
sg8
S'is a'
p2535
sa(dp2536
g2
Vbhopali
p2537
sg4
Vbhoop
p2538
sg6
VBhopali, also known as Bhoop, Bhoopali or Bhupali, is a Hindustani classical raga.\u000a
p2539
sg8
Vknow as
p2540
sa(dp2541
g2
Vbhopali
p2542
sg4
Vhindustani
p2543
sg6
VBhopali, also known as Bhoop, Bhoopali or Bhupali, is a Hindustani classical raga.\u000a
p2544
sg8
Vraga 's
p2545
sa(dp2546
g2
Vswara
p2547
sg4
Vmandra saptak
p2548
sg6
VA swara immediately followed by 1 indicates the mandra saptak and indicates the taar saptak.\u000a
p2549
sg8
Vindicate
p2550
sa(dp2551
g2
g2547
sg4
Vtaar saptak
p2552
sg6
VA swara immediately followed by 1 indicates the mandra saptak and indicates the taar saptak.\u000a
p2553
sg8
Vindicate
p2554
sa(dp2555
g2
Vpremadasa hegoda
p2556
sg4
Vsri lankan
p2557
sg6
VPremadasa Hegoda is a Sri Lankan sitarist.\u000a
p2558
sg8
Vsitarist 's
p2559
sa(dp2560
g2
Vpremadasa hegoda
p2561
sg4
Vsitarist
p2562
sg6
VPremadasa Hegoda is a Sri Lankan sitarist.\u000a
p2563
sg8
S'is a'
p2564
sa(dp2565
g2
Vgharana
p2566
sg4
Vjaipur-atrauli
p2567
sg6
VTaufiq Qureshi is married to Geetika Varde, a renowned vocalist of the Jaipur-Atrauli gharana.\u000a
p2568
sg8
Vgharana 's
p2569
sa(dp2570
g2
Vraga
p2571
sg4
Vfour
p2572
sg6
VThe Raga Guide is a 1999 Nimbus Records compilation of 74 Hindustani ragas on four CDs.\u000a
p2573
sg8
Vraga on
p2574
sa(dp2575
g2
g2571
sg4
V74
p2576
sg6
VThe Raga Guide is a 1999 Nimbus Records compilation of 74 Hindustani ragas on four CDs.\u000a
p2577
sg8
Vraga 's
p2578
sa(dp2579
g2
Vdilshad khan
p2580
sg4
Vclassical singer
p2581
sg6
VDilshad Khan is a Bengali Hindustani classical singer of the Patiala Gharana.\u000a
p2582
sg8
S'is a'
p2583
sa(dp2584
g2
Vdilshad khan
p2585
sg4
Vsinger
p2586
sg6
VDilshad Khan is a Bengali Hindustani classical singer of the Patiala Gharana.\u000a
p2587
sg8
S'is a'
p2588
sa(dp2589
g2
Vdilshad khan
p2590
sg4
Vbengali singer
p2591
sg6
VDilshad Khan is a Bengali Hindustani classical singer of the Patiala Gharana.\u000a
p2592
sg8
S'is a'
p2593
sa(dp2594
g2
Vdilshad khan
p2595
sg4
Vhindustani singer
p2596
sg6
VDilshad Khan is a Bengali Hindustani classical singer of the Patiala Gharana.\u000a
p2597
sg8
S'is a'
p2598
sa(dp2599
g2
Vdilshad khan
p2600
sg4
Vpatiala_gharana
p2601
sg6
VDilshad Khan is a Bengali Hindustani classical singer of the Patiala Gharana.\u000a
p2602
sg8
Vsinger of
p2603
sa(dp2604
g2
Vdilshad khan
p2605
sg4
Vclassical vocalist
p2606
sg6
VDilshad Khan is married to classical vocalist, Parveen Sultana.\u000a
p2607
sg8
Vmarry to
p2608
sa(dp2609
g2
Vdilshad khan
p2610
sg4
Vparveen_sultana
p2611
sg6
VDilshad Khan is married to classical vocalist, Parveen Sultana.\u000a
p2612
sg8
Vmarry to
p2613
sa(dp2614
g2
Vswarmandal
p2615
sg4
Vautoharp
p2616
sg6
VThe swarmandal is similar to the autoharp or zither in many respects.\u000a
p2617
sg8
Vsimilar to
p2618
sa(dp2619
g2
g2615
sg4
Vzither
p2620
sg6
VThe swarmandal is similar to the autoharp or zither in many respects.\u000a
p2621
sg8
Vsimilar to
p2622
sa(dp2623
g2
Vgharana
p2624
sg4
Vpatiala
p2625
sg6
VHe belongs to the Patiala gharana.\u000a
p2626
sg8
Vgharana 's
p2627
sa(dp2628
g2
Vsitar
p2629
sg4
Vjazz
p2630
sg6
VIn America, the profile of the sitar in Jazz was maintained by Collin Walcott.\u000a
p2631
sg8
Vsitar in
p2632
sa(dp2633
g2
Vsitar
p2634
sg4
Vjazz context
p2635
sg6
VThis is a chronological catalogue of recordings which have featured the sitar within a jazz context.\u000a
p2636
sg8
Vsitar within
p2637
sa(dp2638
g2
Vkhyal
p2639
sg4
Vforte
p2640
sg6
VThough Khyal is his forte, he is equally adept in singing light classical varieties.\u000a
p2641
sg8
S'is a'
p2642
sa(dp2643
g2
Vkhyal
p2644
sg4
Vhis forte
p2645
sg6
VThough Khyal is his forte, he is equally adept in singing light classical varieties.\u000a
p2646
sg8
S'is a'
p2647
sa(dp2648
g2
Vsanhita nandi
p2649
sg4
Vvocalist
p2650
sg6
VSanhita Nandi is a prominent Hindustani classical vocalist of the Kirana Gharana.\u000a
p2651
sg8
S'is a'
p2652
sa(dp2653
g2
Vsanhita nandi
p2654
sg4
Vclassical vocalist
p2655
sg6
VSanhita Nandi is a prominent Hindustani classical vocalist of the Kirana Gharana.\u000a
p2656
sg8
S'is a'
p2657
sa(dp2658
g2
Vsanhita nandi
p2659
sg4
Vkirana_gharana
p2660
sg6
VSanhita Nandi is a prominent Hindustani classical vocalist of the Kirana Gharana.\u000a
p2661
sg8
Vvocalist of
p2662
sa(dp2663
g2
Vsanhita nandi
p2664
sg4
Vprominent hindustani
p2665
sg6
VSanhita Nandi is a prominent Hindustani classical vocalist of the Kirana Gharana.\u000a
p2666
sg8
Vvocalist 's
p2667
sa(dp2668
g2
Vsanhita nandi
p2669
sg4
Vindia
p2670
sg6
VSanhita Nandi has travelled extensively to perform, both within and outside of India.\u000a
p2671
sg8
Vtravel
p2672
sa(dp2673
g2
Vhaveli sangeet
p2674
sg4
Vsemi form
p2675
sg6
VHaveli Sangeet is a semi classical form of Hindustani classical music sung in Havelis.\u000a
p2676
sg8
S'is a'
p2677
sa(dp2678
g2
Vhaveli sangeet
p2679
sg4
Vform
p2680
sg6
VHaveli Sangeet is a semi classical form of Hindustani classical music sung in Havelis.\u000a
p2681
sg8
S'is a'
p2682
sa(dp2683
g2
Vhaveli sangeet
p2684
sg4
Vclassical form
p2685
sg6
VHaveli Sangeet is a semi classical form of Hindustani classical music sung in Havelis.\u000a
p2686
sg8
S'is a'
p2687
sa(dp2688
g2
Vhaveli sangeet
p2689
sg4
Vmusic sung
p2690
sg6
VHaveli Sangeet is a semi classical form of Hindustani classical music sung in Havelis.\u000a
p2691
sg8
Vform of
p2692
sa(dp2693
g2
Vgharana
p2694
sg4
Vkirana
p2695
sg6
VHangal belonged to the Kirana gharana.\u000a
p2696
sg8
Vgharana 's
p2697
sa(dp2698
g2
Vgangubai hangal
p2699
sg4
Vchikkurao nadiger
p2700
sg6
VGangubai Hangal was born in Dharwad to Chikkurao Nadiger, an agriculturist and Ambabai, a vocalist of Carnatic music.\u000a
p2701
sg8
Vbear to
p2702
sa(dp2703
g2
Vgangubai hangal
p2704
sg4
Vdharwad
p2705
sg6
VGangubai Hangal was born in Dharwad to Chikkurao Nadiger, an agriculturist and Ambabai, a vocalist of Carnatic music.\u000a
p2706
sg8
Vbear in
p2707
sa(dp2708
g2
Vgangubai hangal
p2709
sg4
Vnumber
p2710
sg6
VGangubai Hangal received a number of awards, which include :.\u000a
p2711
sg8
Vreceive
p2712
sa(dp2713
g2
Vpantula rama
p2714
sg4
Vfamily
p2715
sg6
VPantula Rama was born into a family with a lineage of music.\u000a
p2716
sg8
Vbear into
p2717
sa(dp2718
g2
Vpantula rama
p2719
sg4
Vlineage
p2720
sg6
VPantula Rama was born into a family with a lineage of music.\u000a
p2721
sg8
Vbear with
p2722
sa(dp2723
g2
Vharihar rao
p2724
sg4
Vmusician
p2725
sg6
VHarihar Rao was a noted Hindustani musician, accomplished playing both tabla and sitar.\u000a
p2726
sg8
S'is a'
p2727
sa(dp2728
g2
Vharihar rao
p2729
sg4
Vnoted hindustani
p2730
sg6
VHarihar Rao was a noted Hindustani musician, accomplished playing both tabla and sitar.\u000a
p2731
sg8
Vmusician 's
p2732
sa(dp2733
g2
Vchatur lal
p2734
sg4
Vmusician
p2735
sg6
VSupporting musicians are Chatur Lal on tabla and Nodu Mullick on Tamboura.\u000a
p2736
sg8
S'is a'
p2737
sa(dp2738
g2
Vchatur lal
p2739
sg4
Vsupport musician
p2740
sg6
VSupporting musicians are Chatur Lal on tabla and Nodu Mullick on Tamboura.\u000a
p2741
sg8
S'is a'
p2742
sa(dp2743
g2
Vgirish panchwadkar
p2744
sg4
Vindia
p2745
sg6
VGirish Panchwadkar is an accomplished Marathi singer and music director from India.\u000a
p2746
sg8
Vdirector from
p2747
sa(dp2748
g2
Vgirish panchwadkar
p2749
sg4
Vdirector
p2750
sg6
VGirish Panchwadkar is an accomplished Marathi singer and music director from India.\u000a
p2751
sg8
S'is a'
p2752
sa(dp2753
g2
Vgirish panchwadkar
p2754
sg4
Vsinger
p2755
sg6
VGirish Panchwadkar is an accomplished Marathi singer and music director from India.\u000a
p2756
sg8
S'is a'
p2757
sa(dp2758
g2
Vgirish panchwadkar
p2759
sg4
Vmusic director
p2760
sg6
VGirish Panchwadkar is an accomplished Marathi singer and music director from India.\u000a
p2761
sg8
S'is a'
p2762
sa(dp2763
g2
Vgirish panchwadkar
p2764
sg4
Vaccomplished marathi
p2765
sg6
VGirish Panchwadkar is an accomplished Marathi singer and music director from India.\u000a
p2766
sg8
Vsinger 's
p2767
sa(dp2768
g2
Vsawani
p2769
sg4
Vgenre
p2770
sg6
VSawani is a genre of semi-classical singing, popular in Uttar Pradesh and Bihar.\u000a
p2771
sg8
S'is a'
p2772
sa(dp2773
g2
Vsawani
p2774
sg4
Vsemi-classical singing
p2775
sg6
VSawani is a genre of semi-classical singing, popular in Uttar Pradesh and Bihar.\u000a
p2776
sg8
Vgenre of
p2777
sa(dp2778
g2
Vpandit sudhir
p2779
sg4
Vplayer
p2780
sg6
VPandit Sudhir is an Indian sitar player of Hindustani classical music.\u000a
p2781
sg8
S'is a'
p2782
sa(dp2783
g2
Vpandit sudhir
p2784
sg4
Vsitar player
p2785
sg6
VPandit Sudhir is an Indian sitar player of Hindustani classical music.\u000a
p2786
sg8
S'is a'
p2787
sa(dp2788
g2
Vpandit sudhir
p2789
sg4
Vindian player
p2790
sg6
VPandit Sudhir is an Indian sitar player of Hindustani classical music.\u000a
p2791
sg8
S'is a'
p2792
sa(dp2793
g2
Vpandit sudhir
p2794
sg4
Vhindustani music
p2795
sg6
VPandit Sudhir is an Indian sitar player of Hindustani classical music.\u000a
p2796
sg8
Vplayer of
p2797
sa(dp2798
g2
Vhariprasad chaurasia
p2799
sg4
Vallahabad
p2800
sg6
VHariprasad Chaurasia was born in Allahabad in the Indian state of Uttar Pradesh.\u000a
p2801
sg8
Vbear in
p2802
sa(dp2803
g2
Vhariprasad chaurasia
p2804
sg4
Vindian state
p2805
sg6
VHariprasad Chaurasia was born in Allahabad in the Indian state of Uttar Pradesh.\u000a
p2806
sg8
Vbear in
p2807
sa(dp2808
g2
Vhariprasad chaurasia
p2809
sg4
Vvocal music
p2810
sg6
VHariprasad Chaurasia started learning vocal music from his neighbor, Pandit Rajaram, at the age of 15.\u000a
p2811
sg8
Vlearn
p2812
sa(dp2813
g2
Vswara
p2814
sg4
Vvadi
p2815
sg6
VVadi swara in a raga is like a king in a kingdom.\u000a
p2816
sg8
Vswara 's
p2817
sa(dp2818
g2
g2814
sg4
Vraga
p2819
sg6
VVadi swara in a raga is like a king in a kingdom.\u000a
p2820
sg8
Vswara in
p2821
sa(dp2822
g2
g2814
sg4
Vking
p2823
sg6
VVadi swara in a raga is like a king in a kingdom.\u000a
p2824
sg8
Vbe like
p2825
sa(dp2826
g2
Vswara
p2827
sg4
Vvadi
p2828
sg6
VVadi swara is also helpful to identify the time of singing or playing a raga.\u000a
p2829
sg8
Vswara 's
p2830
sa(dp2831
g2
g2827
sg4
Vtime
p2832
sg6
VVadi swara is also helpful to identify the time of singing or playing a raga.\u000a
p2833
sg8
Videntify
p2834
sa(dp2835
g2
Vmc yogi
p2836
sg4
Vnicholas_giacomini
p2837
sg6
VMC Yogi is the stage name of Nicholas Giacomini, an American hip hop musician and yogi.\u000a
p2838
sg8
Vname of
p2839
sa(dp2840
g2
Vmc yogi
p2841
sg4
Vstage name
p2842
sg6
VMC Yogi is the stage name of Nicholas Giacomini, an American hip hop musician and yogi.\u000a
p2843
sg8
S'is a'
p2844
sa(dp2845
g2
Vmc yogi
p2846
sg4
Vname
p2847
sg6
VMC Yogi is the stage name of Nicholas Giacomini, an American hip hop musician and yogi.\u000a
p2848
sg8
S'is a'
p2849
sa(dp2850
g2
Vraga
p2851
sg4
Vrasa
p2852
sg6
Vsince it is the raga of spring, it can be considered that the raga has shringara rasa.\u000a
p2853
sg8
Vshringara
p2854
sa(dp2855
g2
Vchaiti
p2856
sg4
Vsemi-classical song
p2857
sg6
VChaiti are a semi-classical songs sung in the Hindu calendar month of Chait.\u000a
p2858
sg8
S'is a'
p2859
sa(dp2860
g2
Vchaiti
p2861
sg4
Vsong
p2862
sg6
VChaiti are a semi-classical songs sung in the Hindu calendar month of Chait.\u000a
p2863
sg8
S'is a'
p2864
sa(dp2865
g2
Vchaiti
p2866
sg4
Vcalendar month
p2867
sg6
VChaiti are a semi-classical songs sung in the Hindu calendar month of Chait.\u000a
p2868
sg8
Vsing in
p2869
sa(dp2870
g2
Vajay pohankar
p2871
sg4
Vmadhya_pradesh
p2872
sg6
VAjay Pohankar was born in Jabalpur, Madhya Pradesh, where his father was an advocate.\u000a
p2873
sg8
Vbear in
p2874
sa(dp2875
g2
Vajay pohankar
p2876
sg4
Vjabalpur
p2877
sg6
VAjay Pohankar was born in Jabalpur, Madhya Pradesh, where his father was an advocate.\u000a
p2878
sg8
Vbear in
p2879
sa(dp2880
g2
Vajay pohankar
p2881
sg4
Vanjali_pohankar
p2882
sg6
VAjay Pohankar is married to Anjali Pohankar, a vocalist and musicologist.\u000a
p2883
sg8
Vmarry to
p2884
sa(dp2885
g2
Vabhogi
p2886
sg4
Vmusic
p2887
sg6
VAbhogi is a raga in Carnatic music and has been adapted to Hindustani music.\u000a
p2888
sg8
Vraga in
p2889
sa(dp2890
g2
Vabhogi
p2891
sg4
Vmusic
p2892
sg6
VAbhogi is a raga in Carnatic music and has been adapted to Hindustani music.\u000a
p2893
sg8
Vadapt to
p2894
sa(dp2895
g2
Vabhogi
p2896
sg4
Vraga
p2897
sg6
VAbhogi is a raga in Carnatic music and has been adapted to Hindustani music.\u000a
p2898
sg8
S'is a'
p2899
sa(dp2900
g2
Vabhogi
p2901
sg4
Vmusic
p2902
sg6
VAbhogi has been borrowed from Carnatic music into Hindustani music and is also quite popular in the latter.\u000a
p2903
sg8
Vborrow from
p2904
sa(dp2905
g2
Vabhogi
p2906
sg4
Vsymmetric scale
p2907
sg6
VAbhogi is a symmetric pentatonic scale that does not contain panchamam and nishadam.\u000a
p2908
sg8
S'is a'
p2909
sa(dp2910
g2
Vabhogi
p2911
sg4
Vpentatonic scale
p2912
sg6
VAbhogi is a symmetric pentatonic scale that does not contain panchamam and nishadam.\u000a
p2913
sg8
S'is a'
p2914
sa(dp2915
g2
Vabhogi
p2916
sg4
Vscale
p2917
sg6
VAbhogi is a symmetric pentatonic scale that does not contain panchamam and nishadam.\u000a
p2918
sg8
S'is a'
p2919
sa(dp2920
g2
Vabhogi
p2921
sg4
Vpanchamam
p2922
sg6
VAbhogi is a symmetric pentatonic scale that does not contain panchamam and nishadam.\u000a
p2923
sg8
Vnot contain
p2924
sa(dp2925
g2
Vabhogi
p2926
sg4
Vnishadam
p2927
sg6
VAbhogi is a symmetric pentatonic scale that does not contain panchamam and nishadam.\u000a
p2928
sg8
g2924
sa(dp2929
g2
Vabhogi
p2930
sg4
Vscale
p2931
sg6
VAbhogi is a scale that is used for compositions in a medium to fast tempo.\u000a
p2932
sg8
S'is a'
p2933
sa(dp2934
g2
Vabhogi
p2935
sg4
Vcomposition
p2936
sg6
VAbhogi is a scale that is used for compositions in a medium to fast tempo.\u000a
p2937
sg8
Vuse for
p2938
sa(dp2939
g2
Vabhogi
p2940
sg4
Vmedium
p2941
sg6
VAbhogi is a scale that is used for compositions in a medium to fast tempo.\u000a
p2942
sg8
Vuse in
p2943
sa(dp2944
g2
Vraga
p2945
sg4
Vabhogus
p2946
sg6
VThere are also some Tamil movie songs based on the raga of abhogi.\u000a
p2947
sg8
Vraga of
p2948
sa(dp2949
g2
Vtintal
p2950
sg4
Vfamous tala
p2951
sg6
VTintal is one of the most famous talas of Hindustani music.\u000a
p2952
sg8
Vof
p2953
sa(dp2954
g2
Vtintal
p2955
sg4
Vbeat
p2956
sg6
VTintal has sixteen beats in four equal divisions.\u000a
p2957
sg8
Vsixteen
p2958
sa(dp2959
g2
Valankara
p2960
sg4
Vaddition
p2961
sg6
VIn addition seven more Alankara are given.\u000a
p2962
sg8
Vgive in
p2963
sa(dp2964
g2
Vgharana
p2965
sg4
Vtablum
p2966
sg6
VHe represented the Farukhabad, Delhi, and Ajrada gharanas of tabla, and the Nana Panse tradition of pakhavaj.\u000a
p2967
sg8
Vgharana of
p2968
sa(dp2969
g2
g2965
sg4
Vajrada
p2970
sg6
VHe represented the Farukhabad, Delhi, and Ajrada gharanas of tabla, and the Nana Panse tradition of pakhavaj.\u000a
p2971
sg8
Vgharana 's
p2972
sa(dp2973
g2
Vgharana
p2974
sg4
Vbol technique
p2975
sg6
VFor instance, some gharanas have different tabla positioning and bol techniques.\u000a
p2976
sg8
Vhave
p2977
sa(dp2978
g2
g2974
sg4
Vtablum positioning
p2979
sg6
VFor instance, some gharanas have different tabla positioning and bol techniques.\u000a
p2980
sg8
g2977
sa(dp2981
g2
Vulhas kashalkar
p2982
sg4
Vprogramme executive
p2983
sg6
VUlhas Kashalkar initially worked as a programme executive at the Thane station of All India Radio.\u000a
p2984
sg8
Vwork as
p2985
sa(dp2986
g2
Vdadra
p2987
sg4
Vtwo
p2988
sg6
VDadra refers to two separate but originally linked concepts in Hindustani classical music.\u000a
p2989
sg8
Vrefer to
p2990
sa(dp2991
g2
Vsarpada
p2992
sg4
Vraga
p2993
sg6
VSarpada is a raga in Hindustani classical music.\u000a
p2994
sg8
S'is a'
p2995
sa(dp2996
g2
Vsarpada
p2997
sg4
Vhindustani music
p2998
sg6
VSarpada is a raga in Hindustani classical music.\u000a
p2999
sg8
Vraga in
p3000
sa(dp3001
g2
Vbenares gharana
p3002
sg4
Vcommon style
p3003
sg6
VBenares gharana is one of the six most common styles of playing of the Indian tabla.\u000a
p3004
sg8
Vof
p3005
sa(dp3006
g2
Vgharana
p3007
sg4
Vbaj
p3008
sg6
VThe gharana is categorized into the Purbi baj, which includes the Farukhabad, Lucknow, and Benares gharanas.\u000a
p3009
sg8
Vcategorize into
p3010
sa(dp3011
g2
Vrimpa siva
p3012
sg4
Vmusician
p3013
sg6
VRimpa Siva is an Indian musician known for being one of the few female tabla players.\u000a
p3014
sg8
S'is a'
p3015
sa(dp3016
g2
Vrimpa siva
p3017
sg4
Vindian musician
p3018
sg6
VRimpa Siva is an Indian musician known for being one of the few female tabla players.\u000a
p3019
sg8
S'is a'
p3020
sa(dp3021
g2
Vgharana
p3022
sg4
Vdelhi
p3023
sg6
VHe then migrated to Delhi to learn Tabla under the maestro Ustad Fiyaz Khan of the Delhi gharana.\u000a
p3024
sg8
Vgharana 's
p3025
sa(dp3026
g2
Vchatur lal
p3027
sg4
Vshankar
p3028
sg6
VChatur Lal accompanied Shankar on tabla until 1962, when Alla Rakha assumed the role.\u000a
p3029
sg8
Vaccompany
p3030
sa(dp3031
g2
Vnityanand haldipur
p3032
sg4
Vperformer
p3033
sg6
VNityanand Haldipur is a performer and teacher of the Indian bamboo flute, known in India as the bansuri.\u000a
p3034
sg8
S'is a'
p3035
sa(dp3036
g2
Vnityanand haldipur
p3037
sg4
Vteacher
p3038
sg6
VNityanand Haldipur is a performer and teacher of the Indian bamboo flute, known in India as the bansuri.\u000a
p3039
sg8
S'is a'
p3040
sa(dp3041
g2
Vnityanand haldipur
p3042
sg4
Vbamboo flute
p3043
sg6
VNityanand Haldipur is a performer and teacher of the Indian bamboo flute, known in India as the bansuri.\u000a
p3044
sg8
Vteacher of
p3045
sa(dp3046
g2
Vgharana
p3047
sg4
Vmaihar
p3048
sg6
VSince 1986, Nityanand has been learning from Padma Bhushan Srimati Annapurna Devi, doyenne of the Maihar gharana.\u000a
p3049
sg8
Vgharana 's
p3050
sa(dp3051
g2
Vgauhar jaan
p3052
sg4
Vsinger
p3053
sg6
VGauhar Jaan was an Indian singer and dancer from Calcutta.\u000a
p3054
sg8
S'is a'
p3055
sa(dp3056
g2
Vgauhar jaan
p3057
sg4
Vdancer
p3058
sg6
VGauhar Jaan was an Indian singer and dancer from Calcutta.\u000a
p3059
sg8
S'is a'
p3060
sa(dp3061
g2
Vgauhar jaan
p3062
sg4
Vindian singer
p3063
sg6
VGauhar Jaan was an Indian singer and dancer from Calcutta.\u000a
p3064
sg8
S'is a'
p3065
sa(dp3066
g2
Vgauhar jaan
p3067
sg4
V26
p3068
sg6
VGauhar Jaan was born as Angelina Yeoward in on 26 June 1873 in Azamgarh, of Armenian descent.\u000a
p3069
sg8
Vbear on
p3070
sa(dp3071
g2
Vgauhar jaan
p3072
sg4
Vangelina yeoward
p3073
sg6
VGauhar Jaan was born as Angelina Yeoward in on 26 June 1873 in Azamgarh, of Armenian descent.\u000a
p3074
sg8
Vbear as
p3075
sa(dp3076
g2
Vgauhar jaan
p3077
sg4
Vazamgarh
p3078
sg6
VGauhar Jaan was born as Angelina Yeoward in on 26 June 1873 in Azamgarh, of Armenian descent.\u000a
p3079
sg8
Vbear in
p3080
sa(dp3081
g2
Vgauhar jaan
p3082
sg4
Vrecording session
p3083
sg6
VGauhar Jaan agreed to do the recording session for a princely sum of 3,000 rupees.\u000a
p3084
sg8
Vdo
p3085
sa(dp3086
g2
Vsitar
p3087
sg4
Vworldwide
p3088
sg6
VShankar has given soloist performances of her fathers 1st Concerto for Sitar and Orchestra worldwide.\u000a
p3089
sg8
S'is a'
p3090
sa(dp3091
g2
Vsitar
p3092
sg4
Vorchestra
p3093
sg6
VShankar has given soloist performances of her fathers 1st Concerto for Sitar and Orchestra worldwide.\u000a
p3094
sg8
Vworldwide 's
p3095
sa(dp3096
g2
Vprem joshua
p3097
sg4
Vmusician
p3098
sg6
VPrem Joshua is a German musician, active since 1991.\u000a
p3099
sg8
S'is a'
p3100
sa(dp3101
g2
Vprem joshua
p3102
sg4
Vgerman musician
p3103
sg6
VPrem Joshua is a German musician, active since 1991.\u000a
p3104
sg8
S'is a'
p3105
sa(dp3106
g2
Vthumri
p3107
sg4
Vsemus
p3108
sg6
VThumri is a common genre of semi - classical Indian music.\u000a
p3109
sg8
Vgenre of
p3110
sa(dp3111
g2
Vthumri
p3112
sg4
Vgenre
p3113
sg6
VThumri is a common genre of semi - classical Indian music.\u000a
p3114
sg8
S'is a'
p3115
sa(dp3116
g2
Vthumri
p3117
sg4
Vcommon genre
p3118
sg6
VThumri is a common genre of semi - classical Indian music.\u000a
p3119
sg8
S'is a'
p3120
sa(dp3121
g2
Vthumri
p3122
sg4
Vth century
p3123
sg6
VThumri arose in popularity during the 19th century in the Lucknow court of nawab Wajid Ali Shah.\u000a
p3124
sg8
Varise during
p3125
sa(dp3126
g2
Vthumri
p3127
sg4
Vpopularity
p3128
sg6
VThumri arose in popularity during the 19th century in the Lucknow court of nawab Wajid Ali Shah.\u000a
p3129
sg8
Varise in
p3130
sa(dp3131
g2
Vthumri
p3132
sg4
Vcourt
p3133
sg6
VThumri arose in popularity during the 19th century in the Lucknow court of nawab Wajid Ali Shah.\u000a
p3134
sg8
Varise in
p3135
sa(dp3136
g2
Vviram jasani
p3137
sg4
Vsitar
p3138
sg6
VViram Jasani is a Kenyan-born Indian sitar and tabla composer and musician.\u000a
p3139
sg8
S'is a'
p3140
sa(dp3141
g2
Vviram jasani
p3142
sg4
Vkenyan-born sitar
p3143
sg6
VViram Jasani is a Kenyan-born Indian sitar and tabla composer and musician.\u000a
p3144
sg8
S'is a'
p3145
sa(dp3146
g2
Vviram jasani
p3147
sg4
Vindian sitar
p3148
sg6
VViram Jasani is a Kenyan-born Indian sitar and tabla composer and musician.\u000a
p3149
sg8
S'is a'
p3150
sa(dp3151
g2
Vindore gharana
p3152
sg4
Vvocal gharana
p3153
sg6
VIndore gharana is one of the vocal gharanas of Indian classical music.\u000a
p3154
sg8
Vof
p3155
sa(dp3156
g2
Vgharana
p3157
sg4
Vbhendibazaar
p3158
sg6
VThe merukhand structure is similar to that practiced by Ustad Aman Ali Khan of the Bhendibazaar gharana.\u000a
p3159
sg8
Vgharana 's
p3160
sa(dp3161
g2
Vgharana
p3162
sg4
Vindore
p3163
sg6
VThe khayal gayaki in the Indore gharana retains the slow development and restraint from frills as in the dhrupad.\u000a
p3164
sg8
Vgharana 's
p3165
sa(dp3166
g2
Vchaturprahar
p3167
sg4
Vfestival
p3168
sg6
VChaturprahar is an annual Indian classical music festival held at National Centre for Performing Arts in Mumbai, India.\u000a
p3169
sg8
S'is a'
p3170
sa(dp3171
g2
Vchaturprahar
p3172
sg4
Vannual festival
p3173
sg6
VChaturprahar is an annual Indian classical music festival held at National Centre for Performing Arts in Mumbai, India.\u000a
p3174
sg8
S'is a'
p3175
sa(dp3176
g2
Vchaturprahar
p3177
sg4
Vclassical festival
p3178
sg6
VChaturprahar is an annual Indian classical music festival held at National Centre for Performing Arts in Mumbai, India.\u000a
p3179
sg8
S'is a'
p3180
sa(dp3181
g2
Vchaturprahar
p3182
sg4
Vmusic festival
p3183
sg6
VChaturprahar is an annual Indian classical music festival held at National Centre for Performing Arts in Mumbai, India.\u000a
p3184
sg8
S'is a'
p3185
sa(dp3186
g2
Vchaturprahar
p3187
sg4
Vindian festival
p3188
sg6
VChaturprahar is an annual Indian classical music festival held at National Centre for Performing Arts in Mumbai, India.\u000a
p3189
sg8
S'is a'
p3190
sa(dp3191
g2
Vchaturprahar
p3192
sg4
Vart
p3193
sg6
VChaturprahar is an annual Indian classical music festival held at National Centre for Performing Arts in Mumbai, India.\u000a
p3194
sg8
Vperform
p3195
sa(dp3196
g2
Vchaturprahar
p3197
sg4
Vnational_centre
p3198
sg6
VChaturprahar is an annual Indian classical music festival held at National Centre for Performing Arts in Mumbai, India.\u000a
p3199
sg8
Vhold at
p3200
sa(dp3201
g2
Vraga
p3202
sg4
Vparticular time
p3203
sg6
VSinging these ragas at their particular times brings out the most in them.\u000a
p3204
sg8
Vsing at
p3205
sa(dp3206
g2
Vkaushiki chakrabarty
p3207
sg4
Vmorning session
p3208
sg6
VKaushiki Chakrabarty performed in the morning session.\u000a
p3209
sg8
Vperform in
p3210
sa(dp3211
g2
Vraga
p3212
sg4
Vbadhans sarang
p3213
sg6
VShe brought out the best in her while rendering ragas like Shuddha Sarang and Madhmad and Badhans Sarang.\u000a
p3214
sg8
Vraga like
p3215
sa(dp3216
g2
Vsitar
p3217
sg4
Vstring
p3218
sg6
VA sitar can have 18, 19 or 20 strings.\u000a
p3219
sg8
Vhave
p3220
sa(dp3221
g2
Vsitar
p3222
sg4
Vsecondary resonator
p3223
sg6
VSome sitars have a secondary resonator, the tumbaa, near the top of the hollow neck.\u000a
p3224
sg8
Vhave
p3225
sa(dp3226
g2
g3222
sg4
Vtumbaa
p3227
sg6
VSome sitars have a secondary resonator, the tumbaa, near the top of the hollow neck.\u000a
p3228
sg8
g3225
sa(dp3229
g2
Vsitar
p3230
sg4
Vcollectible price
p3231
sg6
VSome sitars by certain manufacturers fetch very high collectible prices.\u000a
p3232
sg8
Vfetch
p3233
sa(dp3234
g2
g3230
sg4
Vcertain manufacturer
p3235
sg6
VSome sitars by certain manufacturers fetch very high collectible prices.\u000a
p3236
sg8
Vsitar by
p3237
sa(dp3238
g2
Vsitar
p3239
sg4
Volder hiren_roy
p3240
sg6
VMost notable are older Rikhi Ram and older Hiren Roy sitars depending upon which master built the instrument.\u000a
p3241
sg8
Vsitar 's
p3242
sa(dp3243
g2
Vgharana
p3244
sg4
Vvisibility
p3245
sg6
VThe gharana gained visibility and following the latter-half of the 20th Century after acclaimed contemporary vocalist Pt.\u000a
p3246
sg8
Vgain
p3247
sa(dp3248
g2
Vmewati gharana
p3249
sg4
Vstyle
p3250
sg6
VIt is for this reason that the Mewati Gharana is considered both musically and genealogically different from the Gwalior style.\u000a
p3251
sg8
Vdifferent from
p3252
sa(dp3253
g2
Vgharana
p3254
sg4
Vbishnupur
p3255
sg6
VHis younger brother Surendranath Banerjee was also a noted musicians and one of the pioneers of the Bishnupur gharana.\u000a
p3256
sg8
Vgharana 's
p3257
sa(dp3258
g2
Vgharana
p3259
sg4
Vdharbhanga
p3260
sg6
VVinod Kumar Dwivedi is an Indian classical Dhrupad - Dhamar singer, belonging to the Dharbhanga gharana.\u000a
p3261
sg8
Vgharana 's
p3262
sa(dp3263
g2
Vgharana
p3264
sg4
Vtabla
p3265
sg6
VThen he also learnt under the late Ustad Inam Ali Khan of the Delhi gharana of Tabla.\u000a
p3266
sg8
Vgharana of
p3267
sa(dp3268
g2
g3264
sg4
Vdelhi
p3269
sg6
VThen he also learnt under the late Ustad Inam Ali Khan of the Delhi gharana of Tabla.\u000a
p3270
sg8
Vgharana 's
p3271
sa(dp3272
g2
Vgharana
p3273
sg4
Vtablum playing
p3274
sg6
VChilla is widely used in the Punjab gharana of tabla playing.\u000a
p3275
sg8
Vgharana of
p3276
sa(dp3277
g2
g3273
sg4
Vpunjab
p3278
sg6
VChilla is widely used in the Punjab gharana of tabla playing.\u000a
p3279
sg8
Vgharana 's
p3280
sa(dp3281
g2
Vriyaz
p3282
sg4
Vher song
p3283
sg6
VMany new singers perform Riyaz of her songs at initial stage of their training.\u000a
p3284
sg8
Vof
p3285
sa(dp3286
g2
Vvichitra veena
p3287
sg4
Vwider fame
p3288
sg6
VIt was through Gopal Shankar Misra that the vichitra veena finally found wider international fame.\u000a
p3289
sg8
Vfind
p3290
sa(dp3291
g2
Vvichitra veena
p3292
sg4
Vspecial meaning
p3293
sg6
VBut because Vichitra Veena held a special meaning for his father, he could not let it lie silent.\u000a
p3294
sg8
Vhold
p3295
sa(dp3296
g2
Vgharana
p3297
sg4
Vhindustani music
p3298
sg6
VPandit Shankar Ghosh is a noted Indian tabla player from the Farukhabad gharana of Hindustani classical music.\u000a
p3299
sg8
Vgharana of
p3300
sa(dp3301
g2
g3297
sg4
Vfarukhabad
p3302
sg6
VPandit Shankar Ghosh is a noted Indian tabla player from the Farukhabad gharana of Hindustani classical music.\u000a
p3303
sg8
Vgharana 's
p3304
sa(dp3305
g2
Vgharana
p3306
sg4
Vpatiala
p3307
sg6
VHe is also an occasional Hindustani classical singer where he follows the Patiala gharana.\u000a
p3308
sg8
Vgharana 's
p3309
sa(dp3310
g2
Vsheema mukherjee
p3311
sg4
Vbritish player
p3312
sg6
VSheema Mukherjee is a British composer and sitar player.\u000a
p3313
sg8
S'is a'
p3314
sa(dp3315
g2
Vsheema mukherjee
p3316
sg4
Vplayer
p3317
sg6
VSheema Mukherjee is a British composer and sitar player.\u000a
p3318
sg8
S'is a'
p3319
sa(dp3320
g2
Vsheema mukherjee
p3321
sg4
Vsitar player
p3322
sg6
VSheema Mukherjee is a British composer and sitar player.\u000a
p3323
sg8
S'is a'
p3324
sa(dp3325
g2
Vsheema mukherjee
p3326
sg4
Vbritish composer
p3327
sg6
VSheema Mukherjee is a British composer and sitar player.\u000a
p3328
sg8
S'is a'
p3329
sa(dp3330
g2
Vsheema mukherjee
p3331
sg4
Vcomposer
p3332
sg6
VSheema Mukherjee is a British composer and sitar player.\u000a
p3333
sg8
S'is a'
p3334
sa(dp3335
g2
Vtabla
p3336
sg4
Vchild
p3337
sg6
VSingh grew up in Leytonstone and began playing the tablas as a child.\u000a
p3338
sg8
Vtabla as
p3339
sa(dp3340
g2
Vmalini rajurkar
p3341
sg4
Vgwalior_gharana
p3342
sg6
VMalini Rajurkar is a noted Hindustani classical singer of Gwalior Gharana.\u000a
p3343
sg8
Vsinger of
p3344
sa(dp3345
g2
Vmalini rajurkar
p3346
sg4
Vnoted hindustani
p3347
sg6
VMalini Rajurkar is a noted Hindustani classical singer of Gwalior Gharana.\u000a
p3348
sg8
Vsinger 's
p3349
sa(dp3350
g2
Vmalini rajurkar
p3351
sg4
Vclassical singer
p3352
sg6
VMalini Rajurkar is a noted Hindustani classical singer of Gwalior Gharana.\u000a
p3353
sg8
S'is a'
p3354
sa(dp3355
g2
Vmalini rajurkar
p3356
sg4
Vsinger
p3357
sg6
VMalini Rajurkar is a noted Hindustani classical singer of Gwalior Gharana.\u000a
p3358
sg8
S'is a'
p3359
sa(dp3360
g2
Valladiya khan
p3361
sg4
Vkesarbai_kerkar
p3362
sg6
VDhondutai knows specialty Raag creations made not just by Alladiya Khan but also Kesarbai Kerkar.\u000a
p3363
sg8
Vnot make
p3364
sa(dp3365
g2
Vraga
p3366
sg4
Vindian music
p3367
sg6
VThe samavadi is the second-most prominent note of a raga in Indian classical music.\u000a
p3368
sg8
Vraga in
p3369
sa(dp3370
g2
Vgharana
p3371
sg4
Vjaipur-atrauli
p3372
sg6
VGeeta Javdekar is a Hindustani classical vocalist belonging to the Jaipur-Atrauli gharana.\u000a
p3373
sg8
Vgharana 's
p3374
sa(dp3375
g2
Vamar nath
p3376
sg4
Vpakistan
p3377
sg6
VAmar Nath was born in 1924 in Jhang in Punjab, now in Pakistan.\u000a
p3378
sg8
Vbear in
p3379
sa(dp3380
g2
Vamar nath
p3381
sg4
V1924
p3382
sg6
VAmar Nath was born in 1924 in Jhang in Punjab, now in Pakistan.\u000a
p3383
sg8
Vbear in
p3384
sa(dp3385
g2
Vamar nath
p3386
sg4
Vjhang
p3387
sg6
VAmar Nath was born in 1924 in Jhang in Punjab, now in Pakistan.\u000a
p3388
sg8
Vbear in
p3389
sa(dp3390
g2
Vamar nath
p3391
sg4
Vpunjab
p3392
sg6
VAmar Nath was born in 1924 in Jhang in Punjab, now in Pakistan.\u000a
p3393
sg8
Vbear in
p3394
sa(dp3395
g2
Vrampur-sahaswan gharana
p3396
sg4
Vhindustani music
p3397
sg6
VShanno Khurana is a noted Indian classical vocalist and composer, from the Rampur-Sahaswan gharana of Hindustani classical music.\u000a
p3398
sg8
Vgharana of
p3399
sa(dp3400
g2
Vsaptak
p3401
sg4
Vlaraj
p3402
sg6
VAnd his disciple Azaruddin developed flute which can be played in the Laraj saptak he named it as Anahat Venu.\u000a
p3403
sg8
Vsaptak 's
p3404
sa(dp3405
g2
Vgharana
p3406
sg4
Vmodern maihar
p3407
sg6
VDuring his lifetime, he composed several ragas and laid the foundation of a modern Maihar gharana.\u000a
p3408
sg8
Vgharana 's
p3409
sa(dp3410
g2
Vgharana
p3411
sg4
Vsenia
p3412
sg6
VThrough him, Alauddin was given access to the Senia gharana.\u000a
p3413
sg8
Vgharana 's
p3414
sa(dp3415
g2
Vgharana
p3416
sg4
Vindian music
p3417
sg6
VDuring his time as a court musician, Khan completely reshaped the Maihar gharana of Indian classical music.\u000a
p3418
sg8
Vgharana of
p3419
sa(dp3420
g2
g3416
sg4
Vmaihar
p3421
sg6
VDuring his time as a court musician, Khan completely reshaped the Maihar gharana of Indian classical music.\u000a
p3422
sg8
Vgharana 's
p3423
sa(dp3424
g2
Vdevaki pandit
p3425
sg4
Vusha_pandit
p3426
sg6
VDevaki Pandit was born in Maharashtra, India to Usha Pandit.\u000a
p3427
sg8
Vbear to
p3428
sa(dp3429
g2
Vdevaki pandit
p3430
sg4
Vindia
p3431
sg6
VDevaki Pandit was born in Maharashtra, India to Usha Pandit.\u000a
p3432
sg8
Vbear in
p3433
sa(dp3434
g2
Vdevaki pandit
p3435
sg4
Vmaharashtra
p3436
sg6
VDevaki Pandit was born in Maharashtra, India to Usha Pandit.\u000a
p3437
sg8
Vbear in
p3438
sa(dp3439
g2
Vdevaki pandit
p3440
sg4
Vshe
p3441
sg6
VDevaki Pandit gave her to her first stage performance at age nine.\u000a
p3442
sg8
Vgive
p3443
sa(dp3444
g2
Vraga
p3445
sg4
Vhigh sa
p3446
sg6
VIt is very common to begin the elaboration of this raga with high Sa.\u000a
p3447
sg8
Vraga with
p3448
sa(dp3449
g2
Vbaiju bawra
p3450
sg4
Vhe
p3451
sg6
VBaiju Bawra, a Hindi - language film was made on him in 1952.\u000a
p3452
sg8
Vmake on
p3453
sa(dp3454
g2
Vbaiju bawra
p3455
sg4
V1952
p3456
sg6
VBaiju Bawra, a Hindi - language film was made on him in 1952.\u000a
p3457
sg8
Vmake in
p3458
sa(dp3459
g2
Vbaiju bawra
p3460
sg4
Vhindi film
p3461
sg6
VBaiju Bawra, a Hindi - language film was made on him in 1952.\u000a
p3462
sg8
S'is a'
p3463
sa(dp3464
g2
Vbaiju bawra
p3465
sg4
Vlanguage film
p3466
sg6
VBaiju Bawra, a Hindi - language film was made on him in 1952.\u000a
p3467
sg8
S'is a'
p3468
sa(dp3469
g2
Vbaiju bawra
p3470
sg4
Vfilm
p3471
sg6
VBaiju Bawra, a Hindi - language film was made on him in 1952.\u000a
p3472
sg8
S'is a'
p3473
sa(dp3474
g2
Vgeet ramayan
p3475
sg4
Vcrescendo
p3476
sg6
VThe Geet Ramayan is considered as the crescendo of Madgulkars literary vigour.\u000a
p3477
sg8
Vconsider as
p3478
sa(dp3479
g2
Vraga
p3480
sg4
Vhindustani music
p3481
sg6
VPhadke mainly used ragas of Hindustani classical music to compose the songs.\u000a
p3482
sg8
Vraga of
p3483
sa(dp3484
g2
g3480
sg4
Vsong
p3485
sg6
VPhadke mainly used ragas of Hindustani classical music to compose the songs.\u000a
p3486
sg8
Vcompose
p3487
sa(dp3488
g2
Vgeet ramayan
p3489
sg4
V1955
p3490
sg6
VGeet Ramayan was conceptualized in 1955, four years before the introduction of television in India in 1959.\u000a
p3491
sg8
Vconceptualize in
p3492
sa(dp3493
g2
Vraga
p3494
sg4
Vtime
p3495
sg6
VThe raga and Tala of a song was selected to suit the time of the incident and the narrative mood.\u000a
p3496
sg8
Vsuit
p3497
sa(dp3498
g2
g3494
sg4
Vsong
p3499
sg6
VThe raga and Tala of a song was selected to suit the time of the incident and the narrative mood.\u000a
p3500
sg8
Vtalum of
p3501
sa(dp3502
g2
Vgeet ramayan
p3503
sg4
Vnine
p3504
sg6
VGeet Ramayan has been translated into nine other languages and also transliterated into Braille.\u000a
p3505
sg8
Vtranslate into
p3506
sa(dp3507
g2
Vgeet ramayan
p3508
sg4
Vbraille
p3509
sg6
VGeet Ramayan has been translated into nine other languages and also transliterated into Braille.\u000a
p3510
sg8
Vtransliterate into
p3511
sa(dp3512
g2
Vmurki
p3513
sg4
Vshort taan
p3514
sg6
VMurki is a short taan or inverted mordent in Hindustani classical music, known as pratyahatam in Carnatic music.\u000a
p3515
sg8
S'is a'
p3516
sa(dp3517
g2
Vmurki
p3518
sg4
Vtaan
p3519
sg6
VMurki is a short taan or inverted mordent in Hindustani classical music, known as pratyahatam in Carnatic music.\u000a
p3520
sg8
S'is a'
p3521
sa(dp3522
g2
Vmurki
p3523
sg4
Vinverted mordent
p3524
sg6
VMurki is a short taan or inverted mordent in Hindustani classical music, known as pratyahatam in Carnatic music.\u000a
p3525
sg8
S'is a'
p3526
sa(dp3527
g2
Vmurki
p3528
sg4
Vmordent
p3529
sg6
VMurki is a short taan or inverted mordent in Hindustani classical music, known as pratyahatam in Carnatic music.\u000a
p3530
sg8
S'is a'
p3531
sa(dp3532
g2
Vgharana
p3533
sg4
Vpunjab
p3534
sg6
VUpon his effect he still strictly follows the traditions of the Punjab gharana.\u000a
p3535
sg8
Vgharana 's
p3536
sa(dp3537
g2
Vabhishruti bezbaruah
p3538
sg4
Vsinger
p3539
sg6
VAbhishruti Bezbaruah is an Indian classical singer who performs in the classical Hindustani music genre.\u000a
p3540
sg8
S'is a'
p3541
sa(dp3542
g2
Vabhishruti bezbaruah
p3543
sg4
Vindian singer
p3544
sg6
VAbhishruti Bezbaruah is an Indian classical singer who performs in the classical Hindustani music genre.\u000a
p3545
sg8
S'is a'
p3546
sa(dp3547
g2
Vabhishruti bezbaruah
p3548
sg4
Vclassical singer
p3549
sg6
VAbhishruti Bezbaruah is an Indian classical singer who performs in the classical Hindustani music genre.\u000a
p3550
sg8
S'is a'
p3551
sa(dp3552
g2
Vabhishruti bezbaruah
p3553
sg4
Vmusic genre
p3554
sg6
VAbhishruti Bezbaruah is an Indian classical singer who performs in the classical Hindustani music genre.\u000a
p3555
sg8
Vperform in
p3556
sa(dp3557
g2
Vanjanibai malpekar
p3558
sg4
Vnoted singer
p3559
sg6
VAnjanibai Malpekar was a noted Indian classical singer, belonging to the Bhendibazaar gharana of Hindustani classical music.\u000a
p3560
sg8
S'is a'
p3561
sa(dp3562
g2
Vanjanibai malpekar
p3563
sg4
Vclassical singer
p3564
sg6
VAnjanibai Malpekar was a noted Indian classical singer, belonging to the Bhendibazaar gharana of Hindustani classical music.\u000a
p3565
sg8
S'is a'
p3566
sa(dp3567
g2
Vanjanibai malpekar
p3568
sg4
Vsinger
p3569
sg6
VAnjanibai Malpekar was a noted Indian classical singer, belonging to the Bhendibazaar gharana of Hindustani classical music.\u000a
p3570
sg8
S'is a'
p3571
sa(dp3572
g2
Vanjanibai malpekar
p3573
sg4
Vindian singer
p3574
sg6
VAnjanibai Malpekar was a noted Indian classical singer, belonging to the Bhendibazaar gharana of Hindustani classical music.\u000a
p3575
sg8
S'is a'
p3576
sa(dp3577
g2
Vgharana
p3578
sg4
Vhindustani music
p3579
sg6
VAnjanibai Malpekar was a noted Indian classical singer, belonging to the Bhendibazaar gharana of Hindustani classical music.\u000a
p3580
sg8
Vgharana of
p3581
sa(dp3582
g2
g3578
sg4
Vbhendibazaar
p3583
sg6
VAnjanibai Malpekar was a noted Indian classical singer, belonging to the Bhendibazaar gharana of Hindustani classical music.\u000a
p3584
sg8
Vgharana 's
p3585
sa(dp3586
g2
Vanjanibai malpekar
p3587
sg4
g3578
sg6
VAnjanibai Malpekar was a noted Indian classical singer, belonging to the Bhendibazaar gharana of Hindustani classical music.\u000a
p3588
sg8
Vbelong to
p3589
sa(dp3590
g2
Vgharana
p3591
sg4
Vjaipur
p3592
sg6
VKhan grew up in a musical surrounding and was taught the Beenkar gharana of Jaipur and vocals for fifteen years.\u000a
p3593
sg8
Vgharana of
p3594
sa(dp3595
g2
g3591
sg4
Vbeenkar
p3596
sg6
VKhan grew up in a musical surrounding and was taught the Beenkar gharana of Jaipur and vocals for fifteen years.\u000a
p3597
sg8
Vgharana 's
p3598
sa(dp3599
g2
g3591
sg4
Vfifteen year
p3600
sg6
VKhan grew up in a musical surrounding and was taught the Beenkar gharana of Jaipur and vocals for fifteen years.\u000a
p3601
sg8
Vteach for
p3602
sa(dp3603
g2
Vgharana
p3604
sg4
Vcomprehensive ideology
p3605
sg6
VA gharana also indicates a comprehensive musicological ideology.\u000a
p3606
sg8
Vindicate
p3607
sa(dp3608
g2
Vgharana
p3609
sg4
Vpatiala
p3610
sg6
VThe principal feature of the thumri of the Patiala gharana is its incorporation of the tappa from the Punjab region.\u000a
p3611
sg8
Vgharana 's
p3612
sa(dp3613
g2
Vtappa
p3614
sg4
Vregion
p3615
sg6
VThe principal feature of the thumri of the Patiala gharana is its incorporation of the tappa from the Punjab region.\u000a
p3616
sg8
Vtappa from
p3617
sa(dp3618
g2
Vsitar
p3619
sg4
Vtune
p3620
sg6
VThe next part is to sound the Chala sitar to Shadjagrama tune.\u000a
p3621
sg8
Vsitar to
p3622
sa(dp3623
g2
g3619
sg4
Vchala
p3624
sg6
VThe next part is to sound the Chala sitar to Shadjagrama tune.\u000a
p3625
sg8
Vsitar 's
p3626
sa(dp3627
g2
Vsitar
p3628
sg4
Vchala
p3629
sg6
VRepeat the above mentioned procedure to further lower down the Chala sitar by one more Pramana Sruti.\u000a
p3630
sg8
Vsitar 's
p3631
sa(dp3632
g2
g3628
sg4
Vpramana sruti
p3633
sg6
VRepeat the above mentioned procedure to further lower down the Chala sitar by one more Pramana Sruti.\u000a
p3634
sg8
Vsitar by
p3635
sa(dp3636
g2
Vmadhup mudgal
p3637
sg4
Vmusic vocalist
p3638
sg6
VMadhup Mudgal is an Indian Hindustani classical music vocalist.\u000a
p3639
sg8
S'is a'
p3640
sa(dp3641
g2
Vmadhup mudgal
p3642
sg4
Vvocalist
p3643
sg6
VMadhup Mudgal is an Indian Hindustani classical music vocalist.\u000a
p3644
sg8
S'is a'
p3645
sa(dp3646
g2
Vmadhup mudgal
p3647
sg4
Vclassical vocalist
p3648
sg6
VMadhup Mudgal is an Indian Hindustani classical music vocalist.\u000a
p3649
sg8
S'is a'
p3650
sa(dp3651
g2
Vmadhup mudgal
p3652
sg4
Vindian hindustani
p3653
sg6
VMadhup Mudgal is an Indian Hindustani classical music vocalist.\u000a
p3654
sg8
Vvocalist 's
p3655
sa(dp3656
g2
Vmadhup mudgal
p3657
sg4
Vworld
p3658
sg6
VMadhup Mudgal travels across the world for his performances.\u000a
p3659
sg8
Vtravel across
p3660
sa(dp3661
g2
Vmadhup mudgal
p3662
sg4
Vhis performance
p3663
sg6
VMadhup Mudgal travels across the world for his performances.\u000a
p3664
sg8
Vtravel for
p3665
sa(dp3666
g2
Vmadhuvanti
p3667
sg4
Vname
p3668
sg6
VMadhuvanti is the name of a raga used in Indian classical music.\u000a
p3669
sg8
S'is a'
p3670
sa(dp3671
g2
Vmadhuvanti
p3672
sg4
Vraga
p3673
sg6
VMadhuvanti is the name of a raga used in Indian classical music.\u000a
p3674
sg8
Vname of
p3675
sa(dp3676
g2
g3673
sg4
Vindian music
p3677
sg6
VMadhuvanti is the name of a raga used in Indian classical music.\u000a
p3678
sg8
Vuse in
p3679
sa(dp3680
g2
Vmadhuvanti
p3681
sg4
Vtodi
p3682
sg6
VMadhuvanti belongs to thaat Todi.\u000a
p3683
sg8
Vthaat
p3684
sa(dp3685
g2
Vmadhuvanti
p3686
sg4
Vloving sentiment
p3687
sg6
VMadhuvanti expresses a gentle loving sentiment.\u000a
p3688
sg8
Vexpress
p3689
sa(dp3690
g2
Vmadhuvanti
p3691
sg4
Vraga
p3692
sg6
VMadhuvanti is the janya raga of the 59th Melakarta of Carnatic Music, Dharmavati.\u000a
p3693
sg8
S'is a'
p3694
sa(dp3695
g2
Vmadhuvanti
p3696
sg4
Vjanya raga
p3697
sg6
VMadhuvanti is the janya raga of the 59th Melakarta of Carnatic Music, Dharmavati.\u000a
p3698
sg8
S'is a'
p3699
sa(dp3700
g2
Vmadhuvanti
p3701
sg4
Vdharmavati
p3702
sg6
VMadhuvanti is the janya raga of the 59th Melakarta of Carnatic Music, Dharmavati.\u000a
p3703
sg8
Vraga of
p3704
sa(dp3705
g2
Vmadhuvanti
p3706
sg4
Vth melakarta_of_carnatic_music
p3707
sg6
VMadhuvanti is the janya raga of the 59th Melakarta of Carnatic Music, Dharmavati.\u000a
p3708
sg8
Vraga of
p3709
sa(dp3710
g2
Vmadhuvanti
p3711
sg4
Vmelodious raga
p3712
sg6
VMadhuvanti is a very melodious raga.\u000a
p3713
sg8
S'is a'
p3714
sa(dp3715
g2
Vmadhuvanti
p3716
sg4
Vraga
p3717
sg6
VMadhuvanti is a very melodious raga.\u000a
p3718
sg8
S'is a'
p3719
sa(dp3720
g2
Vraga
p3721
sg4
Vmany tukada
p3722
sg6
VThis raga has been used to compose many tukadas.\u000a
p3723
sg8
Vcompose
p3724
sa(dp3725
g2
Vgharana
p3726
sg4
Vhindustani music
p3727
sg6
VPandit Kishan Maharaj was an Indian tabla player who belonged to the Benares gharana of Hindustani classical music.\u000a
p3728
sg8
Vgharana of
p3729
sa(dp3730
g2
g3726
sg4
Vbenares
p3731
sg6
VPandit Kishan Maharaj was an Indian tabla player who belonged to the Benares gharana of Hindustani classical music.\u000a
p3732
sg8
Vgharana 's
p3733
sa(dp3734
g2
Vdhrupad
p3735
sg4
Vvocal tradition
p3736
sg6
VThough Dhrupad is basically a vocal tradition, its musical aesthetics have been adopted by many instrumentalists.\u000a
p3737
sg8
S'is a'
p3738
sa(dp3739
g2
Vdhrupad
p3740
sg4
Vtradition
p3741
sg6
VThough Dhrupad is basically a vocal tradition, its musical aesthetics have been adopted by many instrumentalists.\u000a
p3742
sg8
S'is a'
p3743
sa(dp3744
g2
Vraga
p3745
sg4
Vmodal frame
p3746
sg6
VEach raga has a modal frame - a wealth of micro-tonal ornamentations are typical.\u000a
p3747
sg8
Vhave
p3748
sa(dp3749
g2
Valap
p3750
sg4
Vtext
p3751
sg6
VThe text is preceded by a wholly improvised section, the alap.\u000a
p3752
sg8
Vprecede
p3753
sa(dp3754
g2
Vgharana
p3755
sg4
Vdarbhanga
p3756
sg6
VToday the senior performer of the Darbhanga gharana is Prem Kumar Mallick.\u000a
p3757
sg8
Vgharana 's
p3758
sa(dp3759
g2
Vgharana
p3760
sg4
Vpatronage
p3761
sg6
VThis gharana flourished under the patronage of the kings of Bettiah Raj.\u000a
p3762
sg8
Vflourish under
p3763
sa(dp3764
g2
Vgharana
p3765
sg4
Vbettiah
p3766
sg6
VThe most famous exponents of the Bettiah gharana today are Indrakishore Mishra and Falguni Mitra.\u000a
p3767
sg8
Vgharana 's
p3768
sa(dp3769
g2
Vrampur-sahaswan gharana
p3770
sg4
Vtradition
p3771
sg6
VPopularly known as Ustad Ghulam Sadiq Khan, he belongs to the Rampur-Sahaswan gharana of the Mian Tansen tradition.\u000a
p3772
sg8
Vgharana of
p3773
sa(dp3774
g2
Vsohni
p3775
sg4
Vhindustani music
p3776
sg6
VSohni is a raga in Hindustani classical music in the Marwa thaat.\u000a
p3777
sg8
Vraga in
p3778
sa(dp3779
g2
Vsohni
p3780
sg4
Vraga
p3781
sg6
VSohni is a raga in Hindustani classical music in the Marwa thaat.\u000a
p3782
sg8
S'is a'
p3783
sa(dp3784
g2
Vgharana
p3785
sg4
Vpandit_chhannulal_mishra
p3786
sg6
VRamkumar Mishra is the grandson of Pandit Anokhelal Mishra from Banaras gharana and son of Pandit Chhannulal Mishra.\u000a
p3787
sg8
Vgharana of
p3788
sa(dp3789
g2
g3785
sg4
Vbanaras
p3790
sg6
VRamkumar Mishra is the grandson of Pandit Anokhelal Mishra from Banaras gharana and son of Pandit Chhannulal Mishra.\u000a
p3791
sg8
Vgharana 's
p3792
sa(dp3793
g2
Vgharana
p3794
sg4
Vpatiala
p3795
sg6
VBade Ghulam Ali Khan was a Hindustani classical vocalist, from the Patiala gharana.\u000a
p3796
sg8
Vgharana 's
p3797
sa(dp3798
g2
Vmanjusha kulkarni-patil
p3799
sg4
Vhindustani vocalist
p3800
sg6
VManjusha Kulkarni-Patil is an Hindustani classical music vocalist.\u000a
p3801
sg8
S'is a'
p3802
sa(dp3803
g2
Vmanjusha kulkarni-patil
p3804
sg4
Vmusic vocalist
p3805
sg6
VManjusha Kulkarni-Patil is an Hindustani classical music vocalist.\u000a
p3806
sg8
S'is a'
p3807
sa(dp3808
g2
Vmanjusha kulkarni-patil
p3809
sg4
Vvocalist
p3810
sg6
VManjusha Kulkarni-Patil is an Hindustani classical music vocalist.\u000a
p3811
sg8
S'is a'
p3812
sa(dp3813
g2
Vmanjusha kulkarni-patil
p3814
sg4
Vclassical vocalist
p3815
sg6
VManjusha Kulkarni-Patil is an Hindustani classical music vocalist.\u000a
p3816
sg8
S'is a'
p3817
sa(dp3818
g2
Vgharana
p3819
sg4
Vgwalior
p3820
sg6
VShe belongs to the Gwalior gharana.\u000a
p3821
sg8
Vgharana 's
p3822
sa(dp3823
g2
Vmanjusha kulkarni-patil
p3824
sg4
V2 nov
p3825
sg6
VManjusha Kulkarni-Patil was born in Sangli, Maharashtra, India on2nd Nov. 1971 in a family of musicians.\u000a
p3826
sg8
Vbear on
p3827
sa(dp3828
g2
Vmanjusha kulkarni-patil
p3829
sg4
Vsangli
p3830
sg6
VManjusha Kulkarni-Patil was born in Sangli, Maharashtra, India on2nd Nov. 1971 in a family of musicians.\u000a
p3831
sg8
Vbear in
p3832
sa(dp3833
g2
Vmanjusha kulkarni-patil
p3834
sg4
Vfamily
p3835
sg6
VManjusha Kulkarni-Patil was born in Sangli, Maharashtra, India on2nd Nov. 1971 in a family of musicians.\u000a
p3836
sg8
Vbear in
p3837
sa(dp3838
g2
Vmanjusha kulkarni-patil
p3839
sg4
Vkhayal form
p3840
sg6
VManjusha Kulkarni-Patil is known for her Khayal form of Hindustani music.\u000a
p3841
sg8
Vknow for
p3842
sa(dp3843
g2
Vraga
p3844
sg4
Veasy-to-understand language
p3845
sg6
VHe explained the ragas in an easy-to-understand language and composed several bandishes which explained the grammar of the ragas.\u000a
p3846
sg8
Vraga in
p3847
sa(dp3848
g2
Vomkarnath thakur
p3849
sg4
Vimproved version
p3850
sg6
VOmkarnath Thakur introduced their improved versions, it remained a publishers favorite.\u000a
p3851
sg8
Vintroduce
p3852
sa(dp3853
g2
Vmilind date
p3854
sg4
Vmusic composer
p3855
sg6
VMilind Date is an Indian flutist and music composer who plays the bansuri.\u000a
p3856
sg8
S'is a'
p3857
sa(dp3858
g2
Vmilind date
p3859
sg4
Vindian composer
p3860
sg6
VMilind Date is an Indian flutist and music composer who plays the bansuri.\u000a
p3861
sg8
S'is a'
p3862
sa(dp3863
g2
Vmilind date
p3864
sg4
Vflutist
p3865
sg6
VMilind Date is an Indian flutist and music composer who plays the bansuri.\u000a
p3866
sg8
S'is a'
p3867
sa(dp3868
g2
Vmilind date
p3869
sg4
Vindian flutist
p3870
sg6
VMilind Date is an Indian flutist and music composer who plays the bansuri.\u000a
p3871
sg8
S'is a'
p3872
sa(dp3873
g2
Vmilind date
p3874
sg4
Vcomposer
p3875
sg6
VMilind Date is an Indian flutist and music composer who plays the bansuri.\u000a
p3876
sg8
S'is a'
p3877
sa(dp3878
g2
Vmilind date
p3879
sg4
Vbansurus
p3880
sg6
VMilind Date is an Indian flutist and music composer who plays the bansuri.\u000a
p3881
sg8
Vplay
p3882
sa(dp3883
g2
Vgulubhai jasdanwalla
p3884
sg4
Vsuccessful disciple
p3885
sg6
VGulubhai Jasdanwalla produced many successful disciples, including Baba Azizuddin Khan, Smt.\u000a
p3886
sg8
Vproduce
p3887
sa(dp3888
g2
Vpadma talwalkar
p3889
sg4
Vindian vocalist
p3890
sg6
VPadma Talwalkar is an Indian classical vocalist.\u000a
p3891
sg8
S'is a'
p3892
sa(dp3893
g2
Vpadma talwalkar
p3894
sg4
Vvocalist
p3895
sg6
VPadma Talwalkar is an Indian classical vocalist.\u000a
p3896
sg8
S'is a'
p3897
sa(dp3898
g2
Vpadma talwalkar
p3899
sg4
Vclassical vocalist
p3900
sg6
VPadma Talwalkar is an Indian classical vocalist.\u000a
p3901
sg8
S'is a'
p3902
sa(dp3903
g2
Vpadma talwalkar
p3904
sg4
Vmumbai
p3905
sg6
VPadma Talwalkar was born in Mumbai, India.\u000a
p3906
sg8
Vbear in
p3907
sa(dp3908
g2
Vpadma talwalkar
p3909
sg4
Vindia
p3910
sg6
VPadma Talwalkar was born in Mumbai, India.\u000a
p3911
sg8
Vbear in
p3912
sa(dp3913
g2
Vpadma talwalkar
p3914
sg4
Vtablum maestro pt
p3915
sg6
VPadma Talwalkar is married to well known tabla maestro Pt.\u000a
p3916
sg8
Vmarry to
p3917
sa(dp3918
g2
Vgharana
p3919
sg4
Vimdadkhani
p3920
sg6
VShujaat Husain Khan is an Indian musician and sitar player of the Imdadkhani gharana.\u000a
p3921
sg8
Vgharana 's
p3922
sa(dp3923
g2
Vgharana
p3924
sg4
Vmewati
p3925
sg6
VShe belongs to the Mewati gharana.\u000a
p3926
sg8
Vgharana 's
p3927
sa(dp3928
g2
Vsureshbabu mane
p3929
sg4
Vkirana_gharana
p3930
sg6
VSureshbabu Mane was a prominent Hindustani classical music singer of Kirana Gharana in India.\u000a
p3931
sg8
Vsinger of
p3932
sa(dp3933
g2
Vsureshbabu mane
p3934
sg4
Vprominent hindustani
p3935
sg6
VSureshbabu Mane was a prominent Hindustani classical music singer of Kirana Gharana in India.\u000a
p3936
sg8
Vsinger 's
p3937
sa(dp3938
g2
Vsureshbabu mane
p3939
sg4
Vclassical singer
p3940
sg6
VSureshbabu Mane was a prominent Hindustani classical music singer of Kirana Gharana in India.\u000a
p3941
sg8
S'is a'
p3942
sa(dp3943
g2
Vsureshbabu mane
p3944
sg4
Vsinger
p3945
sg6
VSureshbabu Mane was a prominent Hindustani classical music singer of Kirana Gharana in India.\u000a
p3946
sg8
S'is a'
p3947
sa(dp3948
g2
Vsureshbabu mane
p3949
sg4
Vmusic singer
p3950
sg6
VSureshbabu Mane was a prominent Hindustani classical music singer of Kirana Gharana in India.\u000a
p3951
sg8
S'is a'
p3952
sa(dp3953
g2
Vbismillah khan
p3954
sg4
V21_march_1913
p3955
sg6
VBismillah Khan was born on 21 March 1913 in Dumraon, Bihar in northern India.\u000a
p3956
sg8
Vbear on
p3957
sa(dp3958
g2
Vbismillah khan
p3959
sg4
Vbihar
p3960
sg6
VBismillah Khan was born on 21 March 1913 in Dumraon, Bihar in northern India.\u000a
p3961
sg8
Vbear in
p3962
sa(dp3963
g2
Vbismillah khan
p3964
sg4
Vdumraon
p3965
sg6
VBismillah Khan was born on 21 March 1913 in Dumraon, Bihar in northern India.\u000a
p3966
sg8
Vbear in
p3967
sa(dp3968
g2
Vbismillah khan
p3969
sg4
Vnorthern india
p3970
sg6
VBismillah Khan was born on 21 March 1913 in Dumraon, Bihar in northern India.\u000a
p3971
sg8
Vbear in
p3972
sa(dp3973
g2
Vdeenanath mangeshkar
p3974
sg4
Vsinging lesson
p3975
sg6
VDeenanath Mangeshkar started taking singing and music lessons from Shri Baba Mashelkar at the age of five.\u000a
p3976
sg8
Vtake
p3977
sa(dp3978
g2
Vshrutinandan
p3979
sg4
Vacademy
p3980
sg6
VShrutinandan is an Indian classical music academy located in Kolkata, India.\u000a
p3981
sg8
S'is a'
p3982
sa(dp3983
g2
Vshrutinandan
p3984
sg4
Vclassical academy
p3985
sg6
VShrutinandan is an Indian classical music academy located in Kolkata, India.\u000a
p3986
sg8
S'is a'
p3987
sa(dp3988
g2
Vshrutinandan
p3989
sg4
Vmusic academy
p3990
sg6
VShrutinandan is an Indian classical music academy located in Kolkata, India.\u000a
p3991
sg8
S'is a'
p3992
sa(dp3993
g2
Vshrutinandan
p3994
sg4
Vindian academy
p3995
sg6
VShrutinandan is an Indian classical music academy located in Kolkata, India.\u000a
p3996
sg8
S'is a'
p3997
sa(dp3998
g2
Vshrutinandan
p3999
sg4
Vkolkata
p4000
sg6
VShrutinandan is an Indian classical music academy located in Kolkata, India.\u000a
p4001
sg8
Vlocate in
p4002
sa(dp4003
g2
Vshrutinandan
p4004
sg4
Vindia
p4005
sg6
VShrutinandan is an Indian classical music academy located in Kolkata, India.\u000a
p4006
sg8
Vlocate in
p4007
sa(dp4008
g2
Vshrutinandan
p4009
sg4
Vjuly_1997
p4010
sg6
VShrutinandan was inaugurated on July 1997.\u000a
p4011
sg8
Vinaugurate on
p4012
sa(dp4013
g2
Vvikas kashalkar
p4014
sg4
Vproducer
p4015
sg6
VVikas Kashalkar worked as a Producer at Balbharati, Pune.\u000a
p4016
sg8
Vwork as
p4017
sa(dp4018
g2
Vvikas kashalkar
p4019
sg4
Vmelodious voice
p4020
sg6
VVikas Kashalkar has melodious voice and intricacies of ` Tanas ' give immense joy to the listeners.\u000a
p4021
sg8
Vhave
p4022
sa(dp4023
g2
Vraga
p4024
sg4
Vnote
p4025
sg6
VThis raga in its avarohana has the notes jumping from one to another.\u000a
p4026
sg8
Vhave
p4027
sa(dp4028
g2
g4024
sg4
Vits avarohana
p4029
sg6
VThis raga in its avarohana has the notes jumping from one to another.\u000a
p4030
sg8
Vraga in
p4031
sa(dp4032
g2
Vgharana
p4033
sg4
Vdarbhanga
p4034
sg6
VHe belonged to the Darbhanga gharana and was based in Patna.\u000a
p4035
sg8
Vgharana 's
p4036
sa(dp4037
g2
Vtappa
p4038
sg4
Vbhajan
p4039
sg6
VHe also performed in other genres such as Khyal, Thumri, Tappa and bhajan.\u000a
p4040
sg8
S'is a'
p4041
sa(dp4042
g2
Vvijay koparkar
p4043
sg4
Vsing lesson
p4044
sg6
VVijay Koparkar started taking singing lessons at the age of eight.\u000a
p4045
sg8
Vtake
p4046
sa(dp4047
g2
Vvijay koparkar
p4048
sg4
Vmusic lesson
p4049
sg6
VVijay Koparkar has been imparting music lessons for many years.\u000a
p4050
sg8
Vimpart
p4051
sa(dp4052
g2
Vbandish projekt
p4053
sg4
Vmusical act
p4054
sg6
VBandish Projekt is a musical act featuring a blend of Indian elements in an electronica format.\u000a
p4055
sg8
S'is a'
p4056
sa(dp4057
g2
Vbandish projekt
p4058
sg4
Vact
p4059
sg6
VBandish Projekt is a musical act featuring a blend of Indian elements in an electronica format.\u000a
p4060
sg8
S'is a'
p4061
sa(dp4062
g2
Vbandish projekt
p4063
sg4
Vblend
p4064
sg6
VBandish Projekt is a musical act featuring a blend of Indian elements in an electronica format.\u000a
p4065
sg8
Vfeature
p4066
sa(dp4067
g2
Vbandish projekt
p4068
sg4
Vtwo
p4069
sg6
VBandish Projekt released two EPs in 2012, I Am Not Alone and Correkt Remixed.\u000a
p4070
sg8
Vrelease
p4071
sa(dp4072
g2
Vahir bhairav
p4073
sg4
Vclassical raga
p4074
sg6
VAhir Bhairav is a Hindustani classical raga.\u000a
p4075
sg8
S'is a'
p4076
sa(dp4077
g2
Vahir bhairav
p4078
sg4
Vraga
p4079
sg6
VAhir Bhairav is a Hindustani classical raga.\u000a
p4080
sg8
S'is a'
p4081
sa(dp4082
g2
Vahir bhairav
p4083
sg4
Vhindustani
p4084
sg6
VAhir Bhairav is a Hindustani classical raga.\u000a
p4085
sg8
Vraga 's
p4086
sa(dp4087
g2
Vahir bhairav
p4088
sg4
Vraga
p4089
sg6
VAhir Bhairav is typical uttarang raga, which means emphasis is on the upper tetrachord.\u000a
p4090
sg8
S'is a'
p4091
sa(dp4092
g2
Vahir bhairav
p4093
sg4
Vuttarang raga
p4094
sg6
VAhir Bhairav is typical uttarang raga, which means emphasis is on the upper tetrachord.\u000a
p4095
sg8
S'is a'
p4096
sa(dp4097
g2
Vahir bhairav
p4098
sg4
Vtypical raga
p4099
sg6
VAhir Bhairav is typical uttarang raga, which means emphasis is on the upper tetrachord.\u000a
p4100
sg8
S'is a'
p4101
sa(dp4102
g2
Vtilwada
p4103
sg4
Vkheyal
p4104
sg6
VTilwada is often used in Kheyal.\u000a
p4105
sg8
Vuse in
p4106
sa(dp4107
g2
Vgharana
p4108
sg4
Vgwalior
p4109
sg6
VSunanda Patnaik is an Indian classical singer of Gwalior gharana from Odisha.\u000a
p4110
sg8
Vgharana 's
p4111
sa(dp4112
g2
g4108
sg4
Vodisha
p4113
sg6
VSunanda Patnaik is an Indian classical singer of Gwalior gharana from Odisha.\u000a
p4114
sg8
Vgharana from
p4115
sa(dp4116
g2
Vasad qizilbash
p4117
sg4
Vviolin
p4118
sg6
VAsad Qizilbash started learning violin when he was around 8 years old.\u000a
p4119
sg8
Vlearn
p4120
sa(dp4121
g2
Vasad qizilbash
p4122
sg4
Vperform member
p4123
sg6
VAsad Qizilbash became a performing member of the Childrens Art Workshop at the Pakistan National Council of Arts.\u000a
p4124
sg8
Vbecome
p4125
sa(dp4126
g2
Vasad qizilbash
p4127
sg4
Vpakistan
p4128
sg6
VAsad Qizilbash was selected with some other musicians to represent Pakistan at the Attaturk Festival, in Ankara.\u000a
p4129
sg8
Vrepresent
p4130
sa(dp4131
g2
Vasad qizilbash
p4132
sg4
Vmarcus_mingus_jazz_club
p4133
sg6
VAsad Qizilbash performs live at the Marcus Mingus Jazz Club in Brussels, Belgium.\u000a
p4134
sg8
Vperform at
p4135
sa(dp4136
g2
Vsurbahar
p4137
sg4
V130
p4138
sg6
VThe surbahar is over 130 cm.\u000a
p4139
sg8
Vbe over
p4140
sa(dp4141
g2
Vsurbahar
p4142
sg4
V1825
p4143
sg6
VSome researchers believe that surbahar was invented around 1825.\u000a
p4144
sg8
Vinvent around
p4145
sa(dp4146
g2
Vshehnai
p4147
sg4
Vt-sery label
p4148
sg6
VLals own recordings include Splendour in Shehnai, issued in 1990 on the T-Series record label.\u000a
p4149
sg8
Vissue on
p4150
sa(dp4151
g2
Vshehnai
p4152
sg4
V1990
p4153
sg6
VLals own recordings include Splendour in Shehnai, issued in 1990 on the T-Series record label.\u000a
p4154
sg8
Vissue in
p4155
sa(dp4156
g2
Vgharana
p4157
sg4
Vlate pandit_krishnarao_pandit_of_gwalior
p4158
sg6
VRinge was the disciple of late Pandit Krishnarao Pandit of Gwalior gharana.\u000a
p4159
sg8
Vgharana 's
p4160
sa(dp4161
g2
Vkirana gharana
p4162
sg4
Vkhyal gharana
p4163
sg6
VKirana Gharana is one of the most prolific Hindustani khyal gharanas.\u000a
p4164
sg8
Vof
p4165
sa(dp4166
g2
Vgovindrao tembe
p4167
sg4
Vadvisement
p4168
sg6
VGovindrao Tembe benefited from Bakhales advisement in composing music for the stage play Sangeet Manapman.\u000a
p4169
sg8
Vbenefit from
p4170
sa(dp4171
g2
Vtabla
p4172
sg4
Vlive performance
p4173
sg6
VGajananbuwa plays Raga Mulatani and Khansaheb accompanies him on Tabla, a live performance.\u000a
p4174
sg8
S'is a'
p4175
sa(dp4176
g2
Vtabla
p4177
sg4
Vperformance
p4178
sg6
VGajananbuwa plays Raga Mulatani and Khansaheb accompanies him on Tabla, a live performance.\u000a
p4179
sg8
S'is a'
p4180
sa(dp4181
g2
Vgayaki
p4182
sg4
Vone
p4183
sg6
VIt is difficult enough to learn and grasp the Gayaki of one Gharana.\u000a
p4184
sg8
Vof
p4185
sa(dp4186
g2
Vgayaki
p4187
sg4
Vsingle gharana
p4188
sg6
VIt takes many years may be a lifetime to master the Gayaki of a single Gharana.\u000a
p4189
sg8
Vof
p4190
sa(dp4191
g2
Vgayaki
p4192
sg4
Vgharana
p4193
sg6
VMastering the Gayaki of a given Gharana naturally involved mastering new Ragas and new compositions.\u000a
p4194
sg8
Vof
p4195
sa(dp4196
g2
Vraga
p4197
sg4
Vframework
p4198
sg6
VHe presented a given Raga in a well defined framework of a given Gharana.\u000a
p4199
sg8
Vraga in
p4200
sa(dp4201
g2
Vkhyal
p4202
sg4
Vgharanas
p4203
sg6
VIn his vocal mode he sang only khyals of the three Gharanas.\u000a
p4204
sg8
Vkhyal of
p4205
sa(dp4206
g2
Vwasifuddin dagar
p4207
sg4
Vnorth_america
p4208
sg6
VWasifuddin Dagar has toured North America performing dhrupad solo since 2000.\u000a
p4209
sg8
Vtour
p4210
sa(dp4211
g2
Vbishnupur gharana
p4212
sg4
Vstrong link
p4213
sg6
VBishnupur Gharana therefore has a strong link to Betia Gharana through this unbroken relationship.\u000a
p4214
sg8
Vhave
p4215
sa(dp4216
g2
Vbishnupur gharana
p4217
sg4
Vgopeswar_bandyopadhyay
p4218
sg6
VThree of them were from Bishnupur Gharana : Gopeswar Bandyopadhyay, Satyakinkar Bandyopadhyay and Khetra Mohan Goswami.\u000a
p4219
sg8
V:
p4220
sa(dp4221
g2
Vrag lalit
p4222
sg4
Valbum
p4223
sg6
VRag Lalit is a studio album by Indian classical musician Ram Narayan, released in 1989.\u000a
p4224
sg8
S'is a'
p4225
sa(dp4226
g2
Vrag lalit
p4227
sg4
Vstudio album
p4228
sg6
VRag Lalit is a studio album by Indian classical musician Ram Narayan, released in 1989.\u000a
p4229
sg8
S'is a'
p4230
sa(dp4231
g2
Vrag lalit
p4232
sg4
Vmusician ram_narayan
p4233
sg6
VRag Lalit is a studio album by Indian classical musician Ram Narayan, released in 1989.\u000a
p4234
sg8
Valbum by
p4235
sa(dp4236
g2
Vrag lalit
p4237
sg4
V1989
p4238
sg6
VRag Lalit is a studio album by Indian classical musician Ram Narayan, released in 1989.\u000a
p4239
sg8
Vrelease in
p4240
sa(dp4241
g2
Vgandharva mahavidyalaya
p4242
sg4
Vvishnu digamber annual festival
p4243
sg6
VGandharva Mahavidyalaya has also been organizing the annual Vishnu Digamber Festival in Delhi, for many years now.\u000a
p4244
sg8
Vorganize
p4245
sa(dp4246
g2
Vamit arya
p4247
sg4
Vvancouver
p4248
sg6
VAmit Arya was born in Vancouver, British Columbia, Canada.\u000a
p4249
sg8
Vbear in
p4250
sa(dp4251
g2
Vamit arya
p4252
sg4
Vmedical doctor
p4253
sg6
VAmit Arya holds a medical Degree from the University of British Columbia and is a Medical Doctor by profession.\u000a
p4254
sg8
S'is a'
p4255
sa(dp4256
g2
Vamit arya
p4257
sg4
Vdoctor
p4258
sg6
VAmit Arya holds a medical Degree from the University of British Columbia and is a Medical Doctor by profession.\u000a
p4259
sg8
S'is a'
p4260
sa(dp4261
g2
Vamit arya
p4262
sg4
Vmedical degree
p4263
sg6
VAmit Arya holds a medical Degree from the University of British Columbia and is a Medical Doctor by profession.\u000a
p4264
sg8
Vhold
p4265
sa(dp4266
g2
Vamit arya
p4267
sg4
Vprofession
p4268
sg6
VAmit Arya holds a medical Degree from the University of British Columbia and is a Medical Doctor by profession.\u000a
p4269
sg8
Vdoctor by
p4270
sa(dp4271
g2
Vgharana
p4272
sg4
Vkirana
p4273
sg6
VJoshi occasionally employed the use of sargam and tihaais, and often sang traditional compositions of the Kirana gharana.\u000a
p4274
sg8
Vgharana 's
p4275
sa(dp4276
g2
Vbhurji khan
p4277
sg4
Vyoungest son
p4278
sg6
VBhurji Khan was the third and youngest son of Utd.\u000a
p4279
sg8
S'is a'
p4280
sa(dp4281
g2
Vbhurji khan
p4282
sg4
Vthird son
p4283
sg6
VBhurji Khan was the third and youngest son of Utd.\u000a
p4284
sg8
S'is a'
p4285
sa(dp4286
g2
Vbhurji khan
p4287
sg4
Vson
p4288
sg6
VBhurji Khan was the third and youngest son of Utd.\u000a
p4289
sg8
S'is a'
p4290
sa(dp4291
g2
Vbhurji khan
p4292
sg4
Vutd
p4293
sg6
VBhurji Khan was the third and youngest son of Utd.\u000a
p4294
sg8
Vson of
p4295
sa(dp4296
g2
Vbhurji khan
p4297
sg4
Vhis child
p4298
sg6
VBhurji Khan was the most capable of his children.\u000a
p4299
sg8
Vcapable of
p4300
sa(dp4301
g2
Vbhurji khan
p4302
sg4
Vuniara
p4303
sg6
VBhurji Khan fell seriously ill with motzira while visiting Uniara.\u000a
p4304
sg8
Vvisit
p4305
sa(dp4306
g2
Vbhurji khan
p4307
sg4
Vmotzira
p4308
sg6
VBhurji Khan fell seriously ill with motzira while visiting Uniara.\u000a
p4309
sg8
Vill with
p4310
sa(dp4311
g2
Vbhurji khan
p4312
sg4
S'#unknown'
p4313
sg6
VBhurji Khan took to teaching that his memory solidified and his musical growth resumed.\u000a
p4314
sg8
Vtake to
p4315
sa(dp4316
g2
Vbhurji khan
p4317
sg4
Vpt
p4318
sg6
VBhurji Khan agreed to teach Pt.\u000a
p4319
sg8
Vteach
p4320
sa(dp4321
g2
Vbhurji khan
p4322
sg4
Vprolonged illness
p4323
sg6
VBhurji Khan died in 1950 after a prolonged illness.\u000a
p4324
sg8
Vdie after
p4325
sa(dp4326
g2
Vbhurji khan
p4327
sg4
V1950
p4328
sg6
VBhurji Khan died in 1950 after a prolonged illness.\u000a
p4329
sg8
Vdie in
p4330
sa(dp4331
g2
Vpatdeep
p4332
sg4
Vrendition
p4333
sg6
VThe record had Rut Basant in Raga Rageshri Bahar and Piya Pardes in Patdeep, famous renditions by the Ustad.\u000a
p4334
sg8
S'is a'
p4335
sa(dp4336
g2
Vpatdeep
p4337
sg4
Vfamous rendition
p4338
sg6
VThe record had Rut Basant in Raga Rageshri Bahar and Piya Pardes in Patdeep, famous renditions by the Ustad.\u000a
p4339
sg8
S'is a'
p4340
sa(dp4341
g2
Vpatdeep
p4342
sg4
Vustad
p4343
sg6
VThe record had Rut Basant in Raga Rageshri Bahar and Piya Pardes in Patdeep, famous renditions by the Ustad.\u000a
p4344
sg8
Vrendition by
p4345
sa(dp4346
g2
Vbandish
p4347
sg4
Vperformance
p4348
sg6
VHis choice of bandishes for performances were carefully selected for their sahityic value.\u000a
p4349
sg8
Vbandish for
p4350
sa(dp4351
g2
Vdhrupad
p4352
sg4
Vindia
p4353
sg6
VAfter having established Dhrupad in a pedestal of glory in India, they were invited to perform abroad.\u000a
p4354
sg8
Vhave in
p4355
sa(dp4356
g2
g4352
sg4
Vpedestal
p4357
sg6
VAfter having established Dhrupad in a pedestal of glory in India, they were invited to perform abroad.\u000a
p4358
sg8
Vhave in
p4359
sa(dp4360
g2
Vraga
p4361
sg4
Vshort duration
p4362
sg6
VHe was a master at presenting an attractive and comprehensive picture of a raga in a very short duration.\u000a
p4363
sg8
Vraga in
p4364
sa(dp4365
g2
Vgharana
p4366
sg4
Vimdadkhani
p4367
sg6
VBimalendu Mukherjee is world-renowned Hindustani classical sitar player, and a teacher of the Imdadkhani gharana,.\u000a
p4368
sg8
Vgharana 's
p4369
sa(dp4370
g2
Vbimalendu mukherjee
p4371
sg4
g4366
sg6
VBimalendu Mukherjee is world-renowned Hindustani classical sitar player, and a teacher of the Imdadkhani gharana,.\u000a
p4372
sg8
Vteacher of
p4373
sa(dp4374
g2
Vbimalendu mukherjee
p4375
sg4
Vworld-renowned hindustani
p4376
sg6
VBimalendu Mukherjee is world-renowned Hindustani classical sitar player, and a teacher of the Imdadkhani gharana,.\u000a
p4377
sg8
Vplayer 's
p4378
sa(dp4379
g2
Vbimalendu mukherjee
p4380
sg4
Vplayer
p4381
sg6
VBimalendu Mukherjee is world-renowned Hindustani classical sitar player, and a teacher of the Imdadkhani gharana,.\u000a
p4382
sg8
S'is a'
p4383
sa(dp4384
g2
Vbimalendu mukherjee
p4385
sg4
Vclassical player
p4386
sg6
VBimalendu Mukherjee is world-renowned Hindustani classical sitar player, and a teacher of the Imdadkhani gharana,.\u000a
p4387
sg8
S'is a'
p4388
sa(dp4389
g2
Vbimalendu mukherjee
p4390
sg4
Vsitar player
p4391
sg6
VBimalendu Mukherjee is world-renowned Hindustani classical sitar player, and a teacher of the Imdadkhani gharana,.\u000a
p4392
sg8
S'is a'
p4393
sa(dp4394
g2
Vbimalendu mukherjee
p4395
sg4
Vteacher
p4396
sg6
VBimalendu Mukherjee is world-renowned Hindustani classical sitar player, and a teacher of the Imdadkhani gharana,.\u000a
p4397
sg8
S'is a'
p4398
sa(dp4399
g2
Vudaka vadya
p4400
sg4
Vindian instrument
p4401
sg6
VUdaka Vadya is an Indian musical instrument.\u000a
p4402
sg8
S'is a'
p4403
sa(dp4404
g2
Vudaka vadya
p4405
sg4
Vmusical instrument
p4406
sg6
VUdaka Vadya is an Indian musical instrument.\u000a
p4407
sg8
S'is a'
p4408
sa(dp4409
g2
Vudaka vadya
p4410
sg4
Vinstrument
p4411
sg6
VUdaka Vadya is an Indian musical instrument.\u000a
p4412
sg8
S'is a'
p4413
sa(dp4414
g2
Vraga
p4415
sg4
Vmany carnatic
p4416
sg6
VHe brought many Carnatic ragas into Hindustani classical music.\u000a
p4417
sg8
Vraga 's
p4418
sa(dp4419
g2
Vgharana
p4420
sg4
Vbhendibazaar
p4421
sg6
VHe introduced rhythmic play and style of solfa singing to the Bhendibazaar gharana.\u000a
p4422
sg8
Vgharana 's
p4423
sa(dp4424
g2
Vtanmoy bose
p4425
sg4
Vvirtuoso
p4426
sg6
VTanmoy Bose is one of India 's best known Tabla virtuoso of this generation.\u000a
p4427
sg8
Vof
p4428
sa(dp4429
g2
Vtabla
p4430
sg4
Vindia
p4431
sg6
VTanmoy Bose is one of India 's best known Tabla virtuoso of this generation.\u000a
p4432
sg8
V's
p4433
sa(dp4434
g2
Vgharana
p4435
sg4
Vkirana
p4436
sg6
VWhen she was 16 she began learning under K. D. Gavkar of the Kirana gharana at Mumbai.\u000a
p4437
sg8
Vgharana 's
p4438
sa(dp4439
g2
g4435
sg4
Vmumbai
p4440
sg6
VWhen she was 16 she began learning under K. D. Gavkar of the Kirana gharana at Mumbai.\u000a
p4441
sg8
Vgharana at
p4442
sa(dp4443
g2
Vgajananrao joshi
p4444
sg4
Vshe
p4445
sg6
VGajananrao Joshi graciously agreed to train her.\u000a
p4446
sg8
Vtrain
p4447
sa(dp4448
g2
Vwajahat khan
p4449
sg4
Vplayer
p4450
sg6
VWajahat Khan is an Indian sarod player who has earned international acclaim since 1977.\u000a
p4451
sg8
S'is a'
p4452
sa(dp4453
g2
Vwajahat khan
p4454
sg4
Vsarod player
p4455
sg6
VWajahat Khan is an Indian sarod player who has earned international acclaim since 1977.\u000a
p4456
sg8
S'is a'
p4457
sa(dp4458
g2
Vwajahat khan
p4459
sg4
Vindian player
p4460
sg6
VWajahat Khan is an Indian sarod player who has earned international acclaim since 1977.\u000a
p4461
sg8
S'is a'
p4462
sa(dp4463
g2
Vwajahat khan
p4464
sg4
Vinternational acclaim
p4465
sg6
VWajahat Khan is an Indian sarod player who has earned international acclaim since 1977.\u000a
p4466
sg8
Vearn
p4467
sa(dp4468
g2
Vdadra
p4469
sg4
Vlucknow_radio_station
p4470
sg6
VShe sang three ghazals and a dadra at Lucknow Radio Station.\u000a
p4471
sg8
Vdadra at
p4472
sa(dp4473
g2
Vwamanrao sadolikar
p4474
sg4
Vfamily
p4475
sg6
VWamanrao Sadolikar was born into a family of music lovers in Kolhapur.\u000a
p4476
sg8
Vbear into
p4477
sa(dp4478
g2
Vwamanrao sadolikar
p4479
sg4
Vkolhapur
p4480
sg6
VWamanrao Sadolikar was born into a family of music lovers in Kolhapur.\u000a
p4481
sg8
Vbear in
p4482
sa(dp4483
g2
Valladiya khan
p4484
sg4
Vhis brother
p4485
sg6
VAlladiya Khan, and he instructed his brother, Madhukar Sadolikar, his daughter Smt.\u000a
p4486
sg8
Vinstruct
p4487
sa(dp4488
g2
Vjhaptal
p4489
sg4
Vfamous tala
p4490
sg6
VJhaptal is one of the most famous talas of Hindustani music, after Teental.\u000a
p4491
sg8
Vof
p4492
sa(dp4493
g2
Vsugarless
p4494
sg4
Vsingle first
p4495
sg6
VSugarless is the first single from Swami s 2009 Greatest Hits compilation 53431.\u000a
p4496
sg8
S'is a'
p4497
sa(dp4498
g2
Vsugarless
p4499
sg4
Vswami
p4500
sg6
VSugarless is the first single from Swami s 2009 Greatest Hits compilation 53431.\u000a
p4501
sg8
Vfirst from
p4502
sa(dp4503
g2
Vsadra
p4504
sg4
Voldest form
p4505
sg6
VSadra is a vocal genre in Hindustani classical music, said to be the oldest forms in that musical tradition.\u000a
p4506
sg8
Vbe
p4507
sa(dp4508
g2
Vsadra
p4509
sg4
Vhindustani music
p4510
sg6
VSadra is a vocal genre in Hindustani classical music, said to be the oldest forms in that musical tradition.\u000a
p4511
sg8
Vgenre in
p4512
sa(dp4513
g2
Vsadra
p4514
sg4
Vgenre
p4515
sg6
VSadra is a vocal genre in Hindustani classical music, said to be the oldest forms in that musical tradition.\u000a
p4516
sg8
S'is a'
p4517
sa(dp4518
g2
Vsadra
p4519
sg4
Vvocal genre
p4520
sg6
VSadra is a vocal genre in Hindustani classical music, said to be the oldest forms in that musical tradition.\u000a
p4521
sg8
S'is a'
p4522
sa(dp4523
g2
Vreenat fauzia
p4524
sg4
Vaward
p4525
sg6
VReenat Fauzia has receivedAnanya Shirsho Dosh award in 2009.\u000a
p4526
sg8
Vhave
p4527
sa(dp4528
g2
Vsantoor
p4529
sg4
Vaccompaniment instrument
p4530
sg6
VIn India, the santoor was used as an accompaniment instrument to the folk music of Kashmir.\u000a
p4531
sg8
Vuse as
p4532
sa(dp4533
g2
g4529
sg4
Vindia
p4534
sg6
VIn India, the santoor was used as an accompaniment instrument to the folk music of Kashmir.\u000a
p4535
sg8
Vuse in
p4536
sa(dp4537
g2
Vsantoor
p4538
sg4
Vasana
p4539
sg6
VThe santoor is played while sitting in an asana called ardha-padmasana position and placing it on top of the lap.\u000a
p4540
sg8
Vsit in
p4541
sa(dp4542
g2
g4538
sg4
Vit
p4543
sg6
VThe santoor is played while sitting in an asana called ardha-padmasana position and placing it on top of the lap.\u000a
p4544
sg8
Vplace
p4545
sa(dp4546
g2
Vritesh das
p4547
sg4
Vtablum player
p4548
sg6
VRitesh Das is a tabla player who has been studying, teaching and composing since the early 1970s.\u000a
p4549
sg8
S'is a'
p4550
sa(dp4551
g2
Vritesh das
p4552
sg4
Vplayer
p4553
sg6
VRitesh Das is a tabla player who has been studying, teaching and composing since the early 1970s.\u000a
p4554
sg8
S'is a'
p4555
sa(dp4556
g2
Vritesh das
p4557
sg4
Vteaching
p4558
sg6
VRitesh Das is a tabla player who has been studying, teaching and composing since the early 1970s.\u000a
p4559
sg8
Vstudy
p4560
sa(dp4561
g2
Vritesh das
p4562
sg4
Vkolkata
p4563
sg6
VRitesh Das was born in Kolkata, West Bengal to parents Nrityacharya Prohlad Das and Smt.\u000a
p4564
sg8
Vbear in
p4565
sa(dp4566
g2
Vgharana
p4567
sg4
Vkirana
p4568
sg6
VHe had his initial training from Govindrao Bhatambrekar of the Kirana gharana for a decade.\u000a
p4569
sg8
Vgharana 's
p4570
sa(dp4571
g2
g4567
sg4
Vdecade
p4572
sg6
VHe had his initial training from Govindrao Bhatambrekar of the Kirana gharana for a decade.\u000a
p4573
sg8
Vgharana for
p4574
sa(dp4575
g2
Vbandish
p4576
sg4
Vdifferent raga
p4577
sg6
VHe composed more than 200 bandishes in different ragas under the pen-name Gunijan.\u000a
p4578
sg8
Vbandish in
p4579
sa(dp4580
g2
Vgirija devi
p4581
sg4
Vsamar_saha
p4582
sg6
VGirija Devi performed with Samar Saha and Zakir Hussain performed with Dilshad Khan.\u000a
p4583
sg8
Vperform with
p4584
sa(dp4585
g2
Vaditya kalyanpur
p4586
sg4
Vplayer
p4587
sg6
VAditya Kalyanpur is an Indian Tabla player.\u000a
p4588
sg8
S'is a'
p4589
sa(dp4590
g2
Vaditya kalyanpur
p4591
sg4
Vindian tabla
p4592
sg6
VAditya Kalyanpur is an Indian Tabla player.\u000a
p4593
sg8
Vplayer 's
p4594
sa(dp4595
g2
Vgharana
p4596
sg4
Vpunjab
p4597
sg6
VHe belongs to the Punjab gharana.\u000a
p4598
sg8
Vgharana 's
p4599
sa(dp4600
g2
Vaditya kalyanpur
p4601
sg4
Vhis performance
p4602
sg6
VAditya Kalyanpur was initially known for his debut performance with his guru Zakir Hussain for the Wah Taj !.\u000a
p4603
sg8
Vknow for
p4604
sa(dp4605
g2
Vrais khan
p4606
sg4
Vpakistan
p4607
sg6
VRais Khan moved to Pakistan after marrying a Pakistani lady.\u000a
p4608
sg8
Vmove to
p4609
sa(dp4610
g2
Vrais khan
p4611
sg4
Vpakistani lady
p4612
sg6
VRais Khan moved to Pakistan after marrying a Pakistani lady.\u000a
p4613
sg8
Vmarry
p4614
sa(dp4615
g2
Vniladri kumar
p4616
sg4
Vindian classical
p4617
sg6
VNiladri Kumar is an Indian classical and fusion musician.\u000a
p4618
sg8
S'is a'
p4619
sa(dp4620
g2
Vniladri kumar
p4621
sg4
Vclassical
p4622
sg6
VNiladri Kumar is an Indian classical and fusion musician.\u000a
p4623
sg8
S'is a'
p4624
sa(dp4625
g2
Vniladri kumar
p4626
sg4
Vfusion musician
p4627
sg6
VNiladri Kumar is an Indian classical and fusion musician.\u000a
p4628
sg8
S'is a'
p4629
sa(dp4630
g2
Vniladri kumar
p4631
sg4
Vmusician
p4632
sg6
VNiladri Kumar is an Indian classical and fusion musician.\u000a
p4633
sg8
S'is a'
p4634
sa(dp4635
g2
Vniladri kumar
p4636
sg4
Vindian musician
p4637
sg6
VNiladri Kumar is an Indian classical and fusion musician.\u000a
p4638
sg8
S'is a'
p4639
sa(dp4640
g2
Vniladri kumar
p4641
sg4
Vhis career
p4642
sg6
VNiladri Kumar began his career with music directors Laxmikant-Pyarelal in the late 1980s.\u000a
p4643
sg8
Vbegin
p4644
sa(dp4645
g2
Vomkarnath thakur
p4646
sg4
Vindian educator
p4647
sg6
VOmkarnath Thakur was an influential Indian educator, musicologist, and Hindustani classical singer.\u000a
p4648
sg8
S'is a'
p4649
sa(dp4650
g2
Vomkarnath thakur
p4651
sg4
Vinfluential educator
p4652
sg6
VOmkarnath Thakur was an influential Indian educator, musicologist, and Hindustani classical singer.\u000a
p4653
sg8
S'is a'
p4654
sa(dp4655
g2
Vomkarnath thakur
p4656
sg4
Veducator
p4657
sg6
VOmkarnath Thakur was an influential Indian educator, musicologist, and Hindustani classical singer.\u000a
p4658
sg8
S'is a'
p4659
sa(dp4660
g2
Vgharana
p4661
sg4
Vgwalior
p4662
sg6
VThakur soon became an accomplished singer in the style of the Gwalior gharana started accompanying his guru and other musicians.\u000a
p4663
sg8
Vgharana 's
p4664
sa(dp4665
g2
g4661
sg4
Vother musician
p4666
sg6
VThakur soon became an accomplished singer in the style of the Gwalior gharana started accompanying his guru and other musicians.\u000a
p4667
sg8
Vaccompany
p4668
sa(dp4669
g2
Vprabha atre
p4670
sg4
Vsenior vocalist
p4671
sg6
VPrabha Atre is currently one of the senior vocalists in the country representing the Kirana Gharana.\u000a
p4672
sg8
Vof
p4673
sa(dp4674
g2
Vprabha atre
p4675
sg4
Vbook
p4676
sg6
VPrabha Atre has authored books on the various aspects of music that are especially relevant to the present day performance.\u000a
p4677
sg8
Vauthor
p4678
sa(dp4679
g2
Vbalakrishnabuwa ichalkaranjikar
p4680
sg4
Vkhayal
p4681
sg6
VBalakrishnabuwa Ichalkaranjikar was an Indian vocalist of Khayal - genre of Hindustani classical music.\u000a
p4682
sg8
Vvocalist of
p4683
sa(dp4684
g2
Vbalakrishnabuwa ichalkaranjikar
p4685
sg4
Vindian vocalist
p4686
sg6
VBalakrishnabuwa Ichalkaranjikar was an Indian vocalist of Khayal - genre of Hindustani classical music.\u000a
p4687
sg8
S'is a'
p4688
sa(dp4689
g2
Vbalakrishnabuwa ichalkaranjikar
p4690
sg4
Vvocalist
p4691
sg6
VBalakrishnabuwa Ichalkaranjikar was an Indian vocalist of Khayal - genre of Hindustani classical music.\u000a
p4692
sg8
S'is a'
p4693
sa(dp4694
g2
Vbalakrishnabuwa ichalkaranjikar
p4695
sg4
Vmaharashtra
p4696
sg6
VBalakrishnabuwa Ichalkaranjikar was born in Maharashtra.\u000a
p4697
sg8
Vbear in
p4698
sa(dp4699
g2
Vbharat gupt
p4700
sg4
Vcomeback
p4701
sg6
VBharat Gupt is a vocal activist for the revival of Indian Heritage and its comeback in the educational system.\u000a
p4702
sg8
S'is a'
p4703
sa(dp4704
g2
Vbharat gupt
p4705
sg4
Vits comeback
p4706
sg6
VBharat Gupt is a vocal activist for the revival of Indian Heritage and its comeback in the educational system.\u000a
p4707
sg8
S'is a'
p4708
sa(dp4709
g2
Vbharat gupt
p4710
sg4
Vvocal activist
p4711
sg6
VBharat Gupt is a vocal activist for the revival of Indian Heritage and its comeback in the educational system.\u000a
p4712
sg8
S'is a'
p4713
sa(dp4714
g2
Vbharat gupt
p4715
sg4
Vactivist
p4716
sg6
VBharat Gupt is a vocal activist for the revival of Indian Heritage and its comeback in the educational system.\u000a
p4717
sg8
S'is a'
p4718
sa(dp4719
g2
Vbharat gupt
p4720
sg4
Vrevival
p4721
sg6
VBharat Gupt is a vocal activist for the revival of Indian Heritage and its comeback in the educational system.\u000a
p4722
sg8
Vactivist for
p4723
sa(dp4724
g2
Vbharat gupt
p4725
sg4
Veducational system
p4726
sg6
VBharat Gupt is a vocal activist for the revival of Indian Heritage and its comeback in the educational system.\u000a
p4727
sg8
Vcomeback in
p4728
sa(dp4729
g2
Vgharana
p4730
sg4
Vimdadkhani
p4731
sg6
VRajeev Janardan, is a Hindustani classical sitar player of the Imdadkhani gharana, taught by Bimalendu Mukherjee.\u000a
p4732
sg8
Vgharana 's
p4733
sa(dp4734
g2
Vsitar
p4735
sg4
Vmukherjee
p4736
sg6
VHe trained as a singer before switching to the sitar, studying with Mukherjee.\u000a
p4737
sg8
Vstudy with
p4738
sa(dp4739
g2
Vjohar ali khan
p4740
sg4
Vviolinist
p4741
sg6
VJohar Ali Khan is a Classical Indian violinist.\u000a
p4742
sg8
S'is a'
p4743
sa(dp4744
g2
Vjohar ali khan
p4745
sg4
Vindian violinist
p4746
sg6
VJohar Ali Khan is a Classical Indian violinist.\u000a
p4747
sg8
S'is a'
p4748
sa(dp4749
g2
Vjohar ali khan
p4750
sg4
Vclassical violinist
p4751
sg6
VJohar Ali Khan is a Classical Indian violinist.\u000a
p4752
sg8
S'is a'
p4753
sa(dp4754
g2
Vjohar ali khan
p4755
sg4
Vmusic
p4756
sg6
VJohar Ali Khan has composed music for the South Pacific Games on behalf of ICCR, New Delhi.\u000a
p4757
sg8
Vcompose
p4758
sa(dp4759
g2
Vgharana
p4760
sg4
Vbenares
p4761
sg6
VPandit Samta Prasad was an Indian classical musician and tabla player from the Benares gharana.\u000a
p4762
sg8
Vgharana 's
p4763
sa(dp4764
g2
Vgharana
p4765
sg4
Vetawah
p4766
sg6
VAbhik Mukherjee is an Indian classical sitar artist of the Etawah gharana.\u000a
p4767
sg8
Vgharana 's
p4768
sa(dp4769
g2
Vraga
p4770
sg4
Vtime
p4771
sg6
VThis raga may have originated in Maharashtra about the time of the major Muslim invasions.\u000a
p4772
sg8
Voriginate about
p4773
sa(dp4774
g2
g4770
sg4
Vmaharashtra
p4775
sg6
VThis raga may have originated in Maharashtra about the time of the major Muslim invasions.\u000a
p4776
sg8
Voriginate in
p4777
sa(dp4778
g2
Vgharana
p4779
sg4
Vgwalior
p4780
sg6
VHaddu Khan and Hassu Khan further enhanced the style of the Gwalior gharana as we recognize it today.\u000a
p4781
sg8
Vgharana 's
p4782
sa(dp4783
g2
Vdhrupad
p4784
sg4
Vmany overlap
p4785
sg6
VBoth Dhrupad and khyal singing evolved in Gwalior and there are many overlaps.\u000a
p4786
sg8
Vbe
p4787
sa(dp4788
g2
Vraga
p4789
sg4
Vless tuning
p4790
sg6
VSome ragas require a less common tuning with shuddh NI, NI-sa-sa-SA.\u000a
p4791
sg8
Vrequire
p4792
sa(dp4793
g2
Vjaipur-atrauli gharana
p4794
sg4
Vhindustani music
p4795
sg6
VMallikarjun Bheemarayappa Mansur was an Indian classical singer of the khyal style in the Jaipur-Atrauli gharana of Hindustani classical music.\u000a
p4796
sg8
Vgharana of
p4797
sa.