(lp0
(lp1
Vvijay sardeshmukh
p2
aVbear in
p3
aVjune_1952
p4
aa(lp5
Valladiya khan
p6
aVknow as
p7
aVgaan samraat
p8
aa(lp9
Valladiya khan
p10
aS'is a'
p11
aVclassical singer
p12
aa(lp13
Valladiya khan
p14
aS'is a'
p15
aVsinger
p16
aa(lp17
Valladiya khan
p18
aS'is a'
p19
aVindian singer
p20
aa(lp21
Vgharana
p22
aVgharana 's
p23
aVjaipur-atrauli
p24
aa(lp25
g22
aVbase on
p26
aVgharana
p27
aa(lp28
g27
aVgharana 's
p29
aVjaipur-atrauli
p30
aa(lp31
Valladiya khan
p32
aVserve include
p33
aS'#unknown'
p34
aa(lp35
Valladiya khan
p36
aVserve in
p37
aVcourt
p38
aa(lp39
Vbandish
p40
aVbandish with
p41
aVthey
p42
aa(lp43
Vsitar
p44
aS'a type of'
p45
aVmaestro
p46
aa(lp47
Vvilayat khan
p48
aVbear in
p49
aVbritish_india
p50
aa(lp51
Vvilayat khan
p52
aVbear in
p53
aVgauripur
p54
aa(lp55
Vsitar
p56
aS'a type of'
p57
aVmaestro
p58
aa(lp59
Vvilayat khan
p60
aVspend
p61
aVmuch
p62
aa(lp63
Vsurbahar
p64
aS'a type of'
p65
aVfield
p66
aa(lp67
Vsitar
p68
aS'a type of'
p69
aVlesson
p70
aa(lp71
V53431
p72
aS'is a'
p73
aVcompilation
p74
aa(lp75
V53431
p76
aVcompilation 's
p77
aVgreatest hits
p78
aa(lp79
V53431
p80
aVcompilation by
p81
aVelectro-pop band swami
p82
aa(lp83
Vgharana
p84
aVgharana 's
p85
aVbhendibazar
p86
aa(lp87
Vmerukhand
p88
aS'is a'
p89
aVpart
p90
aa(lp91
Vgharana
p92
aVgharana 's
p93
aVindore
p94
aa(lp95
Vmerukhand
p96
aVpart of
p97
aVimprovisational strategy
p98
aa(lp99
Vgulubhai jasdanwalla
p100
aVlearn from
p101
aVutd
p102
aa(lp103
Vmanji khan
p104
aVnotice
p105
aVpt
p106
aa(lp107
Vpakhavaj
p108
aVhave
p109
aVlow tone
p110
aa(lp111
Vpakhavaj
p112
aS'a type of'
p113
aVrhythm
p114
aa(lp115
Vpakhavaj
p116
aS'a type of'
p117
aVstyle
p118
aa(lp119
Vpakhavaj
p120
aS'a type of'
p121
aVcomposition
p122
aa(lp123
Vsarod
p124
aS'a type of'
p125
aVplayer
p126
aa(lp127
g124
aS'a type of'
p128
aVplaying
p129
aa(lp130
Vsarod
p131
aS'a type of'
p132
aVplayer
p133
aa(lp134
Vsarod
p135
aS'a type of'
p136
aVplayer
p137
aa(lp138
Vgharana
p139
aVgharana of
p140
aVhindustani music
p141
aa(lp142
g139
aVgharana 's
p143
aVmewati
p144
aa(lp145
Vgharana
p146
aS'a type of'
p147
aVstyle
p148
aa(lp149
Vjasraj
p150
aVparticipate at
p151
aVsawai_gandharva_music_festival
p152
aa(lp153
Vgharana
p154
aVgharana 's
p155
aVpatiala
p156
aa(lp157
Vgharana
p158
aVgharana 's
p159
aVjaipur-atrauli
p160
aa(lp161
Vgharana
p162
aVgharana of
p163
aVmusic
p164
aa(lp165
Vsabir khan
p166
aVexpose to
p167
aVmusic
p168
aa(lp169
Vsabir khan
p170
aVperform with
p171
aVhis father
p172
aa(lp173
Vsabir khan
p174
aVperform with
p175
aVsolo
p176
aa(lp177
Vkaushiki chakrabarty
p178
aS'is a'
p179
aVindian vocalist
p180
aa(lp181
Vkaushiki chakrabarty
p182
aS'is a'
p183
aVvocalist
p184
aa(lp185
Vkaushiki chakrabarty
p186
aS'is a'
p187
aVprominent vocalist
p188
aa(lp189
Vkaushiki chakrabarty
p190
aS'is a'
p191
aVclassical vocalist
p192
aa(lp193
Vbhinnashadaja
p194
aVof
p195
aVhindustani_classical_music
p196
aa(lp197
Vlakshmi shankar
p198
aVpass on
p199
aV30
p200
aa(lp201
Vsitar
p202
aS'a type of'
p203
aVmaestro
p204
aa(lp205
Vlakshmi shankar
p206
aVpass on
p207
aV30
p208
aa(lp209
Vlakshmi shankar
p210
aVpass in
p211
aVusa
p212
aa(lp213
Vraga
p214
aVname for
p215
aVgentle incarnation
p216
aa(lp217
Vraga
p218
aVrelate to
p219
aVraga asavari
p220
aa(lp221
Vraga
p222
aS'a type of'
p223
aVmalum
p224
aa(lp225
Vasavari
p226
aVraga 's
p227
aVhindustani
p228
aa(lp229
Vasavari
p230
aS'is a'
p231
aVclassical raga
p232
aa(lp233
Vasavari
p234
aS'is a'
p235
aVraga
p236
aa(lp237
Vasavari
p238
aS'a type of'
p239
aVthat
p240
aa(lp241
Vraga
p242
aS'a type of'
p243
aVclosest
p244
aa(lp245
Vthumri
p246
aVthumri from
p247
aVfeminist perspective
p248
aa(lp249
Vshamim ahmed khan
p250
aS'is a'
p251
aVstudent
p252
aa(lp253
Vshamim ahmed khan
p254
aVstudent of
p255
aVpandit ravi_shankar
p256
aa(lp257
Vraga
p258
aS'a type of'
p259
aVmusic
p260
aa(lp261
Vsarangi
p262
aVenjoy
p263
aVstatus
p264
aa(lp265
Vsarangi
p266
aS'a type of'
p267
aVplayer
p268
aa(lp269
Vgharana
p270
aVgharana of
p271
aVindian music
p272
aa(lp273
g270
aVgharana 's
p274
aVsufiana
p275
aa(lp276
Vabdul wahid khan
p277
aS'is a'
p278
aVclassical singer
p279
aa(lp280
Vabdul wahid khan
p281
aS'is a'
p282
aVsinger
p283
aa(lp284
Vabdul wahid khan
p285
aS'is a'
p286
aVindian singer
p287
aa(lp288
Vgharana
p289
aVgharana 's
p290
aVkirana
p291
aa(lp292
Vgharana
p293
aS'a type of'
p294
aVfamily
p295
aa(lp296
Vanand bhate
p297
aS'is a'
p298
aVclassical vocalist
p299
aa(lp300
Vanand bhate
p301
aS'is a'
p302
aVvocalist
p303
aa(lp304
Vanand bhate
p305
aVvocalist 's
p306
aVhindustani
p307
aa(lp308
Vanand bhate
p309
aVvocalist from
p310
aVkirana_gharana
p311
aa(lp312
Vanand bhate
p313
aVknow as
p314
aVanand_gandharva
p315
aa(lp316
Vanand bhate
p317
aVbear in
p318
aV1971
p319
aa(lp320
Vanand bhate
p321
aVbear in
p322
aVfamily active
p323
aa(lp324
Vanand bhate
p325
aVbear in
p326
aVindia
p327
aa(lp328
Vanand bhate
p329
aVbear in
p330
aVclassical music
p331
aa(lp332
Vanand bhate
p333
aVbear in
p334
aVpune
p335
aa(lp336
Vkhyal
p337
aS'is a'
p338
aVgenre
p339
aa(lp340
Vkhyal
p341
aS'is a'
p342
aVmodern genre
p343
aa(lp344
Vkhyal
p345
aVgenre of
p346
aVclassical singing
p347
aa(lp348
Vdrut
p349
aS'a type of'
p350
aVtempo
p351
aa(lp352
Vkhyal
p353
aS'a type of'
p354
aVperformance
p355
aa(lp356
Vsitar
p357
aS'a type of'
p358
aVplayer
p359
aa(lp360
Vdhrupad
p361
aS'a type of'
p362
aVsinger
p363
aa(lp364
Vsitar
p365
aS'a type of'
p366
aVplayer
p367
aa(lp368
Vsitar
p369
aS'a type of'
p370
aVplaying
p371
aa(lp372
Vkhyal
p373
aS'a type of'
p374
aVstyle
p375
aa(lp376
Vgharana
p377
aVgharana of
p378
aVvocal music
p379
aa(lp380
g377
aVgharana 's
p381
aVgwalior
p382
aa(lp383
Vmalabika kanan
p384
aS'is a'
p385
aVhindustani vocalist
p386
aa(lp387
Vmalabika kanan
p388
aS'is a'
p389
aVvocalist
p390
aa(lp391
Vmalabika kanan
p392
aS'is a'
p393
aVclassical vocalist
p394
aa(lp395
Vdhrupad
p396
aS'a type of'
p397
aVstyle
p398
aa(lp399
Vdhrupad
p400
aS'a type of'
p401
aVstyle
p402
aa(lp403
Vvivadi
p404
aS'a type of'
p405
aVswaram
p406
aa(lp407
Vraga
p408
aVraga 's
p409
aVpopular vivadi
p410
aa(lp411
Vvivadi
p412
aS'a type of'
p413
aVswaram
p414
aa(lp415
Vdebasis chakroborty
p416
aS'is a'
p417
aVclassical player
p418
aa(lp419
Vdebasis chakroborty
p420
aS'is a'
p421
aVslide player
p422
aa(lp423
Vdebasis chakroborty
p424
aS'is a'
p425
aVplayer
p426
aa(lp427
Vdebasis chakroborty
p428
aS'is a'
p429
aVindian player
p430
aa(lp431
Vdebasis chakroborty
p432
aS'is a'
p433
aVguitar player
p434
aa(lp435
Vdebasis chakroborty
p436
aVbelong to
p437
aVsenia-maihar gharana
p438
aa(lp439
Vrishab prasanna
p440
aS'is a'
p441
aVflute
p442
aa(lp443
Vrishab prasanna
p444
aS'is a'
p445
aVplayer
p446
aa(lp447
Vrishab prasanna
p448
aS'is a'
p449
aVindian player
p450
aa(lp451
Vrishab prasanna
p452
aS'is a'
p453
aVbansurus player
p454
aa(lp455
Vrishab prasanna
p456
aS'is a'
p457
aVindian flute
p458
aa(lp459
Vrishab prasanna
p460
aVlearn
p461
aVindian music
p462
aa(lp463
Vsitar
p464
aS'a type of'
p465
aVplayer
p466
aa(lp467
Vsitar
p468
aS'a type of'
p469
aVplaying
p470
aa(lp471
Vgharana
p472
aVgharana of
p473
aVsitar playing
p474
aa(lp475
g472
aVgharana 's
p476
aVsenia
p477
aa(lp478
Vsitar
p479
aS'a type of'
p480
aVtechnique
p481
aa(lp482
Vsitar
p483
aS'a type of'
p484
aVplayer
p485
aa(lp486
Vsurbahar
p487
aS'a type of'
p488
aVplay
p489
aa(lp490
Vsurbahar
p491
aVfelicitate
p492
aVplaying
p493
aa(lp494
Valap
p495
aS'a type of'
p496
aVday
p497
aa(lp498
Vsurbahar
p499
aVtechnique with
p500
aVthree
p501
aa(lp502
Vsurbahar
p503
aS'is a'
p504
aVtechnique
p505
aa(lp506
Vtappa
p507
aS'is a'
p508
aVform
p509
aa(lp510
Vtappa
p511
aVform of
p512
aVindian music
p513
aa(lp514
Vtappa
p515
aVtappa 's
p516
aVramnidhi_gupta bengali
p517
aa(lp518
Vsanam marvi
p519
aVdebut at
p520
aVprogramme
p521
aa(lp522
Vsanam marvi
p523
aVdebut at
p524
aVvirsa_heritage '
p525
aa(lp526
Vjahan-e-khusrau
p527
aVfestival 's
p528
aVsufi
p529
aa(lp530
Vjahan-e-khusrau
p531
aS'is a'
p532
aVfestival
p533
aa(lp534
Vjahan-e-khusrau
p535
aS'is a'
p536
aVmusic festival
p537
aa(lp538
Vrasoolan bai
p539
aS'is a'
p540
aVmusician
p541
aa(lp542
Vrasoolan bai
p543
aS'is a'
p544
aVvocal musician
p545
aa(lp546
Vrasoolan bai
p547
aS'is a'
p548
aVhindustani musician
p549
aa(lp550
Vrasoolan bai
p551
aS'is a'
p552
aVclassical musician
p553
aa(lp554
Vrasoolan bai
p555
aS'is a'
p556
aVlead musician
p557
aa(lp558
Vrasoolan bai
p559
aS'is a'
p560
aVindian musician
p561
aa(lp562
Vrasoolan bai
p563
aS'is a'
p564
aVmusic musician
p565
aa(lp566
Vgharana
p567
aVgharana 's
p568
aVbenaras
p569
aa(lp570
Vthumri
p571
aS'a type of'
p572
aVgenre
p573
aa(lp574
Vbaburaj
p575
aVrender
p576
aVmusic
p577
aa(lp578
Vbaburaj
p579
aVbear on
p580
aV29_march_1921
p581
aa(lp582
Vbaburaj
p583
aVbear in
p584
aVkozhikode
p585
aa(lp586
Vbaburaj
p587
aVbecome
p588
aVfatherless song
p589
aa(lp590
Vbaburaj
p591
aS'is a'
p592
aVplayer
p593
aa(lp594
Vbaburaj
p595
aS'is a'
p596
aVsinger
p597
aa(lp598
Vbaburaj
p599
aS'is a'
p600
aVharmonium player
p601
aa(lp602
Vbaburaj
p603
aS'is a'
p604
aVaccomplished singer
p605
aa(lp606
Vbaburaj
p607
aS'is a'
p608
aVaccomplished player
p609
aa(lp610
Vbaburaj
p611
aVdie
p612
aVearly death
p613
aa(lp614
Vgharana
p615
aVgharana 's
p616
aVpatiala
p617
aa(lp618
Vkeherwa
p619
aVhave
p620
aVmany variation
p621
aa(lp622
Vfaiyaz khan
p623
aVof
p624
aVagra gharana
p625
aa(lp626
Vdhrupad
p627
aS'is a'
p628
aVstyle
p629
aa(lp630
Vdhrupad
p631
aVstyle of
p632
aVagra gharana
p633
aa(lp634
Vdhrupad
p635
aVstyle 's
p636
aVkhayal
p637
aa(lp638
Vgharana
p639
aVgharana 's
p640
aVjaipur-atrauli
p641
aa(lp642
Vgharana
p643
aVgharana 's
p644
aVjaipur-atrauli
p645
aa(lp646
Vimrat khan
p647
aS'is a'
p648
aVsitar
p649
aa(lp650
Vimrat khan
p651
aS'is a'
p652
aVplayer
p653
aa(lp654
Vimrat khan
p655
aS'is a'
p656
aVlead sitar
p657
aa(lp658
Vimrat khan
p659
aS'is a'
p660
aVsurbahar player
p661
aa(lp662
Vsurbahar
p663
aS'a type of'
p664
aVplayer
p665
aa(lp666
Vsurbahar
p667
aS'a type of'
p668
aVtradition
p669
aa(lp670
Vtappa
p671
aS'a type of'
p672
aVsinging
p673
aa(lp674
Vsitar
p675
aS'a type of'
p676
aVplayer
p677
aa(lp678
Vsurbahar
p679
aS'a type of'
p680
aVplayer
p681
aa(lp682
Vimdad khan
p683
aVmove with
p684
aVhis family
p685
aa(lp686
Vimdad khan
p687
aVmove to
p688
aVkolkata
p689
aa(lp690
Vimdad khan
p691
aVmove from
p692
aVetawah
p693
aa(lp694
Vwahid khan
p695
aVserve
p696
aVpatiala_darbar
p697
aa(lp698
Vwahid khan
p699
aVperformer at
p700
aVall_india_radio
p701
aa(lp702
Vwahid khan
p703
aS'is a'
p704
aVperformer
p705
aa(lp706
Vwahid khan
p707
aS'is a'
p708
aVregular performer
p709
aa(lp710
Vbharatiya sangeet vadya
p711
aS'is a'
p712
aVbook
p713
aa(lp714
Vsitar
p715
aS'a type of'
p716
aVplayer
p717
aa(lp718
Vkumar bose
p719
aVcomposer of
p720
aVindian music
p721
aa(lp722
Vkumar bose
p723
aS'is a'
p724
aVindian composer
p725
aa(lp726
Vkumar bose
p727
aS'is a'
p728
aVtablum maestro
p729
aa(lp730
Vkumar bose
p731
aS'is a'
p732
aVindian maestro
p733
aa(lp734
Vkumar bose
p735
aS'is a'
p736
aVcomposer
p737
aa(lp738
Vkumar bose
p739
aS'is a'
p740
aVmaestro
p741
aa(lp742
Vequalize
p743
aValbum 's
p744
aVurban desi
p745
aa(lp746
Vequalize
p747
aS'is a'
p748
aValbum
p749
aa(lp750
Vsurbahar
p751
aS'a type of'
p752
aVplayer
p753
aa(lp754
Vshafaatullah khan
p755
aS'is a'
p756
aVtablum
p757
aa(lp758
Vtafo khan
p759
aVform in
p760
aVgharana
p761
aa(lp762
g761
aVgharana 's
p763
aVpunjab
p764
aa(lp765
Vnatya sangeet
p766
aS'is a'
p767
aVform
p768
aa(lp769
Vnatya sangeet
p770
aVform of
p771
aVindian music
p772
aa(lp773
Vnatya sangeet
p774
aVform of
p775
aVindian music
p776
aa(lp777
Vmogubai kurdikar
p778
aS'is a'
p779
aVmusic vocalist
p780
aa(lp781
Vmogubai kurdikar
p782
aS'is a'
p783
aVvocalist
p784
aa(lp785
Vmogubai kurdikar
p786
aS'is a'
p787
aVclassical vocalist
p788
aa(lp789
Vgharana
p790
aVgharana 's
p791
aVjaipur-atrauli
p792
aa(lp793
Vmogubai kurdikar
p794
aVvocalist of
p795
ag790
aa(lp796
Vmogubai kurdikar
p797
aVvocalist 's
p798
aVrenowned hindustani
p799
aa(lp800
Valladiya khan
p801
aVmove to
p802
aVbombay
p803
aa(lp804
Valladiya khan
p805
aVmove after
p806
aVmonth
p807
aa(lp808
Varup chattopadhyay
p809
aS'is a'
p810
aVtablum player
p811
aa(lp812
Varup chattopadhyay
p813
aS'is a'
p814
aVindian player
p815
aa(lp816
Varup chattopadhyay
p817
aS'is a'
p818
aVplayer
p819
aa(lp820
Vsadarang
p821
aVname of
p822
aVmusical composer
p823
aa(lp824
Vsadarang
p825
aVname of
p826
aVartist niyamat khan
p827
aa(lp828
Vsadarang
p829
aS'is a'
p830
aVname
p831
aa(lp832
Vsadarang
p833
aS'is a'
p834
aVpen name
p835
aa(lp836
Vsadarang
p837
aVinfluential through
p838
aVtheir composition
p839
aa(lp840
Vsadarang
p841
aVinfluential in
p842
aVhindustani music
p843
aa(lp844
Vgharana
p845
aVcombine
p846
aVmusical tradition
p847
aa(lp848
Vgharana
p849
aVhave
p850
aVnotable pupil
p851
aa(lp852
Vsarangi
p853
aS'a type of'
p854
aVplayer
p855
aa(lp856
g853
aS'a type of'
p857
aVcomposer
p858
aa(lp859
Vsurinder sandhu
p860
aS'is a'
p861
aVsarangi player
p862
aa(lp863
Vsurinder sandhu
p864
aS'is a'
p865
aVplayer
p866
aa(lp867
Vsurinder sandhu
p868
aS'is a'
p869
aVcomposer
p870
aa(lp871
Vsurinder sandhu
p872
aS'is a'
p873
aVsarangi composer
p874
aa(lp875
Vgharana
p876
aVgharana 's
p877
aVsenia_rampur_moradabad
p878
aa(lp879
Vhirabai barodekar
p880
aS'is a'
p881
aVclassical singer
p882
aa(lp883
Vhirabai barodekar
p884
aS'is a'
p885
aVsinger
p886
aa(lp887
Vhirabai barodekar
p888
aS'is a'
p889
aVmusic singer
p890
aa(lp891
Vhirabai barodekar
p892
aVsinger of
p893
aVkirana gharana
p894
aa(lp895
Vhirabai barodekar
p896
aVsinger 's
p897
aVindian renowned hindustani
p898
aa(lp899
Vgharana
p900
aVgharana 's
p901
aVjaipur
p902
aa(lp903
Valka yagnik
p904
aVbe amongst
p905
aVplayback singer
p906
aa(lp907
Valka yagnik
p908
aVbear on
p909
aV20
p910
aa(lp911
Valka yagnik
p912
aVbear in
p913
aVkolkata
p914
aa(lp915
Vpakad
p916
aVpakad for
p917
aVyaman
p918
aa(lp919
g916
aVbe for
p920
aVexample
p921
aa(lp922
Vsitar
p923
aVleave on
p924
aVset
p925
aa(lp926
g923
aVleave as
p927
aS'#unknown'
p928
aa(lp929
g923
aVplay
p930
aVit
p931
aa(lp932
Vsitar
p933
aS'a type of'
p934
aValbum
p935
aa(lp936
Vsitar
p937
aS'a type of'
p938
aVplayer
p939
aa(lp940
Vkirit khan
p941
aVdie to
p942
aVkidney failure
p943
aa(lp944
Vkirit khan
p945
aVdie in
p946
aV2006
p947
aa(lp948
Vgharana
p949
aS'is a'
p950
aVparampara '
p951
aa(lp952
Vsitar
p953
aVsitar in
p954
aVindian_music_academy
p955
aa(lp956
Vraga
p957
aS'a type of'
p958
aVperformance
p959
aa(lp960
Vsarod
p961
aS'a type of'
p962
aVplayer
p963
aa(lp964
Vsarod
p965
aS'a type of'
p966
aVplaying
p967
aa(lp968
Vsarod
p969
aS'a type of'
p970
aVtechnique
p971
aa(lp972
Vsantoor
p973
aVlearn at
p974
aV13 age
p975
aa(lp976
Vgharana
p977
aVgharana 's
p978
aVajrada
p979
aa(lp980
Vtappa
p981
aS'a type of'
p982
aVtext
p983
aa(lp984
g981
aS'a type of'
p985
aVform
p986
aa(lp987
Vraga
p988
aS'a type of'
p989
aV's
p990
aa(lp991
Vjugalbandi
p992
aS'a type of'
p993
aVstyle
p994
aa(lp995
Vayaan ali khan
p996
aVrepresent
p997
aVseventh generation
p998
aa(lp999
Varvind parikh
p1000
aS'is a'
p1001
aVplayer
p1002
aa(lp1003
Varvind parikh
p1004
aS'is a'
p1005
aVclassical musician
p1006
aa(lp1007
Varvind parikh
p1008
aS'is a'
p1009
aVmusician
p1010
aa(lp1011
Varvind parikh
p1012
aS'is a'
p1013
aVsitar player
p1014
aa(lp1015
Vsitar
p1016
aS'a type of'
p1017
aVplayer
p1018
aa(lp1019
Varvind parikh
p1020
aVmusician 's
p1021
aVhindustani
p1022
aa(lp1023
Varvind parikh
p1024
aVhave
p1025
aVperform career
p1026
aa(lp1027
Varvind parikh
p1028
aVspan over
p1029
aVsix
p1030
aa(lp1031
Vsitar
p1032
aVsitar from
p1033
aVfather his himself
p1034
aa(lp1035
Vvichitra veena
p1036
aVveena from
p1037
aVkhan ustad_abdul_aziz beenkar
p1038
aa(lp1039
Vgharana
p1040
aVgharana of
p1041
aVsitar
p1042
aa(lp1043
Vsitar
p1044
aVsitar in
p1045
aVpakistan
p1046
aa(lp1047
Vkhyal
p1048
aS'a type of'
p1049
aVform
p1050
aa(lp1051
Vgharana
p1052
aVgharana of
p1053
aVtabla
p1054
aa(lp1055
g1052
aVgharana 's
p1056
aVfarukhabad
p1057
aa(lp1058
Vvilayat khan
p1059
aS'is a'
p1060
aVadmiration
p1061
aa(lp1062
Vvilayat khan
p1063
aS'is a'
p1064
aVhis admiration
p1065
aa(lp1066
Vvilambit
p1067
aS'a type of'
p1068
aVgayakus
p1069
aa(lp1070
Vbansuri guru
p1071
aS'is a'
p1072
aVindian film
p1073
aa(lp1074
Vbansuri guru
p1075
aS'is a'
p1076
aVdocumentary film
p1077
aa(lp1078
Vbansuri guru
p1079
aS'is a'
p1080
aV2013 film
p1081
aa(lp1082
Vbansuri guru
p1083
aS'is a'
p1084
aVfilm
p1085
aa(lp1086
Vbansuri guru
p1087
aVfilm about
p1088
aVlife
p1089
aa(lp1090
Vraga
p1091
aS'a type of'
p1092
aVform
p1093
aa(lp1094
Vgharana
p1095
aVgharana 's
p1096
aVjaipur-atrauli
p1097
aa(lp1098
Vsarod
p1099
aS'a type of'
p1100
aVplayer
p1101
aa(lp1102
Vsitar
p1103
aS'a type of'
p1104
aVstyle
p1105
aa(lp1106
Vsitar
p1107
aS'a type of'
p1108
aVplaying
p1109
aa(lp1110
Vkalyani bondre
p1111
aVbear into
p1112
aVmusical family
p1113
aa(lp1114
Vkalyani bondre
p1115
aVbear in
p1116
aVpune
p1117
aa(lp1118
Vkalyani bondre
p1119
aVbear in
p1120
aVindia
p1121
aa(lp1122
Vsurbahar
p1123
aS'a type of'
p1124
aVplayer
p1125
aa(lp1126
Vkhyal
p1127
aS'a type of'
p1128
aVsinging
p1129
aa(lp1130
Vsantoor
p1131
aS'is a'
p1132
aVinstrument
p1133
aa(lp1134
Vsantoor
p1135
aS'is a'
p1136
aVfolk instrument
p1137
aa(lp1138
Vsantoor
p1139
aVinstrument from
p1140
aVjammu
p1141
aa(lp1142
Vsantoor
p1143
aVinstrument from
p1144
aVkashmir
p1145
aa(lp1146
Vdildar hussain
p1147
aVlearn
p1148
aVtablum
p1149
aa(lp1150
Vsitar
p1151
aS'a type of'
p1152
aVstudent
p1153
aa(lp1154
Vveena sahasrabuddhe
p1155
aVcomposer of
p1156
aVhindustani music
p1157
aa(lp1158
Vveena sahasrabuddhe
p1159
aS'is a'
p1160
aVindian vocalist
p1161
aa(lp1162
Vveena sahasrabuddhe
p1163
aS'is a'
p1164
aVvocalist
p1165
aa(lp1166
Vveena sahasrabuddhe
p1167
aS'is a'
p1168
aVcomposer
p1169
aa(lp1170
Vveena sahasrabuddhe
p1171
aS'is a'
p1172
aVlead vocalist
p1173
aa(lp1174
Vgharana
p1175
aVgharana 's
p1176
aVgwalior
p1177
aa(lp1178
Vsantoor
p1179
aVsantoor 's
p1180
aVsharma
p1181
aa(lp1182
Vdhrupad
p1183
aS'a type of'
p1184
aVgenre
p1185
aa(lp1186
Vsitar
p1187
aS'a type of'
p1188
aVplayer
p1189
aa(lp1190
Vsuphala
p1191
aS'is a'
p1192
aVtablum artist
p1193
aa(lp1194
Vsuphala
p1195
aS'is a'
p1196
aVartist
p1197
aa(lp1198
Vsuphala
p1199
aVstudy
p1200
aVmusic
p1201
aa(lp1202
Vsuphala
p1203
aS'is a'
p1204
aVfirst artist
p1205
aa(lp1206
Vsuphala
p1207
aS'is a'
p1208
aVartist
p1209
aa(lp1210
Vsuphala
p1211
aVperform after
p1212
aVfall
p1213
aa(lp1214
Vsuphala
p1215
aVperform in
p1216
aVafghanistan
p1217
aa(lp1218
Vsarod
p1219
aS'a type of'
p1220
aVplayer
p1221
aa(lp1222
Vgharana
p1223
aVgharana of
p1224
aVhindustani music
p1225
aa(lp1226
g1223
aVgharana of
p1227
aVmusicologist
p1228
aa(lp1229
g1223
aVgharana 's
p1230
aVfarukhabad
p1231
aa(lp1232
Vbadeji khan
p1233
aVchild of
p1234
aVutd
p1235
aa(lp1236
Vbadeji khan
p1237
aS'is a'
p1238
aVson
p1239
aa(lp1240
Vbadeji khan
p1241
aS'is a'
p1242
aVfirst child
p1243
aa(lp1244
Vbadeji khan
p1245
aS'is a'
p1246
aVfirst son
p1247
aa(lp1248
Vbadeji khan
p1249
aS'is a'
p1250
aVchild
p1251
aa(lp1252
Valladiya khan
p1253
aVbe
p1254
aVprospective student
p1255
aa(lp1256
Vbadeji khan
p1257
aVcomplete
p1258
aVhis tutelage
p1259
aa(lp1260
Vbadeji khan
p1261
aVlearn
p1262
aVmusic briefly
p1263
aa(lp1264
Vbadeji khan
p1265
aVnot produce
p1266
aVnotable disciple
p1267
aa(lp1268
Vsarod
p1269
aS'a type of'
p1270
aVmusic
p1271
aa(lp1272
Vraga
p1273
aS'a type of'
p1274
aVscale
p1275
aa(lp1276
Vgharana
p1277
aVgharana 's
p1278
aVagra
p1279
aa(lp1280
Vsantoor
p1281
aS'a type of'
p1282
aVplayer
p1283
aa(lp1284
Vgharana
p1285
aVfound in
p1286
aVth century
p1287
aa(lp1288
Vdhrupad
p1289
aS'a type of'
p1290
aVform
p1291
aa(lp1292
Vsitar
p1293
aS'a type of'
p1294
aVplayer
p1295
aa(lp1296
Virshad khan
p1297
aS'is a'
p1298
aVsurbahar
p1299
aa(lp1300
Virshad khan
p1301
aS'is a'
p1302
aVsitar player
p1303
aa(lp1304
Virshad khan
p1305
aS'is a'
p1306
aVplayer
p1307
aa(lp1308
Virshad khan
p1309
aVpresident of
p1310
aVuniversal_academy_for_musicians
p1311
aa(lp1312
Virshad khan
p1313
aS'is a'
p1314
aVfounder president
p1315
aa(lp1316
Virshad khan
p1317
aS'is a'
p1318
aV/ president
p1319
aa(lp1320
Virshad khan
p1321
aS'is a'
p1322
aVpresident
p1323
aa(lp1324
Vdhrupad
p1325
aS'a type of'
p1326
aVstyle
p1327
aa(lp1328
Vsitar
p1329
aS'a type of'
p1330
aVplayer
p1331
aa(lp1332
Vgharana
p1333
aVgharana 's
p1334
aVgwalior
p1335
aa(lp1336
Vvidyadhar vyas
p1337
aVbear to
p1338
aVgayanacharya_pandit_narayanrao_vyas
p1339
aa(lp1340
Vvidyadhar vyas
p1341
aVbear in
p1342
aVmaharashtra
p1343
aa(lp1344
Vsitar
p1345
aS'a type of'
p1346
aVplayer
p1347
aa(lp1348
Vgharana
p1349
aVgharana 's
p1350
aVpatiala
p1351
aa(lp1352
g1349
aVfavor
p1353
aVpentatonic raga
p1354
aa(lp1355
Vsitar
p1356
aS'a type of'
p1357
aVmaker
p1358
aa(lp1359
Vraju ananthaswamy
p1360
aVplay
p1361
aVtablum
p1362
aa(lp1363
Vraju ananthaswamy
p1364
aVdisplay
p1365
aVmusical aptitude
p1366
aa(lp1367
Vraju ananthaswamy
p1368
aVbe
p1369
aVtalented singer
p1370
aa(lp1371
Vjugalbandi
p1372
aVjugalbandi with
p1373
aVlead instrumentalist
p1374
aa(lp1375
Vagra gharana
p1376
aVsettle from
p1377
aVjaipur
p1378
aa(lp1379
Vagra gharana
p1380
aVsettle in
p1381
aVmumbai
p1382
aa(lp1383
Vgayaki
p1384
aVdifferent from
p1385
aVother
p1386
aa(lp1387
Vgayaki
p1388
aVdifferent in
p1389
aVdilli_gharana
p1390
aa(lp1391
Vvilambit
p1392
aS'a type of'
p1393
aVkhayal
p1394
aa(lp1395
Vdrut
p1396
aS'a type of'
p1397
aVkhayal
p1398
aa(lp1399
Vraga
p1400
aVappear as
p1401
aVfirst raginus
p1402
aa(lp1403
g1400
aVappear in
p1404
aVragmala
p1405
aa(lp1406
Vraga
p1407
aVraga 's
p1408
aVsri
p1409
aa(lp1410
Vbairari
p1411
aS'is a'
p1412
aVregional tune
p1413
aa(lp1414
Vbairari
p1415
aS'is a'
p1416
aVtune
p1417
aa(lp1418
Vraga
p1419
aVperform during
p1420
aVevening
p1421
aa(lp1422
Vraga
p1423
aVraga from
p1424
aV719 page
p1425
aa(lp1426
Vbandish
p1427
aVprovide
p1428
aVliterature element
p1429
aa(lp1430
Vswara
p1431
aVword 's
p1432
aVsanskrit
p1433
aa(lp1434
Vswara
p1435
aS'is a'
p1436
aVword
p1437
aa(lp1438
Vswara
p1439
aVmean
p1440
aVnote
p1441
aa(lp1442
Vswara
p1443
aVswara in
p1444
aVmusic
p1445
aa(lp1446
Vswara
p1447
aVassociate with
p1448
aVone
p1449
aa(lp1450
Vsriram parasuram
p1451
aS'is a'
p1452
aVhindustani vocalist
p1453
aa(lp1454
Vsriram parasuram
p1455
aS'is a'
p1456
aVvocalist
p1457
aa(lp1458
Vsriram parasuram
p1459
aS'is a'
p1460
aVclassical vocalist
p1461
aa(lp1462
Vsitar
p1463
aS'a type of'
p1464
aVplayer
p1465
aa(lp1466
Vsarod
p1467
aS'a type of'
p1468
aVplayer
p1469
aa(lp1470
Vdhrupad
p1471
aS'a type of'
p1472
aVmusic
p1473
aa(lp1474
Vdhrupad
p1475
aS'a type of'
p1476
aVvocalist
p1477
aa(lp1478
Vjhala
p1479
aVterm in
p1480
aVclassical music
p1481
aa(lp1482
Vjhala
p1483
aS'is a'
p1484
aVterm
p1485
aa(lp1486
Vraga
p1487
aVuse
p1488
aVseries
p1489
aa(lp1490
Vraga
p1491
aVprescribe for
p1492
aVparticular time
p1493
aa(lp1494
g1491
aVraga 's
p1495
aVmany hindustani
p1496
aa(lp1497
Vraga
p1498
aVhave
p1499
aVits effect
p1500
aa(lp1501
Vraga
p1502
aS'a type of'
p1503
aVpractice
p1504
aa(lp1505
Vraga
p1506
aVnot follow
p1507
aVdescend order
p1508
aa(lp1509
g1506
ag1507
aVstrict ascending
p1510
aa(lp1511
Vraga
p1512
aS'a type of'
p1513
aVperformance
p1514
aa(lp1515
Vraga
p1516
aVraga 's
p1517
aVjanya
p1518
aa(lp1519
Vraga
p1520
aVraga 's
p1521
aVjanya
p1522
aa(lp1523
Vraga
p1524
aVclassify as
p1525
ag1516
aa(lp1526
g1524
aVclassify as
p1527
ag1520
aa(lp1528
g1524
aVclassify in
p1529
aVmusic
p1530
aa(lp1531
Vraga
p1532
aVraga 's
p1533
aVjanaka
p1534
aa(lp1535
Vraga
p1536
aVraga 's
p1537
aVjanaka
p1538
aa(lp1539
Vraga
p1540
aVuse
p1541
aVscheme
p1542
aa(lp1543
g1540
aVraga 's
p1544
aVjanaka
p1545
aa(lp1546
Vraga
p1547
aVraga 's
p1548
aVjanaka
p1549
aa(lp1550
g1540
aVorganise as
p1551
ag1547
aa(lp1552
Vraga
p1553
aVraga 's
p1554
aVmelakarta
p1555
aa(lp1556
Vraga
p1557
aVderive from
p1558
aVraga
p1559
aa(lp1560
g1559
aVraga 's
p1561
aVjanya
p1562
aa(lp1563
g1557
aVuse
p1564
aVcombination
p1565
aa(lp1566
g1557
aVraga 's
p1567
aVjanya
p1568
aa(lp1569
Vraga
p1570
aVhave
p1571
aVdefinite collection
p1572
aa(lp1573
g1570
ag1571
aVorder
p1574
aa(lp1575
Vgharana
p1576
aVgharana 's
p1577
aVsenia
p1578
aa(lp1579
Vdhrupad
p1580
aS'a type of'
p1581
aVlyric
p1582
aa(lp1583
Vthumri
p1584
aVexpression of
p1585
aVshringar rasa
p1586
aa(lp1587
Vthumri
p1588
aVexpression -
p1589
aVplayful utterance
p1590
aa(lp1591
Vthumri
p1592
aVexpression -
p1593
aVpassionate
p1594
aa(lp1595
Vthumri
p1596
aS'is a'
p1597
aVexpression
p1598
aa(lp1599
Vragini trivedi
p1600
aVperform on
p1601
aVvichitra veena
p1602
aa(lp1603
Vragini trivedi
p1604
aS'is a'
p1605
aVmusician
p1606
aa(lp1607
Vragini trivedi
p1608
aS'is a'
p1609
aVindian musician
p1610
aa(lp1611
Vragini trivedi
p1612
aS'is a'
p1613
aVclassical musician
p1614
aa(lp1615
Vomkarnath thakur
p1616
aVstay on
p1617
aVground floor
p1618
aa(lp1619
Vsitar
p1620
aS'a type of'
p1621
aVrecital
p1622
aa(lp1623
Vvichitra veena
p1624
aVpresent at
p1625
aVbhopal
p1626
aa(lp1627
Vvichitra veena
p1628
aVpresent at
p1629
aVbharat_bhawan
p1630
aa(lp1631
Vsitar
p1632
aS'a type of'
p1633
aVplayer
p1634
aa(lp1635
Vshankar jaikishan
p1636
aVuse
p1637
aVwestern classical
p1638
aa(lp1639
Vshankar jaikishan
p1640
aVmake
p1641
aVmajor contribution
p1642
aa(lp1643
Vraga
p1644
aVhave
p1645
aVits rule
p1646
aa(lp1647
Vdhrupad
p1648
aVdhrupad like
p1649
aVstructure
p1650
aa(lp1651
Vsadarang
p1652
aVbe
p1653
aVfather
p1654
aa(lp1655
Vvishnu digambar paluskar
p1656
aVhave at
p1657
aV12 age
p1658
aa(lp1659
Vvishnu digambar paluskar
p1660
aVemerge as
p1661
aVtalented organizer
p1662
aa(lp1663
Vvishnu digambar paluskar
p1664
aVemerge as
p1665
aVtalented organizer
p1666
aa(lp1667
Vraga
p1668
aVraga 's
p1669
aVhindustani
p1670
aa(lp1671
Vdhrupad
p1672
aS'is a'
p1673
aVold style
p1674
aa(lp1675
Vdhrupad
p1676
aS'is a'
p1677
aVstyle
p1678
aa(lp1679
Vdhrupad
p1680
aVstyle of
p1681
aVsinging
p1682
aa(lp1683
Valap
p1684
aVunfold into
p1685
aVjhalum section
p1686
aa(lp1687
Vdhrupad
p1688
aS'a type of'
p1689
aVstyle
p1690
aa(lp1691
Vkhyal
p1692
aVform of
p1693
aVvocal music
p1694
aa(lp1695
Vkhyal
p1696
aS'is a'
p1697
aVhindustani form
p1698
aa(lp1699
Vkhyal
p1700
aS'is a'
p1701
aVform
p1702
aa(lp1703
Vkhyal
p1704
aVadopt from
p1705
aVpersian music
p1706
aa(lp1707
Vkhyal
p1708
aVbase on
p1709
aVdhrupad
p1710
aa(lp1711
Vkhyal
p1712
aVto
p1713
aVeight-line lyric
p1714
aa(lp1715
Vkhyal
p1716
aVcontain
p1717
aVgreater embellishment
p1718
aa(lp1719
Vkhyal
p1720
ag1717
aVornamentation
p1721
aa(lp1722
Vraga
p1723
aVdepict
p1724
aVkhyal
p1725
aa(lp1726
Venayat khan
p1727
aVbear into
p1728
aVfamily
p1729
aa(lp1730
Venayat khan
p1731
aVbear in
p1732
aVuttar_pradesh
p1733
aa(lp1734
Venayat khan
p1735
aVdie with
p1736
aVfour
p1737
aa(lp1738
Vraga
p1739
aVraga in
p1740
aVlaya tempo
p1741
aa(lp1742
Vthumri
p1743
aS'a type of'
p1744
aVstyle
p1745
aa(lp1746
Vgharana
p1747
aVgharana 's
p1748
aVgwalior
p1749
aa(lp1750
Vgharana
p1751
aVgharana 's
p1752
aVbanaras
p1753
aa(lp1754
Vsipra bose
p1755
aVsinger from
p1756
aVkolkata
p1757
aa(lp1758
Vsipra bose
p1759
aVsinger from
p1760
aVindia
p1761
aa(lp1762
Vsipra bose
p1763
aVsinger in
p1764
aVclassical tradition
p1765
aa(lp1766
Vsipra bose
p1767
aS'is a'
p1768
aVnoted singer
p1769
aa(lp1770
Vsipra bose
p1771
aS'is a'
p1772
aVsinger
p1773
aa(lp1774
Vgharana
p1775
aVgharana 's
p1776
aVbenaras
p1777
aa(lp1778
Vgharana
p1779
aVevolve from
p1780
aVdagar-bani
p1781
aa(lp1782
Vgharana
p1783
aS'a type of'
p1784
aVgeneration
p1785
aa(lp1786
Valladiya khan
p1787
aVbecome
p1788
aVcourt musician
p1789
aa(lp1790
Valladiya khan
p1791
aVmigrate to
p1792
aVcourt
p1793
aa(lp1794
Vmeend
p1795
aVtrace to
p1796
aVinfluence
p1797
aa(lp1798
g1795
aVmeend of
p1799
aVhis gayakus
p1800
aa(lp1801
Vmeend
p1802
aVin
p1803
aVaalap
p1804
aa(lp1805
Vmeend
p1806
aS'is a'
p1807
aVgamak
p1808
aa(lp1809
Vmeend
p1810
aS'is a'
p1811
aVhallmark
p1812
aa(lp1813
Vmeend
p1814
aVhallmark of
p1815
aVgayakus
p1816
aa(lp1817
Vmeend
p1818
aVgamak in
p1819
aVtaan
p1820
aa(lp1821
Vgharana
p1822
aVgharana 's
p1823
aVjaipur-atrauli
p1824
aa(lp1825
Vkhyal
p1826
aS'a type of'
p1827
aVstyle
p1828
aa(lp1829
Vbhajan sopori
p1830
aS'is a'
p1831
aVindian instrumentalist
p1832
aa(lp1833
Vbhajan sopori
p1834
aS'is a'
p1835
aVinstrumentalist
p1836
aa(lp1837
Vgharana
p1838
aVgharana of
p1839
aVindian music
p1840
aa(lp1841
g1838
aVgharana 's
p1842
aVsufiana
p1843
aa(lp1844
Vsarod
p1845
aVgive
p1846
aVhis performance
p1847
aa(lp1848
Vchatur lal
p1849
aS'is a'
p1850
aVtablum player
p1851
aa(lp1852
Vchatur lal
p1853
aS'is a'
p1854
aVindian player
p1855
aa(lp1856
Vchatur lal
p1857
aS'is a'
p1858
aVplayer
p1859
aa(lp1860
Vchatur lal
p1861
aVbear in
p1862
aVudaipur
p1863
aa(lp1864
Vchatur lal
p1865
aVbear in
p1866
aVrajasthan
p1867
aa(lp1868
Vakhtar sadmani
p1869
aVsuffer
p1870
aVsevere heart-attack
p1871
aa(lp1872
Vakhtar sadmani
p1873
aVdie on
p1874
aV30_december_2003
p1875
aa(lp1876
Vraga
p1877
aS'a type of'
p1878
aVemergence
p1879
aa(lp1880
Vraga
p1881
aVs
p1882
aVthat
p1883
aa(lp1884
Vraga
p1885
aVhave
p1886
aVvarious name
p1887
aa(lp1888
Vraga
p1889
aVcall in
p1890
aVcarnatic music
p1891
aa(lp1892
Vraga
p1893
aS'is a'
p1894
aVraga
p1895
aa(lp1896
Vraga
p1897
aS'is a'
p1898
aVmorning raga
p1899
aa(lp1900
Vgharana
p1901
aVgharana 's
p1902
aVagra
p1903
aa(lp1904
Vgharana
p1905
aS'a type of'
p1906
aVstyle
p1907
aa(lp1908
Vusha parkhi
p1909
aVhave
p1910
aVdoctorate
p1911
aa(lp1912
Vnico
p1913
aVbear in
p1914
aVcologne
p1915
aa(lp1916
Vnico
p1917
aVwork as
p1918
aVseamstress
p1919
aa(lp1920
Vnico
p1921
aS'is a'
p1922
aVher mother
p1923
aa(lp1924
Vnico
p1925
aS'is a'
p1926
aVmother
p1927
aa(lp1928
Vnico
p1929
aVrelocate to
p1930
aVdowntown berlin
p1931
aa(lp1932
Vnico
p1933
aVrelocate in
p1934
aV1946
p1935
aa(lp1936
Vnico
p1937
aVget
p1938
aVsmall role
p1939
aa(lp1940
Vnico
p1941
aVrecord
p1942
aVhis song
p1943
aa(lp1944
Vnico
p1945
aVhave
p1946
aVlittle say
p1947
aa(lp1948
Vnico
p1949
aVspend
p1950
aVtime
p1951
aa(lp1952
Vnico
p1953
aVwrite
p1954
aVown song
p1955
aa(lp1956
Vnico
p1957
aVwrite
p1958
aVmusic
p1959
aa(lp1960
Vnico
p1961
ag1958
aVlyric
p1962
aa(lp1963
Vnico
p1964
aVrelease
p1965
aVtwo
p1966
aa(lp1967
Vnico
p1968
aVplay
p1969
aVharmonium
p1970
aa(lp1971
Vnico
p1972
aVwrite
p1973
aVmusic
p1974
aa(lp1975
Vnico
p1976
aVmake
p1977
aVfilm
p1978
aa(lp1979
Vnico
p1980
aVsupply
p1981
aVmusic
p1982
aa(lp1983
Vnico
p1984
aVcollaborate with
p1985
aVdirector
p1986
aa(lp1987
Vnico
p1988
aVopen on
p1989
aV13_december_1974
p1990
aa(lp1991
Vnico
p1992
aVopen for
p1993
aVtangerine dream
p1994
aa(lp1995
Vnico
p1996
aVinvolve with
p1997
aVmusician german lutz_ulbrich
p1998
aa(lp1999
Vnico
p2000
aVinvolve around
p2001
aVtime
p2002
aa(lp2003
Vnico
p2004
aVperform at
p2005
aVcanet_roc festival
p2006
aa(lp2007
Vnico
p2008
aVperform in
p2009
aVfebruary_1978
p2010
aa(lp2011
Vnico
p2012
aVintroduce in
p2013
aVfrance
p2014
aa(lp2015
Vnico
p2016
aVphotographer
p2017
aVantoine_giacomoni
p2018
aa(lp2019
Vnico
p2020
aVrecord
p2021
aVdrama_of_exile
p2022
aa(lp2023
Vnico
p2024
ag2021
aVnext album
p2025
aa(lp2026
Vnico
p2027
aVrelease
p2028
aVquilichini-produced / saeta single philippe vegas
p2029
aa(lp2030
Vnico
p2031
aVperform at
p2032
aVdeeside_leisure_centre
p2033
aa(lp2034
Vnico
p2035
aVperform for
p2036
aVfuturama_festival
p2037
aa(lp2038
Vnico
p2039
aVperform in
p2040
aVseptember_1982
p2041
aa(lp2042
Vnico
p2043
aVperform
p2044
aVsong
p2045
aa(lp2046
Vnico
p2047
aVhave
p2048
aVdifficulty
p2049
aa(lp2050
Vnico
p2051
aS'is a'
p2052
aVaddict
p2053
aa(lp2054
Vnico
p2055
aS'is a'
p2056
aVheroin addict
p2057
aa(lp2058
Vnico
p2059
aVdeaf in
p2060
aVone
p2061
aa(lp2062
Vnico
p2063
aVbury in
p2064
aVmother plot
p2065
aa(lp2066
Vnico
p2067
aVcowritten with
p2068
aVdave_stewart
p2069
aa(lp2070
Vnico
p2071
aVquote
p2072
aVinfluence
p2073
aa(lp2074
Vgharana
p2075
aVgharana 's
p2076
aVpunjab
p2077
aa(lp2078
Vdildar hussain
p2079
aVlearn
p2080
aVtablum
p2081
aa(lp2082
Vrasika
p2083
aVterm for
p2084
aVaesthete
p2085
aa(lp2086
Vgharana
p2087
aVgharana of
p2088
aVindian music
p2089
aa(lp2090
Vraga
p2091
aVascribe to
p2092
aVnight
p2093
aa(lp2094
g2091
aVascribe to
p2095
aVcertain period
p2096
aa(lp2097
Vgharana
p2098
aVgharana 's
p2099
aVgwalior
p2100
aa(lp2101
g2098
aVgharana with
p2102
aVbalakrishnabuwa ichalkaranjikar
p2103
aa(lp2104
Vsarangi
p2105
aS'a type of'
p2106
aVplaying
p2107
aa(lp2108
Vzeelaf
p2109
aS'is a'
p2110
aVraga
p2111
aa(lp2112
Vzeelaf
p2113
aVraga in
p2114
aVhindustani music
p2115
aa(lp2116
Vraga
p2117
aS'a type of'
p2118
aVmelody
p2119
aa(lp2120
Vsaptak
p2121
aVmean
p2122
aVgamut
p2123
aa(lp2124
Vsaptak
p2125
ag2122
aVseries
p2126
aa(lp2127
Vraga
p2128
aVinvolve
p2129
aVnote
p2130
aa(lp2131
Vbudhaditya mukherjee
p2132
aS'is a'
p2133
aVsitar
p2134
aa(lp2135
Vbudhaditya mukherjee
p2136
aS'is a'
p2137
aVplayer
p2138
aa(lp2139
Vbudhaditya mukherjee
p2140
aS'is a'
p2141
aVclassical sitar
p2142
aa(lp2143
Vbudhaditya mukherjee
p2144
aS'is a'
p2145
aVsurbahar player
p2146
aa(lp2147
Vbudhaditya mukherjee
p2148
aVplayer 's
p2149
aVhindustani
p2150
aa(lp2151
Vsurbahar
p2152
aS'a type of'
p2153
aVplayer
p2154
aa(lp2155
Vbudhaditya mukherjee
p2156
aVsitar of
p2157
aVimdadkhani gharana
p2158
aa(lp2159
Vbudhaditya mukherjee
p2160
aVhold
p2161
aVdoctorate
p2162
aa(lp2163
Vjugalbandi
p2164
aS'a type of'
p2165
aVperform
p2166
aa(lp2167
Vsangeetha katti
p2168
aS'is a'
p2169
aVclassical vocalist
p2170
aa(lp2171
Vsangeetha katti
p2172
aS'is a'
p2173
aVvocalist
p2174
aa(lp2175
Vsangeetha katti
p2176
aVknow as
p2177
aVsangeetha_katti
p2178
aa(lp2179
Vsangeetha katti
p2180
aVvocalist 's
p2181
aVhindustani
p2182
aa(lp2183
Vsangeetha katti
p2184
aVvocalist in
p2185
aVindia
p2186
aa(lp2187
Vsitar
p2188
aS'a type of'
p2189
aVmaker
p2190
aa(lp2191
Vraga
p2192
aVcorrespond to
p2193
aVmayamalavagowla
p2194
aa(lp2195
g2192
aVcorrespond in
p2196
aVmusic
p2197
aa(lp2198
Vektara
p2199
aS'is a'
p2200
aVinstrument
p2201
aa(lp2202
Vektara
p2203
aS'is a'
p2204
aVone-string instrument
p2205
aa(lp2206
Vektara
p2207
aVuse in
p2208
aVtraditional music
p2209
aa(lp2210
Vektara
p2211
aVuse in
p2212
aVpakistan
p2213
aa(lp2214
Vektara
p2215
aVaccompany
p2216
aVsinger
p2217
aa(lp2218
g2215
ag2216
aVdhol
p2219
aa(lp2220
Velectric sitar
p2221
aVdrone
p2222
aVstring
p2223
aa(lp2224
Vajrara gharana
p2225
aVgharana 's
p2226
aVajrada
p2227
aa(lp2228
Vajrara gharana
p2229
aS'is a'
p2230
aVgharana
p2231
aa(lp2232
Vgharana
p2233
aVoffshoot of
p2234
aVdelhi_gharana
p2235
aa(lp2236
Vgharana
p2237
aS'is a'
p2238
aVoffshoot
p2239
aa(lp2240
Vgharana
p2241
aS'a type of'
p2242
aVcomposition
p2243
aa(lp2244
Vjugalbandi
p2245
aS'a type of'
p2246
aVperform
p2247
aa(lp2248
Vvichitra veena
p2249
aS'is a'
p2250
aVform
p2251
aa(lp2252
Vvichitra veena
p2253
aS'is a'
p2254
aVmodern form
p2255
aa(lp2256
Vvichitra veena
p2257
aVform of
p2258
aVancient ektantri_veena
p2259
aa(lp2260
Vgharana
p2261
aS'a type of'
p2262
aV'
p2263
aa(lp2264
Vvilayat khan
p2265
aVplay
p2266
aVunique gat
p2267
aa(lp2268
Vfarukhabad gharana
p2269
aS'is a'
p2270
aVgharana
p2271
aa(lp2272
Vfarukhabad gharana
p2273
aS'is a'
p2274
aVoldest gharana
p2275
aa(lp2276
Vfarukhabad gharana
p2277
aVgharana of
p2278
aVtabla
p2279
aa(lp2280
Vgharana
p2281
aVgharana 's
p2282
aVfarukhabad
p2283
aa(lp2284
Vshahid parvez
p2285
aVsupport
p2286
aVsabha
p2287
aa(lp2288
Vshubhendra shankar
p2289
aVhave
p2290
aVrigorous training
p2291
aa(lp2292
Vraga
p2293
aVhave
p2294
aVswara
p2295
aa(lp2296
g2295
aVswara in
p2297
aVtheir scale
p2298
aa(lp2299
g2293
aVraga 's
p2300
aVsampurna
p2301
aa(lp2302
Vswara
p2303
aVswara in
p2304
aVavarohana
p2305
aa(lp2306
g2303
aVswara in
p2307
aVarohana
p2308
aa(lp2309
g2303
aVfollow
p2310
aVdescend scale
p2311
aa(lp2312
g2303
ag2310
aVascending
p2313
aa(lp2314
Vswara
p2315
aS'a type of'
p2316
aVphrase
p2317
aa(lp2318
Vraga
p2319
aVraga 's
p2320
aVmelakarta
p2321
aa(lp2322
Vpannalal ghosh
p2323
aVelevate
p2324
aVbansuri
p2325
aa(lp2326
Vjhoomra
p2327
aVtalum of
p2328
aVmusic
p2329
aa(lp2330
Vjhoomra
p2331
aS'is a'
p2332
aVtalum
p2333
aa(lp2334
Vtilwada
p2335
aVuse in
p2336
aVkheyal
p2337
aa(lp2338
Vjayateerth mevundi
p2339
aVbear in
p2340
aV1972
p2341
aa(lp2342
Vjayateerth mevundi
p2343
aVvocalist of
p2344
aVkirana_gharana
p2345
aa(lp2346
Vjayateerth mevundi
p2347
aS'is a'
p2348
aVhindustani vocalist
p2349
aa(lp2350
Vjayateerth mevundi
p2351
aS'is a'
p2352
aVvocalist
p2353
aa(lp2354
Vjayateerth mevundi
p2355
aS'is a'
p2356
aVclassical vocalist
p2357
aa(lp2358
Vjayateerth mevundi
p2359
aVhail from
p2360
aVhubli
p2361
aa(lp2362
Vjayateerth mevundi
p2363
aVhail in
p2364
aVnorth_karnataka
p2365
aa(lp2366
Vgharana
p2367
aVgharana 's
p2368
aVbenares
p2369
aa(lp2370
Vsanjoy bandopadhyay
p2371
aS'is a'
p2372
aVplayer
p2373
aa(lp2374
Vsanjoy bandopadhyay
p2375
aS'is a'
p2376
aVsitar player
p2377
aa(lp2378
Vsanjoy bandopadhyay
p2379
aS'is a'
p2380
aVclassical player
p2381
aa(lp2382
Vsitar
p2383
aS'a type of'
p2384
aVplayer
p2385
aa(lp2386
Vsanjoy bandopadhyay
p2387
aVplayer 's
p2388
aVbengali hindustani
p2389
aa(lp2390
Vesraj
p2391
aVuse as
p2392
aVaccompanying instrument
p2393
aa(lp2394
Vesraj
p2395
aVdecline for
p2396
aVmany decade
p2397
aa(lp2398
g2395
aVdecline in
p2399
aVpopularity
p2400
aa(lp2401
Vswara
p2402
aVuse in
p2403
aVmusic notation
p2404
aa(lp2405
Vshubha mudgal
p2406
aVdivorce from
p2407
aVmarried aneesh pradhan
p2408
aa(lp2409
Vshubha mudgal
p2410
aVdivorce from
p2411
aVhe
p2412
aa(lp2413
Vbhopali
p2414
aS'is a'
p2415
aVclassical raga
p2416
aa(lp2417
Vbhopali
p2418
aS'is a'
p2419
aVraga
p2420
aa(lp2421
Vbhopali
p2422
aVknow as
p2423
aVbhoop
p2424
aa(lp2425
Vbhopali
p2426
aVraga 's
p2427
aVhindustani
p2428
aa(lp2429
Vswara
p2430
aVindicate
p2431
aVmandra saptak
p2432
aa(lp2433
g2430
aVindicate
p2434
aVtaar saptak
p2435
aa(lp2436
Vsitar
p2437
aS'a type of'
p2438
aVplayer
p2439
aa(lp2440
Vsitar
p2441
aS'a type of'
p2442
aVof
p2443
aa(lp2444
Vpremadasa hegoda
p2445
aVsitarist 's
p2446
aVsri lankan
p2447
aa(lp2448
Vpremadasa hegoda
p2449
aS'is a'
p2450
aVsitarist
p2451
aa(lp2452
Vkhyal
p2453
aS'a type of'
p2454
aVbandish
p2455
aa(lp2456
Vthumri
p2457
aS'a type of'
p2458
aVbandish
p2459
aa(lp2460
Vtabla
p2461
aS'a type of'
p2462
aVplayer
p2463
aa(lp2464
Vgharana
p2465
aVgharana 's
p2466
aVjaipur-atrauli
p2467
aa(lp2468
Vraga
p2469
aVraga on
p2470
aVfour
p2471
aa(lp2472
g2469
aVraga 's
p2473
aV74
p2474
aa(lp2475
Vdilshad khan
p2476
aS'is a'
p2477
aVclassical singer
p2478
aa(lp2479
Vdilshad khan
p2480
aS'is a'
p2481
aVsinger
p2482
aa(lp2483
Vdilshad khan
p2484
aS'is a'
p2485
aVbengali singer
p2486
aa(lp2487
Vdilshad khan
p2488
aS'is a'
p2489
aVhindustani singer
p2490
aa(lp2491
Vdilshad khan
p2492
aVsinger of
p2493
aVpatiala_gharana
p2494
aa(lp2495
Vdilshad khan
p2496
aVmarry to
p2497
aVclassical vocalist
p2498
aa(lp2499
Vdilshad khan
p2500
aVmarry to
p2501
aVparveen_sultana
p2502
aa(lp2503
Vswarmandal
p2504
aVsimilar to
p2505
aVautoharp
p2506
aa(lp2507
g2504
aVsimilar to
p2508
aVzither
p2509
aa(lp2510
Vgharana
p2511
aVgharana 's
p2512
aVpatiala
p2513
aa(lp2514
Vsitar
p2515
aVsitar in
p2516
aVjazz
p2517
aa(lp2518
Vsitar
p2519
aS'a type of'
p2520
aVtechnique
p2521
aa(lp2522
Vsitar
p2523
aVsitar within
p2524
aVjazz context
p2525
aa(lp2526
Vkhyal
p2527
aS'is a'
p2528
aVforte
p2529
aa(lp2530
Vkhyal
p2531
aS'is a'
p2532
aVhis forte
p2533
aa(lp2534
Vsanhita nandi
p2535
aS'is a'
p2536
aVvocalist
p2537
aa(lp2538
Vsanhita nandi
p2539
aS'is a'
p2540
aVclassical vocalist
p2541
aa(lp2542
Vsanhita nandi
p2543
aVvocalist of
p2544
aVkirana_gharana
p2545
aa(lp2546
Vsanhita nandi
p2547
aVvocalist 's
p2548
aVprominent hindustani
p2549
aa(lp2550
Vraga
p2551
aS'a type of'
p2552
aVdevelopment
p2553
aa(lp2554
Vsanhita nandi
p2555
aVtravel
p2556
aVindia
p2557
aa(lp2558
Vhaveli sangeet
p2559
aS'is a'
p2560
aVsemi form
p2561
aa(lp2562
Vhaveli sangeet
p2563
aS'is a'
p2564
aVform
p2565
aa(lp2566
Vhaveli sangeet
p2567
aS'is a'
p2568
aVclassical form
p2569
aa(lp2570
Vhaveli sangeet
p2571
aVform of
p2572
aVmusic sung
p2573
aa(lp2574
Vgharana
p2575
aVgharana 's
p2576
aVkirana
p2577
aa(lp2578
Vgangubai hangal
p2579
aVbear to
p2580
aVchikkurao nadiger
p2581
aa(lp2582
Vgangubai hangal
p2583
aVbear in
p2584
aVdharwad
p2585
aa(lp2586
Vgangubai hangal
p2587
aVreceive
p2588
aVnumber
p2589
aa(lp2590
Vpantula rama
p2591
aVbear into
p2592
aVfamily
p2593
aa(lp2594
Vpantula rama
p2595
aVbear with
p2596
aVlineage
p2597
aa(lp2598
Vharihar rao
p2599
aS'is a'
p2600
aVmusician
p2601
aa(lp2602
Vharihar rao
p2603
aVmusician 's
p2604
aVnoted hindustani
p2605
aa(lp2606
Vchatur lal
p2607
aS'is a'
p2608
aVmusician
p2609
aa(lp2610
Vchatur lal
p2611
aS'is a'
p2612
aVsupport musician
p2613
aa(lp2614
Vsurbahar
p2615
aS'a type of'
p2616
aVplayer
p2617
aa(lp2618
Vsitar
p2619
aS'a type of'
p2620
aVplaying
p2621
aa(lp2622
Vgirish panchwadkar
p2623
aVdirector from
p2624
aVindia
p2625
aa(lp2626
Vgirish panchwadkar
p2627
aS'is a'
p2628
aVdirector
p2629
aa(lp2630
Vgirish panchwadkar
p2631
aS'is a'
p2632
aVsinger
p2633
aa(lp2634
Vgirish panchwadkar
p2635
aS'is a'
p2636
aVmusic director
p2637
aa(lp2638
Vgirish panchwadkar
p2639
aVsinger 's
p2640
aVaccomplished marathi
p2641
aa(lp2642
Vsawani
p2643
aS'is a'
p2644
aVgenre
p2645
aa(lp2646
Vsawani
p2647
aVgenre of
p2648
aVsemi-classical singing
p2649
aa(lp2650
Vpandit sudhir
p2651
aS'is a'
p2652
aVplayer
p2653
aa(lp2654
Vpandit sudhir
p2655
aS'is a'
p2656
aVsitar player
p2657
aa(lp2658
Vpandit sudhir
p2659
aS'is a'
p2660
aVindian player
p2661
aa(lp2662
Vpandit sudhir
p2663
aVplayer of
p2664
aVhindustani music
p2665
aa(lp2666
Vsitar
p2667
aS'a type of'
p2668
aVplayer
p2669
aa(lp2670
Vraga
p2671
aS'a type of'
p2672
aVimprovisation
p2673
aa(lp2674
Vhariprasad chaurasia
p2675
aVbear in
p2676
aVallahabad
p2677
aa(lp2678
Vhariprasad chaurasia
p2679
aVbear in
p2680
aVindian state
p2681
aa(lp2682
Vhariprasad chaurasia
p2683
aVlearn
p2684
aVvocal music
p2685
aa(lp2686
Vswara
p2687
aVswara 's
p2688
aVvadi
p2689
aa(lp2690
g2687
aVswara in
p2691
aVraga
p2692
aa(lp2693
g2687
aVbe like
p2694
aVking
p2695
aa(lp2696
Vswara
p2697
aVswara 's
p2698
aVvadi
p2699
aa(lp2700
g2697
aVidentify
p2701
aVtime
p2702
aa(lp2703
Vmc yogi
p2704
aVname of
p2705
aVnicholas_giacomini
p2706
aa(lp2707
Vmc yogi
p2708
aS'is a'
p2709
aVstage name
p2710
aa(lp2711
Vmc yogi
p2712
aS'is a'
p2713
aVname
p2714
aa(lp2715
Vraga
p2716
aVshringara
p2717
aVrasa
p2718
aa(lp2719
Vchaiti
p2720
aS'is a'
p2721
aVsemi-classical song
p2722
aa(lp2723
Vchaiti
p2724
aS'is a'
p2725
aVsong
p2726
aa(lp2727
Vchaiti
p2728
aVsing in
p2729
aVcalendar month
p2730
aa(lp2731
Vajay pohankar
p2732
aVbear in
p2733
aVmadhya_pradesh
p2734
aa(lp2735
Vajay pohankar
p2736
aVbear in
p2737
aVjabalpur
p2738
aa(lp2739
Vajay pohankar
p2740
aVmarry to
p2741
aVanjali_pohankar
p2742
aa(lp2743
Vabhogi
p2744
aVraga in
p2745
aVmusic
p2746
aa(lp2747
Vabhogi
p2748
aVadapt to
p2749
aVmusic
p2750
aa(lp2751
Vabhogi
p2752
aS'is a'
p2753
aVraga
p2754
aa(lp2755
Vabhogi
p2756
aVborrow from
p2757
aVmusic
p2758
aa(lp2759
Vabhogi
p2760
aS'is a'
p2761
aVsymmetric scale
p2762
aa(lp2763
Vabhogi
p2764
aS'is a'
p2765
aVpentatonic scale
p2766
aa(lp2767
Vabhogi
p2768
aS'is a'
p2769
aVscale
p2770
aa(lp2771
Vabhogi
p2772
aVnot contain
p2773
aVpanchamam
p2774
aa(lp2775
Vabhogi
p2776
ag2773
aVnishadam
p2777
aa(lp2778
Vabhogi
p2779
aS'is a'
p2780
aVscale
p2781
aa(lp2782
Vabhogi
p2783
aVuse for
p2784
aVcomposition
p2785
aa(lp2786
Vabhogi
p2787
aVuse in
p2788
aVmedium
p2789
aa(lp2790
Vraga
p2791
aVraga of
p2792
aVabhogus
p2793
aa(lp2794
Vabhogi
p2795
aS'a type of'
p2796
aVraga
p2797
aa(lp2798
Vtintal
p2799
aVof
p2800
aVfamous tala
p2801
aa(lp2802
Vtintal
p2803
aVsixteen
p2804
aVbeat
p2805
aa(lp2806
Valankara
p2807
aVgive in
p2808
aVaddition
p2809
aa(lp2810
Vgharana
p2811
aVgharana of
p2812
aVtablum
p2813
aa(lp2814
g2811
aVgharana 's
p2815
aVajrada
p2816
aa(lp2817
Vraga
p2818
aS'a type of'
p2819
aVlegend
p2820
aa(lp2821
Vgharana
p2822
aVhave
p2823
aVbol technique
p2824
aa(lp2825
g2822
ag2823
aVtablum positioning
p2826
aa(lp2827
Vulhas kashalkar
p2828
aVwork as
p2829
aVprogramme executive
p2830
aa(lp2831
Vdadra
p2832
aVrefer to
p2833
aVtwo
p2834
aa(lp2835
Vdadra
p2836
aS'a type of'
p2837
aVtalum
p2838
aa(lp2839
g2836
aS'a type of'
p2840
aVcomposition
p2841
aa(lp2842
Vsarpada
p2843
aS'is a'
p2844
aVraga
p2845
aa(lp2846
Vsarpada
p2847
aVraga in
p2848
aVhindustani music
p2849
aa(lp2850
Vraga
p2851
aS'a type of'
p2852
aVsung
p2853
aa(lp2854
Vbenares gharana
p2855
aVof
p2856
aVcommon style
p2857
aa(lp2858
Vgharana
p2859
aVcategorize into
p2860
aVbaj
p2861
aa(lp2862
Vrimpa siva
p2863
aS'is a'
p2864
aVmusician
p2865
aa(lp2866
Vrimpa siva
p2867
aS'is a'
p2868
aVindian musician
p2869
aa(lp2870
Vgharana
p2871
aS'a type of'
p2872
aVstyle
p2873
aa(lp2874
Vgharana
p2875
aVgharana 's
p2876
aVdelhi
p2877
aa(lp2878
Vsitar
p2879
aS'a type of'
p2880
aVplaying
p2881
aa(lp2882
Vchatur lal
p2883
aVaccompany
p2884
aVshankar
p2885
aa(lp2886
Vraga
p2887
aS'a type of'
p2888
aVtrend
p2889
aa(lp2890
Vsitar
p2891
aS'a type of'
p2892
aVplayer
p2893
aa(lp2894
Vmehfil
p2895
aS'a type of'
p2896
aVperformance
p2897
aa(lp2898
Vnityanand haldipur
p2899
aS'is a'
p2900
aVperformer
p2901
aa(lp2902
Vnityanand haldipur
p2903
aS'is a'
p2904
aVteacher
p2905
aa(lp2906
Vnityanand haldipur
p2907
aVteacher of
p2908
aVbamboo flute
p2909
aa(lp2910
Vgharana
p2911
aVgharana 's
p2912
aVmaihar
p2913
aa(lp2914
Vgauhar jaan
p2915
aS'is a'
p2916
aVsinger
p2917
aa(lp2918
Vgauhar jaan
p2919
aS'is a'
p2920
aVdancer
p2921
aa(lp2922
Vgauhar jaan
p2923
aS'is a'
p2924
aVindian singer
p2925
aa(lp2926
Vgauhar jaan
p2927
aVbear on
p2928
aV26
p2929
aa(lp2930
Vgauhar jaan
p2931
aVbear as
p2932
aVangelina yeoward
p2933
aa(lp2934
Vgauhar jaan
p2935
aVbear in
p2936
aVazamgarh
p2937
aa(lp2938
Vgauhar jaan
p2939
aVdo
p2940
aVrecording session
p2941
aa(lp2942
Vsitar
p2943
aS'a type of'
p2944
aVbeat
p2945
aa(lp2946
Vsitar
p2947
aS'is a'
p2948
aVworldwide
p2949
aa(lp2950
Vsitar
p2951
aVworldwide 's
p2952
aVorchestra
p2953
aa(lp2954
Vraga
p2955
aS'a type of'
p2956
aVstructure
p2957
aa(lp2958
Vprem joshua
p2959
aS'is a'
p2960
aVmusician
p2961
aa(lp2962
Vprem joshua
p2963
aS'is a'
p2964
aVgerman musician
p2965
aa(lp2966
Vthumri
p2967
aVgenre of
p2968
aVsemus
p2969
aa(lp2970
Vthumri
p2971
aS'is a'
p2972
aVgenre
p2973
aa(lp2974
Vthumri
p2975
aS'is a'
p2976
aVcommon genre
p2977
aa(lp2978
Vthumri
p2979
aVarise during
p2980
aVth century
p2981
aa(lp2982
Vthumri
p2983
aVarise in
p2984
aVpopularity
p2985
aa(lp2986
Vthumri
p2987
aVarise in
p2988
aVcourt
p2989
aa(lp2990
Vbandish
p2991
aS'a type of'
p2992
aVthumrus
p2993
aa(lp2994
Vkhyal
p2995
aS'a type of'
p2996
aVconcert
p2997
aa(lp2998
Vviram jasani
p2999
aS'is a'
p3000
aVsitar
p3001
aa(lp3002
Vviram jasani
p3003
aS'is a'
p3004
aVkenyan-born sitar
p3005
aa(lp3006
Vviram jasani
p3007
aS'is a'
p3008
aVindian sitar
p3009
aa(lp3010
Vindore gharana
p3011
aVof
p3012
aVvocal gharana
p3013
aa(lp3014
Vgharana
p3015
aS'a type of'
p3016
aVtradition
p3017
aa(lp3018
Vmerukhand
p3019
aS'a type of'
p3020
aVstructure
p3021
aa(lp3022
Vgharana
p3023
aVgharana 's
p3024
aVbhendibazaar
p3025
aa(lp3026
Vgharana
p3027
aVgharana 's
p3028
aVindore
p3029
aa(lp3030
Vchaturprahar
p3031
aVperform
p3032
aVart
p3033
aa(lp3034
Vchaturprahar
p3035
aVhold at
p3036
aVnational_centre
p3037
aa(lp3038
Vchaturprahar
p3039
aS'is a'
p3040
aVfestival
p3041
aa(lp3042
Vchaturprahar
p3043
aS'is a'
p3044
aVannual festival
p3045
aa(lp3046
Vchaturprahar
p3047
aS'is a'
p3048
aVclassical festival
p3049
aa(lp3050
Vchaturprahar
p3051
aS'is a'
p3052
aVmusic festival
p3053
aa(lp3054
Vchaturprahar
p3055
aS'is a'
p3056
aVindian festival
p3057
aa(lp3058
Vraga
p3059
aVsing at
p3060
aVparticular time
p3061
aa(lp3062
Vkaushiki chakrabarty
p3063
aVperform in
p3064
aVmorning session
p3065
aa(lp3066
Vraga
p3067
aVraga like
p3068
aVbadhans sarang
p3069
aa(lp3070
Vsitar
p3071
aVhave
p3072
aVstring
p3073
aa(lp3074
Vsitar
p3075
aVhave
p3076
aVsecondary resonator
p3077
aa(lp3078
g3075
ag3076
aVtumbaa
p3079
aa(lp3080
Vgayaki
p3081
aS'a type of'
p3082
aVstyle
p3083
aa(lp3084
Vsitar
p3085
aS'a type of'
p3086
aVstyle
p3087
aa(lp3088
Vsitar
p3089
aVfetch
p3090
aVcollectible price
p3091
aa(lp3092
g3089
aVsitar by
p3093
aVcertain manufacturer
p3094
aa(lp3095
Vsitar
p3096
aVsitar 's
p3097
aVolder hiren_roy
p3098
aa(lp3099
Vsitar
p3100
aS'a type of'
p3101
aVinfluence
p3102
aa(lp3103
Vgharana
p3104
aVgain
p3105
aVvisibility
p3106
aa(lp3107
Vmewati gharana
p3108
aVdifferent from
p3109
aVstyle
p3110
aa(lp3111
Vdhrupad
p3112
aS'a type of'
p3113
aVrendition
p3114
aa(lp3115
Vgharana
p3116
aVgharana 's
p3117
aVbishnupur
p3118
aa(lp3119
Vdhrupad
p3120
aS'a type of'
p3121
aVclassical
p3122
aa(lp3123
Vgharana
p3124
aVgharana 's
p3125
aVdharbhanga
p3126
aa(lp3127
Vgharana
p3128
aVgharana of
p3129
aVtabla
p3130
aa(lp3131
g3128
aVgharana 's
p3132
aVdelhi
p3133
aa(lp3134
Vgharana
p3135
aVgharana of
p3136
aVtablum playing
p3137
aa(lp3138
g3135
aVgharana 's
p3139
aVpunjab
p3140
aa(lp3141
Vriyaz
p3142
aVof
p3143
aVher song
p3144
aa(lp3145
Vgharana
p3146
aS'a type of'
p3147
aVtradition
p3148
aa(lp3149
Vvichitra veena
p3150
aVfind
p3151
aVwider fame
p3152
aa(lp3153
Vvichitra veena
p3154
aVhold
p3155
aVspecial meaning
p3156
aa(lp3157
Vgharana
p3158
aVgharana of
p3159
aVhindustani music
p3160
aa(lp3161
g3158
aVgharana 's
p3162
aVfarukhabad
p3163
aa(lp3164
Vgharana
p3165
aVgharana 's
p3166
aVpatiala
p3167
aa(lp3168
Vsitar
p3169
aS'a type of'
p3170
aVplayer
p3171
aa(lp3172
Vsheema mukherjee
p3173
aS'is a'
p3174
aVbritish player
p3175
aa(lp3176
Vsheema mukherjee
p3177
aS'is a'
p3178
aVplayer
p3179
aa(lp3180
Vsheema mukherjee
p3181
aS'is a'
p3182
aVsitar player
p3183
aa(lp3184
Vsheema mukherjee
p3185
aS'is a'
p3186
aVbritish composer
p3187
aa(lp3188
Vsheema mukherjee
p3189
aS'is a'
p3190
aVcomposer
p3191
aa(lp3192
Vsitar
p3193
aS'a type of'
p3194
aVprodigy
p3195
aa(lp3196
Vtabla
p3197
aVtabla as
p3198
aVchild
p3199
aa(lp3200
Vmalini rajurkar
p3201
aVsinger of
p3202
aVgwalior_gharana
p3203
aa(lp3204
Vmalini rajurkar
p3205
aVsinger 's
p3206
aVnoted hindustani
p3207
aa(lp3208
Vmalini rajurkar
p3209
aS'is a'
p3210
aVclassical singer
p3211
aa(lp3212
Vmalini rajurkar
p3213
aS'is a'
p3214
aVsinger
p3215
aa(lp3216
Valladiya khan
p3217
aVnot make
p3218
aVkesarbai_kerkar
p3219
aa(lp3220
Vsitar
p3221
aS'a type of'
p3222
aVplayer
p3223
aa(lp3224
Vraga
p3225
aVraga in
p3226
aVindian music
p3227
aa(lp3228
Vgharana
p3229
aVgharana 's
p3230
aVjaipur-atrauli
p3231
aa(lp3232
Vamar nath
p3233
aVbear in
p3234
aVpakistan
p3235
aa(lp3236
Vamar nath
p3237
aVbear in
p3238
aV1924
p3239
aa(lp3240
Vamar nath
p3241
aVbear in
p3242
aVjhang
p3243
aa(lp3244
Vamar nath
p3245
aVbear in
p3246
aVpunjab
p3247
aa(lp3248
Vrampur-sahaswan gharana
p3249
aVgharana of
p3250
aVhindustani music
p3251
aa(lp3252
Vsaptak
p3253
aVsaptak 's
p3254
aVlaraj
p3255
aa(lp3256
Vgharana
p3257
aVgharana 's
p3258
aVmodern maihar
p3259
aa(lp3260
Vgharana
p3261
aVgharana 's
p3262
aVsenia
p3263
aa(lp3264
Vgharana
p3265
aVgharana of
p3266
aVindian music
p3267
aa(lp3268
g3265
aVgharana 's
p3269
aVmaihar
p3270
aa(lp3271
Vdevaki pandit
p3272
aVbear to
p3273
aVusha_pandit
p3274
aa(lp3275
Vdevaki pandit
p3276
aVbear in
p3277
aVindia
p3278
aa(lp3279
Vdevaki pandit
p3280
aVbear in
p3281
aVmaharashtra
p3282
aa(lp3283
Vdevaki pandit
p3284
aVgive
p3285
aVshe
p3286
aa(lp3287
Vraga
p3288
aVraga with
p3289
aVhigh sa
p3290
aa(lp3291
Vdhrupad
p3292
aS'a type of'
p3293
aVsinger
p3294
aa(lp3295
Vbaiju bawra
p3296
aVmake on
p3297
aVhe
p3298
aa(lp3299
Vbaiju bawra
p3300
aVmake in
p3301
aV1952
p3302
aa(lp3303
Vbaiju bawra
p3304
aS'is a'
p3305
aVhindi film
p3306
aa(lp3307
Vbaiju bawra
p3308
aS'is a'
p3309
aVlanguage film
p3310
aa(lp3311
Vbaiju bawra
p3312
aS'is a'
p3313
aVfilm
p3314
aa(lp3315
Vgeet ramayan
p3316
aVconsider as
p3317
aVcrescendo
p3318
aa(lp3319
Vraga
p3320
aVraga of
p3321
aVhindustani music
p3322
aa(lp3323
g3320
aVcompose
p3324
aVsong
p3325
aa(lp3326
Vgeet ramayan
p3327
aVconceptualize in
p3328
aV1955
p3329
aa(lp3330
Vraga
p3331
aVtalum of
p3332
aVsong
p3333
aa(lp3334
g3331
aVsuit
p3335
aVtime
p3336
aa(lp3337
Vgeet ramayan
p3338
aVtranslate into
p3339
aVnine
p3340
aa(lp3341
Vgeet ramayan
p3342
aVtransliterate into
p3343
aVbraille
p3344
aa(lp3345
Vmurki
p3346
aS'is a'
p3347
aVshort taan
p3348
aa(lp3349
Vmurki
p3350
aS'is a'
p3351
aVtaan
p3352
aa(lp3353
Vmurki
p3354
aS'is a'
p3355
aVinverted mordent
p3356
aa(lp3357
Vmurki
p3358
aS'is a'
p3359
aVmordent
p3360
aa(lp3361
Vthumri
p3362
aS'a type of'
p3363
aVgyakus
p3364
aa(lp3365
Vgharana
p3366
aVgharana 's
p3367
aVpunjab
p3368
aa(lp3369
Vabhishruti bezbaruah
p3370
aS'is a'
p3371
aVsinger
p3372
aa(lp3373
Vabhishruti bezbaruah
p3374
aS'is a'
p3375
aVindian singer
p3376
aa(lp3377
Vabhishruti bezbaruah
p3378
aS'is a'
p3379
aVclassical singer
p3380
aa(lp3381
Vabhishruti bezbaruah
p3382
aVperform in
p3383
aVmusic genre
p3384
aa(lp3385
Vanjanibai malpekar
p3386
aS'is a'
p3387
aVnoted singer
p3388
aa(lp3389
Vanjanibai malpekar
p3390
aS'is a'
p3391
aVclassical singer
p3392
aa(lp3393
Vanjanibai malpekar
p3394
aS'is a'
p3395
aVsinger
p3396
aa(lp3397
Vanjanibai malpekar
p3398
aS'is a'
p3399
aVindian singer
p3400
aa(lp3401
Vgharana
p3402
aVgharana of
p3403
aVhindustani music
p3404
aa(lp3405
g3402
aVgharana 's
p3406
aVbhendibazaar
p3407
aa(lp3408
Vanjanibai malpekar
p3409
aVbelong to
p3410
ag3402
aa(lp3411
Vgharana
p3412
aVgharana of
p3413
aVjaipur
p3414
aa(lp3415
g3412
aVgharana 's
p3416
aVbeenkar
p3417
aa(lp3418
g3412
aVteach for
p3419
aVfifteen year
p3420
aa(lp3421
Vgharana
p3422
aVindicate
p3423
aVcomprehensive ideology
p3424
aa(lp3425
Vgharana
p3426
aS'a type of'
p3427
aVsystem
p3428
aa(lp3429
Vkhyal
p3430
aS'a type of'
p3431
aVgharana
p3432
aa(lp3433
Vgharana
p3434
aVgharana 's
p3435
aVpatiala
p3436
aa(lp3437
Vtappa
p3438
aVtappa from
p3439
aVregion
p3440
aa(lp3441
Vsitar
p3442
aVsitar to
p3443
aVtune
p3444
aa(lp3445
g3442
aVsitar 's
p3446
aVchala
p3447
aa(lp3448
Vsitar
p3449
aVsitar 's
p3450
aVchala
p3451
aa(lp3452
g3449
aVsitar by
p3453
aVpramana sruti
p3454
aa(lp3455
Vmadhup mudgal
p3456
aS'is a'
p3457
aVmusic vocalist
p3458
aa(lp3459
Vmadhup mudgal
p3460
aS'is a'
p3461
aVvocalist
p3462
aa(lp3463
Vmadhup mudgal
p3464
aS'is a'
p3465
aVclassical vocalist
p3466
aa(lp3467
Vmadhup mudgal
p3468
aVvocalist 's
p3469
aVindian hindustani
p3470
aa(lp3471
Vmadhup mudgal
p3472
aVtravel across
p3473
aVworld
p3474
aa(lp3475
Vmadhup mudgal
p3476
aVtravel for
p3477
aVhis performance
p3478
aa(lp3479
Vmadhuvanti
p3480
aS'is a'
p3481
aVname
p3482
aa(lp3483
Vmadhuvanti
p3484
aVname of
p3485
aVraga
p3486
aa(lp3487
g3486
aVuse in
p3488
aVindian music
p3489
aa(lp3490
Vmadhuvanti
p3491
aVthaat
p3492
aVtodi
p3493
aa(lp3494
Vmadhuvanti
p3495
aVexpress
p3496
aVloving sentiment
p3497
aa(lp3498
Vmadhuvanti
p3499
aS'is a'
p3500
aVraga
p3501
aa(lp3502
Vmadhuvanti
p3503
aS'is a'
p3504
aVjanya raga
p3505
aa(lp3506
Vmadhuvanti
p3507
aVraga of
p3508
aVdharmavati
p3509
aa(lp3510
Vmadhuvanti
p3511
aVraga of
p3512
aVth melakarta_of_carnatic_music
p3513
aa(lp3514
Vmadhuvanti
p3515
aS'is a'
p3516
aVmelodious raga
p3517
aa(lp3518
Vmadhuvanti
p3519
aS'is a'
p3520
aVraga
p3521
aa(lp3522
Vraga
p3523
aVcompose
p3524
aVmany tukada
p3525
aa(lp3526
Vsarod
p3527
aS'a type of'
p3528
aVmaestro
p3529
aa(lp3530
Vgharana
p3531
aVgharana of
p3532
aVhindustani music
p3533
aa(lp3534
g3531
aVgharana 's
p3535
aVbenares
p3536
aa(lp3537
Vsarod
p3538
aS'a type of'
p3539
aVplayer
p3540
aa(lp3541
Vsarod
p3542
aS'a type of'
p3543
aVplayer
p3544
aa(lp3545
Vdhrupad
p3546
aS'a type of'
p3547
aVmusic
p3548
aa(lp3549
Vdhrupad
p3550
aS'is a'
p3551
aVvocal tradition
p3552
aa(lp3553
Vdhrupad
p3554
aS'is a'
p3555
aVtradition
p3556
aa(lp3557
Vdhrupad
p3558
aS'a type of'
p3559
aVsinger
p3560
aa(lp3561
Vdhrupad
p3562
aS'a type of'
p3563
aVsinging
p3564
aa(lp3565
Vraga
p3566
aVhave
p3567
aVmodal frame
p3568
aa(lp3569
Valap
p3570
aVprecede
p3571
aVtext
p3572
aa(lp3573
Vdhrupad
p3574
aS'a type of'
p3575
aVgharana
p3576
aa(lp3577
Vgharana
p3578
aVgharana 's
p3579
aVdarbhanga
p3580
aa(lp3581
Vdhrupad
p3582
aS'a type of'
p3583
aVvocalist
p3584
aa(lp3585
Vgharana
p3586
aVflourish under
p3587
aVpatronage
p3588
aa(lp3589
Vgharana
p3590
aVgharana 's
p3591
aVbettiah
p3592
aa(lp3593
Vdhrupad
p3594
aS'a type of'
p3595
aVprevalent
p3596
aa(lp3597
Vrampur-sahaswan gharana
p3598
aVgharana of
p3599
aVtradition
p3600
aa(lp3601
Vsohni
p3602
aVraga in
p3603
aVhindustani music
p3604
aa(lp3605
Vsohni
p3606
aS'is a'
p3607
aVraga
p3608
aa(lp3609
Vsurbahar
p3610
aS'a type of'
p3611
aVplayer
p3612
aa(lp3613
Vgharana
p3614
aVgharana of
p3615
aVpandit_chhannulal_mishra
p3616
aa(lp3617
g3614
aVgharana 's
p3618
aVbanaras
p3619
aa(lp3620
Vgharana
p3621
aVgharana 's
p3622
aVpatiala
p3623
aa(lp3624
Vsitar
p3625
aS'a type of'
p3626
aVplayer
p3627
aa(lp3628
g3625
aS'a type of'
p3629
aVmusician
p3630
aa(lp3631
Vsitar
p3632
aS'a type of'
p3633
aVplay
p3634
aa(lp3635
Vsitar
p3636
aS'a type of'
p3637
aVcomposition
p3638
aa(lp3639
Vmanjusha kulkarni-patil
p3640
aS'is a'
p3641
aVhindustani vocalist
p3642
aa(lp3643
Vmanjusha kulkarni-patil
p3644
aS'is a'
p3645
aVmusic vocalist
p3646
aa(lp3647
Vmanjusha kulkarni-patil
p3648
aS'is a'
p3649
aVvocalist
p3650
aa(lp3651
Vmanjusha kulkarni-patil
p3652
aS'is a'
p3653
aVclassical vocalist
p3654
aa(lp3655
Vgharana
p3656
aVgharana 's
p3657
aVgwalior
p3658
aa(lp3659
Vmanjusha kulkarni-patil
p3660
aVbear on
p3661
aV2 nov
p3662
aa(lp3663
Vmanjusha kulkarni-patil
p3664
aVbear in
p3665
aVsangli
p3666
aa(lp3667
Vmanjusha kulkarni-patil
p3668
aVbear in
p3669
aVfamily
p3670
aa(lp3671
Vmanjusha kulkarni-patil
p3672
aVknow for
p3673
aVkhayal form
p3674
aa(lp3675
Vraga
p3676
aVraga in
p3677
aVeasy-to-understand language
p3678
aa(lp3679
Vsitar
p3680
aS'a type of'
p3681
aVplaying
p3682
aa(lp3683
Vomkarnath thakur
p3684
aVintroduce
p3685
aVimproved version
p3686
aa(lp3687
Vmilind date
p3688
aS'is a'
p3689
aVmusic composer
p3690
aa(lp3691
Vmilind date
p3692
aS'is a'
p3693
aVindian composer
p3694
aa(lp3695
Vmilind date
p3696
aS'is a'
p3697
aVflutist
p3698
aa(lp3699
Vmilind date
p3700
aS'is a'
p3701
aVindian flutist
p3702
aa(lp3703
Vmilind date
p3704
aS'is a'
p3705
aVcomposer
p3706
aa(lp3707
Vmilind date
p3708
aVplay
p3709
aVbansurus
p3710
aa(lp3711
Vsarod
p3712
aS'a type of'
p3713
aVworldwide
p3714
aa(lp3715
Vgulubhai jasdanwalla
p3716
aVproduce
p3717
aVsuccessful disciple
p3718
aa(lp3719
Vdhrupad
p3720
aS'a type of'
p3721
aVgenre
p3722
aa(lp3723
Vpadma talwalkar
p3724
aS'is a'
p3725
aVindian vocalist
p3726
aa(lp3727
Vpadma talwalkar
p3728
aS'is a'
p3729
aVvocalist
p3730
aa(lp3731
Vpadma talwalkar
p3732
aS'is a'
p3733
aVclassical vocalist
p3734
aa(lp3735
Vpadma talwalkar
p3736
aVbear in
p3737
aVmumbai
p3738
aa(lp3739
Vpadma talwalkar
p3740
aVbear in
p3741
aVindia
p3742
aa(lp3743
Vpadma talwalkar
p3744
aVmarry to
p3745
aVtablum maestro pt
p3746
aa(lp3747
Vtabla
p3748
aS'a type of'
p3749
aVplayer
p3750
aa(lp3751
Vgharana
p3752
aVgharana 's
p3753
aVimdadkhani
p3754
aa(lp3755
Vsitar
p3756
aS'a type of'
p3757
aVplayer
p3758
aa(lp3759
Vsitar
p3760
aS'a type of'
p3761
aVplaying
p3762
aa(lp3763
Vgayaki
p3764
aS'a type of'
p3765
aVang
p3766
aa(lp3767
Vgharana
p3768
aVgharana 's
p3769
aVmewati
p3770
aa(lp3771
Vsureshbabu mane
p3772
aVsinger of
p3773
aVkirana_gharana
p3774
aa(lp3775
Vsureshbabu mane
p3776
aVsinger 's
p3777
aVprominent hindustani
p3778
aa(lp3779
Vsureshbabu mane
p3780
aS'is a'
p3781
aVclassical singer
p3782
aa(lp3783
Vsureshbabu mane
p3784
aS'is a'
p3785
aVsinger
p3786
aa(lp3787
Vsureshbabu mane
p3788
aS'is a'
p3789
aVmusic singer
p3790
aa(lp3791
Vsitar
p3792
aS'a type of'
p3793
aVplayer
p3794
aa(lp3795
Vbismillah khan
p3796
aVbear on
p3797
aV21_march_1913
p3798
aa(lp3799
Vbismillah khan
p3800
aVbear in
p3801
aVbihar
p3802
aa(lp3803
Vbismillah khan
p3804
aVbear in
p3805
aVdumraon
p3806
aa(lp3807
Vbismillah khan
p3808
aVbear in
p3809
aVnorthern india
p3810
aa(lp3811
Vshehnai
p3812
aS'a type of'
p3813
aVmaster
p3814
aa(lp3815
Vshehnai
p3816
aS'a type of'
p3817
aVplayer
p3818
aa(lp3819
Vdeenanath mangeshkar
p3820
aVtake
p3821
aVsinging lesson
p3822
aa(lp3823
Vshrutinandan
p3824
aS'is a'
p3825
aVacademy
p3826
aa(lp3827
Vshrutinandan
p3828
aS'is a'
p3829
aVclassical academy
p3830
aa(lp3831
Vshrutinandan
p3832
aS'is a'
p3833
aVmusic academy
p3834
aa(lp3835
Vshrutinandan
p3836
aS'is a'
p3837
aVindian academy
p3838
aa(lp3839
Vshrutinandan
p3840
aVlocate in
p3841
aVkolkata
p3842
aa(lp3843
Vshrutinandan
p3844
aVlocate in
p3845
aVindia
p3846
aa(lp3847
Vshrutinandan
p3848
aVinaugurate on
p3849
aVjuly_1997
p3850
aa(lp3851
Vsitar
p3852
aS'a type of'
p3853
aVplayer
p3854
aa(lp3855
Vvikas kashalkar
p3856
aVwork as
p3857
aVproducer
p3858
aa(lp3859
Vvikas kashalkar
p3860
aVhave
p3861
aVmelodious voice
p3862
aa(lp3863
Vraga
p3864
aVraga in
p3865
aVits avarohana
p3866
aa(lp3867
g3864
aVhave
p3868
aVnote
p3869
aa(lp3870
Vgharana
p3871
aVgharana 's
p3872
aVdarbhanga
p3873
aa(lp3874
Vtappa
p3875
aS'is a'
p3876
aVbhajan
p3877
aa(lp3878
Vvijay koparkar
p3879
aVtake
p3880
aVsing lesson
p3881
aa(lp3882
Vvijay koparkar
p3883
aVimpart
p3884
aVmusic lesson
p3885
aa(lp3886
Vbandish projekt
p3887
aS'is a'
p3888
aVmusical act
p3889
aa(lp3890
Vbandish projekt
p3891
aS'is a'
p3892
aVact
p3893
aa(lp3894
Vbandish projekt
p3895
aVfeature
p3896
aVblend
p3897
aa(lp3898
Vbandish projekt
p3899
aVrelease
p3900
aVtwo
p3901
aa(lp3902
Vahir bhairav
p3903
aS'is a'
p3904
aVclassical raga
p3905
aa(lp3906
Vahir bhairav
p3907
aS'is a'
p3908
aVraga
p3909
aa(lp3910
Vahir bhairav
p3911
aVraga 's
p3912
aVhindustani
p3913
aa(lp3914
Vahir bhairav
p3915
aS'is a'
p3916
aVraga
p3917
aa(lp3918
Vahir bhairav
p3919
aS'is a'
p3920
aVuttarang raga
p3921
aa(lp3922
Vahir bhairav
p3923
aS'is a'
p3924
aVtypical raga
p3925
aa(lp3926
Vtilwada
p3927
aVuse in
p3928
aVkheyal
p3929
aa(lp3930
Vkhyal
p3931
aS'a type of'
p3932
aVsinger
p3933
aa(lp3934
Vgharana
p3935
aVgharana 's
p3936
aVgwalior
p3937
aa(lp3938
g3935
aVgharana from
p3939
aVodisha
p3940
aa(lp3941
Vasad qizilbash
p3942
aVlearn
p3943
aVviolin
p3944
aa(lp3945
Vasad qizilbash
p3946
aVbecome
p3947
aVperform member
p3948
aa(lp3949
Vasad qizilbash
p3950
aVrepresent
p3951
aVpakistan
p3952
aa(lp3953
Vasad qizilbash
p3954
aVperform at
p3955
aVmarcus_mingus_jazz_club
p3956
aa(lp3957
Vsurbahar
p3958
aVbe over
p3959
aV130
p3960
aa(lp3961
Vdhrupad
p3962
aS'a type of'
p3963
aVstyle
p3964
aa(lp3965
Vsurbahar
p3966
aVinvent around
p3967
aV1825
p3968
aa(lp3969
Vthumri
p3970
aS'a type of'
p3971
aVpandit_mahadev_prasad_mishra
p3972
aa(lp3973
Vshehnai
p3974
aVissue on
p3975
aVt-sery label
p3976
aa(lp3977
Vshehnai
p3978
aVissue in
p3979
aV1990
p3980
aa(lp3981
Vshehnai
p3982
aS'a type of'
p3983
aVashok_kumar
p3984
aa(lp3985
Vdhrupad
p3986
aS'a type of'
p3987
aVperformer
p3988
aa(lp3989
Vgharana
p3990
aVgharana 's
p3991
aVlate pandit_krishnarao_pandit_of_gwalior
p3992
aa(lp3993
Vsitar
p3994
aS'a type of'
p3995
aVplayer
p3996
aa(lp3997
Vsitar
p3998
aS'a type of'
p3999
aVquintet
p4000
aa(lp4001
Vkirana gharana
p4002
aVof
p4003
aVkhyal gharana
p4004
aa(lp4005
Vkhyal
p4006
aS'a type of'
p4007
aVgharana
p4008
aa(lp4009
Vgovindrao tembe
p4010
aVbenefit from
p4011
aVadvisement
p4012
aa(lp4013
Vgharana
p4014
aS'a type of'
p4015
aVsystem
p4016
aa(lp4017
Vtabla
p4018
aS'is a'
p4019
aVlive performance
p4020
aa(lp4021
Vtabla
p4022
aS'is a'
p4023
aVperformance
p4024
aa(lp4025
Vgayaki
p4026
aVof
p4027
aVone
p4028
aa(lp4029
Vgayaki
p4030
aVof
p4031
aVsingle gharana
p4032
aa(lp4033
Vgayaki
p4034
aVof
p4035
aVgharana
p4036
aa(lp4037
Vkhyal
p4038
aS'a type of'
p4039
aVsing
p4040
aa(lp4041
Vraga
p4042
aVraga in
p4043
aVframework
p4044
aa(lp4045
Vkhyal
p4046
aVkhyal of
p4047
aVgharanas
p4048
aa(lp4049
Vdhrupad
p4050
aS'a type of'
p4051
aVsolo
p4052
aa(lp4053
Vwasifuddin dagar
p4054
aVtour
p4055
aVnorth_america
p4056
aa(lp4057
Vbishnupur gharana
p4058
aVhave
p4059
aVstrong link
p4060
aa(lp4061
Vbishnupur gharana
p4062
aV:
p4063
aVgopeswar_bandyopadhyay
p4064
aa(lp4065
Vrag lalit
p4066
aS'is a'
p4067
aValbum
p4068
aa(lp4069
Vrag lalit
p4070
aS'is a'
p4071
aVstudio album
p4072
aa(lp4073
Vrag lalit
p4074
aValbum by
p4075
aVmusician ram_narayan
p4076
aa(lp4077
Vrag lalit
p4078
aVrelease in
p4079
aV1989
p4080
aa(lp4081
Vraga
p4082
aS'a type of'
p4083
aVlalit
p4084
aa(lp4085
Vgandharva mahavidyalaya
p4086
aVorganize
p4087
aVvishnu digamber annual festival
p4088
aa(lp4089
Vamit arya
p4090
aVbear in
p4091
aVvancouver
p4092
aa(lp4093
Vamit arya
p4094
aS'is a'
p4095
aVmedical doctor
p4096
aa(lp4097
Vamit arya
p4098
aS'is a'
p4099
aVdoctor
p4100
aa(lp4101
Vamit arya
p4102
aVhold
p4103
aVmedical degree
p4104
aa(lp4105
Vamit arya
p4106
aVdoctor by
p4107
aVprofession
p4108
aa(lp4109
Vsarangi
p4110
aS'a type of'
p4111
aVram_narayan
p4112
aa(lp4113
Vgharana
p4114
aVgharana 's
p4115
aVkirana
p4116
aa(lp4117
Vbhurji khan
p4118
aS'is a'
p4119
aVyoungest son
p4120
aa(lp4121
Vbhurji khan
p4122
aS'is a'
p4123
aVthird son
p4124
aa(lp4125
Vbhurji khan
p4126
aS'is a'
p4127
aVson
p4128
aa(lp4129
Vbhurji khan
p4130
aVson of
p4131
aVutd
p4132
aa(lp4133
Vbhurji khan
p4134
aVcapable of
p4135
aVhis child
p4136
aa(lp4137
Vbhurji khan
p4138
aVvisit
p4139
aVuniara
p4140
aa(lp4141
Vbhurji khan
p4142
aVill with
p4143
aVmotzira
p4144
aa(lp4145
Vbhurji khan
p4146
aVtake to
p4147
aS'#unknown'
p4148
aa(lp4149
Vbhurji khan
p4150
aVteach
p4151
aVpt
p4152
aa(lp4153
Vbhurji khan
p4154
aVdie after
p4155
aVprolonged illness
p4156
aa(lp4157
Vbhurji khan
p4158
aVdie in
p4159
aV1950
p4160
aa(lp4161
Vpatdeep
p4162
aS'is a'
p4163
aVrendition
p4164
aa(lp4165
Vpatdeep
p4166
aS'is a'
p4167
aVfamous rendition
p4168
aa(lp4169
Vpatdeep
p4170
aVrendition by
p4171
aVustad
p4172
aa(lp4173
Vbandish
p4174
aVbandish for
p4175
aVperformance
p4176
aa(lp4177
Vdhrupad
p4178
aS'a type of'
p4179
aVsinger
p4180
aa(lp4181
Vdhrupad
p4182
aVhave in
p4183
aVindia
p4184
aa(lp4185
g4182
aVhave in
p4186
aVpedestal
p4187
aa(lp4188
Vraga
p4189
aVraga in
p4190
aVshort duration
p4191
aa(lp4192
Vbimalendu mukherjee
p4193
aVplayer 's
p4194
aVworld-renowned hindustani
p4195
aa(lp4196
Vgharana
p4197
aVgharana 's
p4198
aVimdadkhani
p4199
aa(lp4200
Vbimalendu mukherjee
p4201
aVteacher of
p4202
ag4197
aa(lp4203
Vsitar
p4204
aS'a type of'
p4205
aVplayer
p4206
aa(lp4207
Vbimalendu mukherjee
p4208
aS'is a'
p4209
aVplayer
p4210
aa(lp4211
Vbimalendu mukherjee
p4212
aS'is a'
p4213
aVclassical player
p4214
aa(lp4215
Vbimalendu mukherjee
p4216
aS'is a'
p4217
aVsitar player
p4218
aa(lp4219
Vbimalendu mukherjee
p4220
aS'is a'
p4221
aVteacher
p4222
aa(lp4223
Vsitar
p4224
aS'a type of'
p4225
aVplayer
p4226
aa(lp4227
Vudaka vadya
p4228
aS'is a'
p4229
aVindian instrument
p4230
aa(lp4231
Vudaka vadya
p4232
aS'is a'
p4233
aVmusical instrument
p4234
aa(lp4235
Vudaka vadya
p4236
aS'is a'
p4237
aVinstrument
p4238
aa(lp4239
Vraga
p4240
aVraga 's
p4241
aVmany carnatic
p4242
aa(lp4243
Vgharana
p4244
aVgharana 's
p4245
aVbhendibazaar
p4246
aa(lp4247
Vtanmoy bose
p4248
aVof
p4249
aVvirtuoso
p4250
aa(lp4251
Vtabla
p4252
aV's
p4253
aVindia
p4254
aa(lp4255
Vgharana
p4256
aVgharana 's
p4257
aVkirana
p4258
aa(lp4259
g4256
aVgharana at
p4260
aVmumbai
p4261
aa(lp4262
Vgajananrao joshi
p4263
aVtrain
p4264
aVshe
p4265
aa(lp4266
Vsarod
p4267
aS'a type of'
p4268
aVplayer
p4269
aa(lp4270
Vwajahat khan
p4271
aS'is a'
p4272
aVplayer
p4273
aa(lp4274
Vwajahat khan
p4275
aS'is a'
p4276
aVsarod player
p4277
aa(lp4278
Vwajahat khan
p4279
aS'is a'
p4280
aVindian player
p4281
aa(lp4282
Vwajahat khan
p4283
aVearn
p4284
aVinternational acclaim
p4285
aa(lp4286
Vdadra
p4287
aVdadra at
p4288
aVlucknow_radio_station
p4289
aa(lp4290
Vgharana
p4291
aS'a type of'
p4292
aVstyle
p4293
aa(lp4294
Vtarana
p4295
aS'a type of'
p4296
aVsinging
p4297
aa(lp4298
Vwamanrao sadolikar
p4299
aVbear into
p4300
aVfamily
p4301
aa(lp4302
Vwamanrao sadolikar
p4303
aVbear in
p4304
aVkolhapur
p4305
aa(lp4306
Valladiya khan
p4307
aVinstruct
p4308
aVhis brother
p4309
aa(lp4310
Vjhaptal
p4311
aVof
p4312
aVfamous tala
p4313
aa(lp4314
Vraga
p4315
aS'a type of'
p4316
aVexposition
p4317
aa(lp4318
Vsugarless
p4319
aVfirst from
p4320
aVswami
p4321
aa(lp4322
Vsugarless
p4323
aS'is a'
p4324
aVsingle first
p4325
aa(lp4326
V53431
p4327
aS'a type of'
p4328
aV's
p4329
aa(lp4330
Vsadra
p4331
aVgenre in
p4332
aVhindustani music
p4333
aa(lp4334
Vsadra
p4335
aVbe
p4336
aVoldest form
p4337
aa(lp4338
Vsadra
p4339
aS'is a'
p4340
aVgenre
p4341
aa(lp4342
Vsadra
p4343
aS'is a'
p4344
aVvocal genre
p4345
aa(lp4346
Vreenat fauzia
p4347
aVhave
p4348
aVaward
p4349
aa(lp4350
Vsantoor
p4351
aVuse as
p4352
aVaccompaniment instrument
p4353
aa(lp4354
g4351
aVuse in
p4355
aVindia
p4356
aa(lp4357
Vsantoor
p4358
aVsit in
p4359
aVasana
p4360
aa(lp4361
g4358
aVplace
p4362
aVit
p4363
aa(lp4364
Vraga
p4365
aS'a type of'
p4366
aVshow
p4367
aa(lp4368
Vritesh das
p4369
aS'is a'
p4370
aVtablum player
p4371
aa(lp4372
Vritesh das
p4373
aS'is a'
p4374
aVplayer
p4375
aa(lp4376
Vritesh das
p4377
aVstudy
p4378
aVteaching
p4379
aa(lp4380
Vritesh das
p4381
aVbear in
p4382
aVkolkata
p4383
aa(lp4384
Vkhyal
p4385
aS'a type of'
p4386
aVstyle
p4387
aa(lp4388
Vgharana
p4389
aVgharana 's
p4390
aVkirana
p4391
aa(lp4392
g4389
aVgharana for
p4393
aVdecade
p4394
aa(lp4395
Vbandish
p4396
aVbandish in
p4397
aVdifferent raga
p4398
aa(lp4399
Vgirija devi
p4400
aVperform with
p4401
aVsamar_saha
p4402
aa(lp4403
Vaditya kalyanpur
p4404
aS'is a'
p4405
aVplayer
p4406
aa(lp4407
Vaditya kalyanpur
p4408
aVplayer 's
p4409
aVindian tabla
p4410
aa(lp4411
Vgharana
p4412
aVgharana 's
p4413
aVpunjab
p4414
aa(lp4415
Vaditya kalyanpur
p4416
aVknow for
p4417
aVhis performance
p4418
aa(lp4419
Vrais khan
p4420
aVmove to
p4421
aVpakistan
p4422
aa(lp4423
Vrais khan
p4424
aVmarry
p4425
aVpakistani lady
p4426
aa(lp4427
Vniladri kumar
p4428
aS'is a'
p4429
aVindian classical
p4430
aa(lp4431
Vniladri kumar
p4432
aS'is a'
p4433
aVclassical
p4434
aa(lp4435
Vniladri kumar
p4436
aS'is a'
p4437
aVfusion musician
p4438
aa(lp4439
Vniladri kumar
p4440
aS'is a'
p4441
aVmusician
p4442
aa(lp4443
Vniladri kumar
p4444
aS'is a'
p4445
aVindian musician
p4446
aa(lp4447
Vniladri kumar
p4448
aVbegin
p4449
aVhis career
p4450
aa(lp4451
Vomkarnath thakur
p4452
aS'is a'
p4453
aVindian educator
p4454
aa(lp4455
Vomkarnath thakur
p4456
aS'is a'
p4457
aVinfluential educator
p4458
aa(lp4459
Vomkarnath thakur
p4460
aS'is a'
p4461
aVeducator
p4462
aa(lp4463
Vgharana
p4464
aVgharana 's
p4465
aVgwalior
p4466
aa(lp4467
g4464
aVaccompany
p4468
aVother musician
p4469
aa(lp4470
Vsarod
p4471
aS'a type of'
p4472
aVplayer
p4473
aa(lp4474
Vprabha atre
p4475
aVof
p4476
aVsenior vocalist
p4477
aa(lp4478
Vprabha atre
p4479
aVauthor
p4480
aVbook
p4481
aa(lp4482
Vbalakrishnabuwa ichalkaranjikar
p4483
aVvocalist of
p4484
aVkhayal
p4485
aa(lp4486
Vbalakrishnabuwa ichalkaranjikar
p4487
aS'is a'
p4488
aVindian vocalist
p4489
aa(lp4490
Vbalakrishnabuwa ichalkaranjikar
p4491
aS'is a'
p4492
aVvocalist
p4493
aa(lp4494
Vbalakrishnabuwa ichalkaranjikar
p4495
aVbear in
p4496
aVmaharashtra
p4497
aa(lp4498
Vbharat gupt
p4499
aVactivist for
p4500
aVrevival
p4501
aa(lp4502
Vbharat gupt
p4503
aVcomeback in
p4504
aVeducational system
p4505
aa(lp4506
Vbharat gupt
p4507
aS'is a'
p4508
aVcomeback
p4509
aa(lp4510
Vbharat gupt
p4511
aS'is a'
p4512
aVits comeback
p4513
aa(lp4514
Vbharat gupt
p4515
aS'is a'
p4516
aVvocal activist
p4517
aa(lp4518
Vbharat gupt
p4519
aS'is a'
p4520
aVactivist
p4521
aa(lp4522
Vdhrupad
p4523
aS'a type of'
p4524
aVsinger
p4525
aa(lp4526
Vdhrupad
p4527
aS'a type of'
p4528
aVinstitute
p4529
aa(lp4530
Vsitar
p4531
aS'a type of'
p4532
aVplayer
p4533
aa(lp4534
Vgharana
p4535
aVgharana 's
p4536
aVimdadkhani
p4537
aa(lp4538
Vsitar
p4539
aVstudy with
p4540
aVmukherjee
p4541
aa(lp4542
Vgayaki
p4543
aS'a type of'
p4544
aVang
p4545
aa(lp4546
Vjohar ali khan
p4547
aS'is a'
p4548
aVviolinist
p4549
aa(lp4550
Vjohar ali khan
p4551
aS'is a'
p4552
aVindian violinist
p4553
aa(lp4554
Vjohar ali khan
p4555
aS'is a'
p4556
aVclassical violinist
p4557
aa(lp4558
Vjohar ali khan
p4559
aVcompose
p4560
aVmusic
p4561
aa(lp4562
Vgharana
p4563
aVgharana 's
p4564
aVbenares
p4565
aa(lp4566
Vsitar
p4567
aS'a type of'
p4568
aVartist
p4569
aa(lp4570
Vgharana
p4571
aVgharana 's
p4572
aVetawah
p4573
aa(lp4574
Vsitar
p4575
aS'a type of'
p4576
aVtraining
p4577
aa(lp4578
Vshehnai
p4579
aS'a type of'
p4580
aVorigin
p4581
aa(lp4582
Vraga
p4583
aVoriginate about
p4584
aVtime
p4585
aa(lp4586
g4583
aVoriginate in
p4587
aVmaharashtra
p4588
aa(lp4589
Vgharana
p4590
aVgharana 's
p4591
aVgwalior
p4592
aa(lp4593
Vdhrupad
p4594
aVbe
p4595
aVmany overlap
p4596
aa(lp4597
Vkhyal
p4598
aS'a type of'
p4599
aVsing
p4600
aa(lp4601
Vraga
p4602
aVrequire
p4603
aVless tuning
p4604
aa(lp4605
Vkhyal
p4606
aS'a type of'
p4607
aVstyle
p4608
aa(lp4609
Vjaipur-atrauli gharana
p4610
aVgharana of
p4611
aVhindustani music
p4612
aa.