(lp0
(dp1
S'arg1'
p2
Vvijay sardeshmukh
p3
sS'arg2'
p4
Vjune_1952
p5
sS'full_sentence'
p6
VVijay Sardeshmukh, born in June 1952 was initiated into music by Pandit Vijay Sardeshmukh Father, Vitthalrao Sardeshmukh.\u000a
p7
sS'rel'
p8
Vbear in
p9
sa(dp10
g2
Valladiya khan
p11
sg4
Vgaan samraat
p12
sg6
VAlladiya Khan was an Indian classical singer, known as Gaan Samraat.\u000a
p13
sg8
Vknow as
p14
sa(dp15
g2
Valladiya khan
p16
sg4
Vclassical singer
p17
sg6
VAlladiya Khan was an Indian classical singer, known as Gaan Samraat.\u000a
p18
sg8
S'is a'
p19
sa(dp20
g2
Valladiya khan
p21
sg4
Vsinger
p22
sg6
VAlladiya Khan was an Indian classical singer, known as Gaan Samraat.\u000a
p23
sg8
S'is a'
p24
sa(dp25
g2
Valladiya khan
p26
sg4
Vindian singer
p27
sg6
VAlladiya Khan was an Indian classical singer, known as Gaan Samraat.\u000a
p28
sg8
S'is a'
p29
sa(dp30
g2
Vgharana
p31
sg4
Vagra
p32
sg6
Vhis father Ahmed Khan founded the Jaipur-Atrauli gharana based on the Agra gharana.\u000a
p33
sg8
Vgharana 's
p34
sa(dp35
g2
Vgharana
p36
sg4
g31
sg6
Vhis father Ahmed Khan founded the Jaipur-Atrauli gharana based on the Agra gharana.\u000a
p37
sg8
Vbase on
p38
sa(dp39
g2
g36
sg4
Vagra
p40
sg6
Vhis father Ahmed Khan founded the Jaipur-Atrauli gharana based on the Agra gharana.\u000a
p41
sg8
Vgharana 's
p42
sa(dp43
g2
Valladiya khan
p44
sg4
S'#unknown'
p45
sg6
VAlladiya Khan served in the court of various kings of Rajasthan, including that of Amlata.\u000a
p46
sg8
Vserve include
p47
sa(dp48
g2
Valladiya khan
p49
sg4
Vcourt
p50
sg6
VAlladiya Khan served in the court of various kings of Rajasthan, including that of Amlata.\u000a
p51
sg8
Vserve in
p52
sa(dp53
g2
Vvilayat khan
p54
sg4
Vbritish_india
p55
sg6
VVilayat Khan was born in Gauripur, British India to Enayat Khan, a sitar maestro.\u000a
p56
sg8
Vbear in
p57
sa(dp58
g2
Vvilayat khan
p59
sg4
Vgauripur
p60
sg6
VVilayat Khan was born in Gauripur, British India to Enayat Khan, a sitar maestro.\u000a
p61
sg8
Vbear in
p62
sa(dp63
g2
Vriyaz
p64
sg4
Vzinde uncle his hassan
p65
sg6
VEnayat Khan, a sitar maestro uncle Zinde Hassan looked after His uncle Zinde Hassan riyaz.\u000a
p66
sg8
Vriyaz 's
p67
sa(dp68
g2
Vvilayat khan
p69
sg4
Vmuch
p70
sg6
VVilayat Khan spent much of Ali Akbar Khan, brother Imrat Khan life living in Calcutta.\u000a
p71
sg8
Vspend
p72
sa(dp73
g2
V53431
p74
sg4
Vcompilation
p75
sg6
V53431 is a Greatest Hits compilation by the electro-pop band Swami.\u000a
p76
sg8
S'is a'
p77
sa(dp78
g2
V53431
p79
sg4
Vgreatest hits
p80
sg6
V53431 is a Greatest Hits compilation by the electro-pop band Swami.\u000a
p81
sg8
Vcompilation 's
p82
sa(dp83
g2
V53431
p84
sg4
Velectro-pop band swami
p85
sg6
V53431 is a Greatest Hits compilation by the electro-pop band Swami.\u000a
p86
sg8
Vcompilation by
p87
sa(dp88
g2
Vgharana
p89
sg4
Vbhendibazar
p90
sg6
VMerukhand techniques were developed within the Bhendibazar gharana and popularized by masters like Aman Ali Khan and Abdul Waheed Khan.\u000a
p91
sg8
Vgharana 's
p92
sa(dp93
g2
Vmerukhand
p94
sg4
Vpart
p95
sg6
VMerukhand is now a part of the improvisational strategy within the Indore gharana founded by Amir Khan.\u000a
p96
sg8
S'is a'
p97
sa(dp98
g2
Vgharana
p99
sg4
Vindore
p100
sg6
VMerukhand is now a part of the improvisational strategy within the Indore gharana founded by Amir Khan.\u000a
p101
sg8
Vgharana 's
p102
sa(dp103
g2
Vmerukhand
p104
sg4
Vimprovisational strategy
p105
sg6
VMerukhand is now a part of the improvisational strategy within the Indore gharana founded by Amir Khan.\u000a
p106
sg8
Vpart of
p107
sa(dp108
g2
Vgulubhai jasdanwalla
p109
sg4
Vutd
p110
sg6
VGulubhai Jasdanwalla also learned from Utd.\u000a
p111
sg8
Vlearn from
p112
sa(dp113
g2
Vmanji khan
p114
sg4
Vpt
p115
sg6
VManji Khan noticed Pt.\u000a
p116
sg8
Vnotice
p117
sa(dp118
g2
Vanoushka shankar
p119
sg4
Vanoushka_shankar album
p120
sg6
VAnoushka Shankar released Anoushka Shankar first album, Anoushka, in 1998, followed by Anourag in 2000.\u000a
p121
sg8
Vrelease
p122
sa(dp123
g2
Vanoushka shankar
p124
sg4
Vanoushka
p125
sg6
VAnoushka Shankar released Anoushka Shankar first album, Anoushka, in 1998, followed by Anourag in 2000.\u000a
p126
sg8
g122
sa(dp127
g2
Vsitar
p128
sg4
Vworldwide
p129
sg6
VShubhendra Shubho Shankar has given soloist performances of violinist Joshua Bell fathers 1st Concerto for Sitar and Orchestra worldwide.\u000a
p130
sg8
S'is a'
p131
sa(dp132
g2
Vsitar
p133
sg4
Vorchestra
p134
sg6
VShubhendra Shubho Shankar has given soloist performances of violinist Joshua Bell fathers 1st Concerto for Sitar and Orchestra worldwide.\u000a
p135
sg8
Vworldwide 's
p136
sa(dp137
g2
Vanoushka shankar
p138
sg4
Vshow
p139
sg6
VAnoushka Shankar opened the show by playing a solo sitar instrumental titled Your Eyes.\u000a
p140
sg8
Vopen
p141
sa(dp142
g2
Vanoushka shankar
p143
sg4
Vsolo sitar
p144
sg6
VAnoushka Shankar opened the show by playing a solo sitar instrumental titled Your Eyes.\u000a
p145
sg8
Vplay
p146
sa(dp147
g2
Vgharana
p148
sg4
Vhindustani music
p149
sg6
VPandit Jasraj belongs to the Mewati gharana of Hindustani classical music.\u000a
p150
sg8
Vgharana of
p151
sa(dp152
g2
g148
sg4
Vmewati
p153
sg6
VPandit Jasraj belongs to the Mewati gharana of Hindustani classical music.\u000a
p154
sg8
Vgharana 's
p155
sa(dp156
g2
Vgharana
p157
sg4
Vpatiala
p158
sg6
VHe studied voice and Raag Vidya under Ashiq Ali Khan of the Patiala gharana.\u000a
p159
sg8
Vgharana 's
p160
sa(dp161
g2
Vgharana
p162
sg4
Vjaipur-atrauli
p163
sg6
VRajashekhar Mansur is a Hindustani Classical vocalist of the Jaipur-Atrauli gharana.\u000a
p164
sg8
Vgharana 's
p165
sa(dp166
g2
Vgharana
p167
sg4
Vmusic
p168
sg6
VSabir Khan belongs to Sikar gharana of music who have given several stalwarts to Indian classical music.\u000a
p169
sg8
Vgharana of
p170
sa(dp171
g2
Vsabir khan
p172
sg4
g167
sg6
VSabir Khan belongs to Sikar gharana of music who have given several stalwarts to Indian classical music.\u000a
p173
sg8
Vsikar
p174
sa(dp175
g2
Vsabir khan
p176
sg4
Vartist
p177
sg6
VSabir Khan has performed alongside artists such as Ustad Zakir Hussain, pt.Kumar Bose, pt.\u000a
p178
sg8
Vperform alongside
p179
sa(dp180
g2
Vkaushiki chakrabarty
p181
sg4
Vindian vocalist
p182
sg6
VKaushiki Chakrabarty is a prominent Indian classical vocalist.\u000a
p183
sg8
S'is a'
p184
sa(dp185
g2
Vkaushiki chakrabarty
p186
sg4
Vvocalist
p187
sg6
VKaushiki Chakrabarty is a prominent Indian classical vocalist.\u000a
p188
sg8
S'is a'
p189
sa(dp190
g2
Vkaushiki chakrabarty
p191
sg4
Vprominent vocalist
p192
sg6
VKaushiki Chakrabarty is a prominent Indian classical vocalist.\u000a
p193
sg8
S'is a'
p194
sa(dp195
g2
Vkaushiki chakrabarty
p196
sg4
Vclassical vocalist
p197
sg6
VKaushiki Chakrabarty is a prominent Indian classical vocalist.\u000a
p198
sg8
S'is a'
p199
sa(dp200
g2
Vkaushiki chakrabarty
p201
sg4
Vindia
p202
sg6
VKaushiki Chakrabarty was born 1980 in Kolkata, India.\u000a
p203
sg8
Vbear in
p204
sa(dp205
g2
Vkaushiki chakrabarty
p206
sg4
Vkolkata
p207
sg6
VKaushiki Chakrabarty was born 1980 in Kolkata, India.\u000a
p208
sg8
Vbear in
p209
sa(dp210
g2
Vkaushiki chakrabarty
p211
sg4
Vschooling
p212
sg6
VKaushiki Chakrabarty completed Kaushiki Chakrabarty schooling at Patha Bhavan school, Kolkata.\u000a
p213
sg8
Vcomplete
p214
sa(dp215
g2
Vbhinnashadaja
p216
sg4
Vhindustani_classical_music
p217
sg6
VHowever, Carnatic Ragas Chandrakauns, Daka and Dakka of Dheerasankarabharanam Melkarta are scale-congruent with Bhinnashadaja of Hindustani Classical Music.\u000a
p218
sg8
Vof
p219
sa(dp220
g2
Vlakshmi shankar
p221
sg4
V30
p222
sg6
VLakshmi Shankar passed away on 30th December 2013.\u000a
p223
sg8
Vpass on
p224
sa(dp225
g2
Vlakshmi shankar
p226
sg4
V30
p227
sg6
VLakshmi Shankar passed away on 30 December 2013 in USA.\u000a
p228
sg8
Vpass on
p229
sa(dp230
g2
Vlakshmi shankar
p231
sg4
Vusa
p232
sg6
VLakshmi Shankar passed away on 30 December 2013 in USA.\u000a
p233
sg8
Vpass in
p234
sa(dp235
g2
Vraga
p236
sg4
Vgentle incarnation
p237
sg6
VLuiz Martinez Jose argued that the raga was named for a gentle and guarding incarnation of the Hindu deity Shiva.\u000a
p238
sg8
Vname for
p239
sa(dp240
g2
Vraga
p241
sg4
Vraga asavari
p242
sg6
VJoep Bor argued that the raga appears to be related to raga Asavari.\u000a
p243
sg8
Vrelate to
p244
sa(dp245
g2
Vshamim ahmed khan
p246
sg4
Vstudent
p247
sg6
VShamim Ahmed Khan was a sitarist and composer, and notably, a student of Pandit Ravi Shankar.\u000a
p248
sg8
S'is a'
p249
sa(dp250
g2
Vshamim ahmed khan
p251
sg4
Vpandit ravi_shankar
p252
sg6
VShamim Ahmed Khan was a sitarist and composer, and notably, a student of Pandit Ravi Shankar.\u000a
p253
sg8
Vstudent of
p254
sa(dp255
g2
Vgharana
p256
sg4
Vindian music
p257
sg6
VSantoor player Pandit S N Sopori belongs to the Sufiana gharana of Indian classical music.\u000a
p258
sg8
Vgharana of
p259
sa(dp260
g2
g256
sg4
Vsufiana
p261
sg6
VSantoor player Pandit S N Sopori belongs to the Sufiana gharana of Indian classical music.\u000a
p262
sg8
Vgharana 's
p263
sa(dp264
g2
Vabdul wahid khan
p265
sg4
Vclassical singer
p266
sg6
VAbdul Wahid Khan was an Indian classical singer, from the Kirana gharana.\u000a
p267
sg8
S'is a'
p268
sa(dp269
g2
Vabdul wahid khan
p270
sg4
Vsinger
p271
sg6
VAbdul Wahid Khan was an Indian classical singer, from the Kirana gharana.\u000a
p272
sg8
S'is a'
p273
sa(dp274
g2
Vabdul wahid khan
p275
sg4
Vindian singer
p276
sg6
VAbdul Wahid Khan was an Indian classical singer, from the Kirana gharana.\u000a
p277
sg8
S'is a'
p278
sa(dp279
g2
Vgharana
p280
sg4
Vkirana
p281
sg6
VAbdul Wahid Khan was an Indian classical singer, from the Kirana gharana.\u000a
p282
sg8
Vgharana 's
p283
sa(dp284
g2
Vanand bhate
p285
sg4
Vclassical vocalist
p286
sg6
VAnand Bhate also known as Anand Gandharva is a Hindustani classical vocalist from the Kirana Gharana.\u000a
p287
sg8
S'is a'
p288
sa(dp289
g2
Vanand bhate
p290
sg4
Vvocalist
p291
sg6
VAnand Bhate also known as Anand Gandharva is a Hindustani classical vocalist from the Kirana Gharana.\u000a
p292
sg8
S'is a'
p293
sa(dp294
g2
Vanand bhate
p295
sg4
Vanand_gandharva
p296
sg6
VAnand Bhate also known as Anand Gandharva is a Hindustani classical vocalist from the Kirana Gharana.\u000a
p297
sg8
Vknow as
p298
sa(dp299
g2
Vanand bhate
p300
sg4
Vhindustani
p301
sg6
VAnand Bhate also known as Anand Gandharva is a Hindustani classical vocalist from the Kirana Gharana.\u000a
p302
sg8
Vvocalist 's
p303
sa(dp304
g2
Vanand bhate
p305
sg4
Vkirana_gharana
p306
sg6
VAnand Bhate also known as Anand Gandharva is a Hindustani classical vocalist from the Kirana Gharana.\u000a
p307
sg8
Vvocalist from
p308
sa(dp309
g2
Vanand bhate
p310
sg4
V1971
p311
sg6
VAnand Bhate was born in Pune, India in 1971, in a family active in classical music.\u000a
p312
sg8
Vbear in
p313
sa(dp314
g2
Vanand bhate
p315
sg4
Vfamily active
p316
sg6
VAnand Bhate was born in Pune, India in 1971, in a family active in classical music.\u000a
p317
sg8
Vbear in
p318
sa(dp319
g2
Vanand bhate
p320
sg4
Vindia
p321
sg6
VAnand Bhate was born in Pune, India in 1971, in a family active in classical music.\u000a
p322
sg8
Vbear in
p323
sa(dp324
g2
Vanand bhate
p325
sg4
Vclassical music
p326
sg6
VAnand Bhate was born in Pune, India in 1971, in a family active in classical music.\u000a
p327
sg8
Vbear in
p328
sa(dp329
g2
Vanand bhate
p330
sg4
Vpune
p331
sg6
VAnand Bhate was born in Pune, India in 1971, in a family active in classical music.\u000a
p332
sg8
Vbear in
p333
sa(dp334
g2
Vkhyal
p335
sg4
Vclassical singing
p336
sg6
VKhyal is the modern genre of classical singing in North India.\u000a
p337
sg8
Vgenre of
p338
sa(dp339
g2
Vkhyal
p340
sg4
Vgenre
p341
sg6
VKhyal is the modern genre of classical singing in North India.\u000a
p342
sg8
S'is a'
p343
sa(dp344
g2
Vkhyal
p345
sg4
Vmodern genre
p346
sg6
VKhyal is the modern genre of classical singing in North India.\u000a
p347
sg8
S'is a'
p348
sa(dp349
g2
Vindore gharana
p350
sg4
Vustad_amir khan
p351
sg6
VSubsequently brothers Tejpal Singh and Surinder Singh learned khayal singing from Ustad Amir Khan the founder of Indore Gharana.\u000a
p352
sg8
Vsinging from
p353
sa(dp354
g2
Vgharana
p355
sg4
Vvocal music
p356
sg6
VUttar Pradesh, India, Tewari is an exponent of the Gwalior gharana of vocal music.\u000a
p357
sg8
Vgharana of
p358
sa(dp359
g2
g355
sg4
Vgwalior
p360
sg6
VUttar Pradesh, India, Tewari is an exponent of the Gwalior gharana of vocal music.\u000a
p361
sg8
Vgharana 's
p362
sa(dp363
g2
Vmalabika kanan
p364
sg4
Vhindustani vocalist
p365
sg6
VMalabika Kanan was a Hindustani classical vocalist.\u000a
p366
sg8
S'is a'
p367
sa(dp368
g2
Vmalabika kanan
p369
sg4
Vvocalist
p370
sg6
VMalabika Kanan was a Hindustani classical vocalist.\u000a
p371
sg8
S'is a'
p372
sa(dp373
g2
Vmalabika kanan
p374
sg4
Vclassical vocalist
p375
sg6
VMalabika Kanan was a Hindustani classical vocalist.\u000a
p376
sg8
S'is a'
p377
sa(dp378
g2
Vmalabika kanan
p379
sg4
Vrabindralal_roy
p380
sg6
VMalabika Kanan was born in Lucknow to Rabindralal Roy, a musicologist.\u000a
p381
sg8
Vbear to
p382
sa(dp383
g2
Vmalabika kanan
p384
sg4
Vlucknow
p385
sg6
VMalabika Kanan was born in Lucknow to Rabindralal Roy, a musicologist.\u000a
p386
sg8
Vbear in
p387
sa(dp388
g2
Vmalabika kanan
p389
sg4
Vfebruary_17_,_2009
p390
sg6
VMalabika Kanan died February 17, 2009 in Calcutta.\u000a
p391
sg8
Vdie
p392
sa(dp393
g2
Vraga
p394
sg4
Vpopular vivadi
p395
sg6
VExamples of popular Vivadi ragas are : Nata, Varali, Vagadheeswari.\u000a
p396
sg8
Vraga 's
p397
sa(dp398
g2
Vsantoor
p399
sg4
Vmaihar gharana
p400
sg6
VRavi Shankar accepted young Tarun as Ravi Shankar only disciple on Santoor of the Maihar Gharana.\u000a
p401
sg8
Vof
p402
sa(dp403
g2
Vdebasis chakroborty
p404
sg4
Vclassical player
p405
sg6
VDebasis Chakroborty is an Indian classical slide guitar player who belongs to the Senia-Maihar Gharana.\u000a
p406
sg8
S'is a'
p407
sa(dp408
g2
Vdebasis chakroborty
p409
sg4
Vslide player
p410
sg6
VDebasis Chakroborty is an Indian classical slide guitar player who belongs to the Senia-Maihar Gharana.\u000a
p411
sg8
S'is a'
p412
sa(dp413
g2
Vdebasis chakroborty
p414
sg4
Vplayer
p415
sg6
VDebasis Chakroborty is an Indian classical slide guitar player who belongs to the Senia-Maihar Gharana.\u000a
p416
sg8
S'is a'
p417
sa(dp418
g2
Vdebasis chakroborty
p419
sg4
Vindian player
p420
sg6
VDebasis Chakroborty is an Indian classical slide guitar player who belongs to the Senia-Maihar Gharana.\u000a
p421
sg8
S'is a'
p422
sa(dp423
g2
Vdebasis chakroborty
p424
sg4
Vguitar player
p425
sg6
VDebasis Chakroborty is an Indian classical slide guitar player who belongs to the Senia-Maihar Gharana.\u000a
p426
sg8
S'is a'
p427
sa(dp428
g2
Vdebasis chakroborty
p429
sg4
Vsenia-maihar gharana
p430
sg6
VDebasis Chakroborty is an Indian classical slide guitar player who belongs to the Senia-Maihar Gharana.\u000a
p431
sg8
Vbelong to
p432
sa(dp433
g2
Vdebasis chakroborty
p434
sg4
Vguitar
p435
sg6
VDebasis Chakroborty began learning guitar from Debasis Chakroborty father Sh.\u000a
p436
sg8
Vlearn
p437
sa(dp438
g2
Vrishab prasanna
p439
sg4
Vflute
p440
sg6
VRishab Prasanna is an Indian flute or bansuri player.\u000a
p441
sg8
S'is a'
p442
sa(dp443
g2
Vrishab prasanna
p444
sg4
Vplayer
p445
sg6
VRishab Prasanna is an Indian flute or bansuri player.\u000a
p446
sg8
S'is a'
p447
sa(dp448
g2
Vrishab prasanna
p449
sg4
Vindian player
p450
sg6
VRishab Prasanna is an Indian flute or bansuri player.\u000a
p451
sg8
S'is a'
p452
sa(dp453
g2
Vrishab prasanna
p454
sg4
Vbansurus player
p455
sg6
VRishab Prasanna is an Indian flute or bansuri player.\u000a
p456
sg8
S'is a'
p457
sa(dp458
g2
Vrishab prasanna
p459
sg4
Vindian flute
p460
sg6
VRishab Prasanna is an Indian flute or bansuri player.\u000a
p461
sg8
S'is a'
p462
sa(dp463
g2
Vrishab prasanna
p464
sg4
Vnew_delhi
p465
sg6
VRishab Prasanna was born in New Delhi.\u000a
p466
sg8
Vbear in
p467
sa(dp468
g2
Vrishab prasanna
p469
sg4
Vindian music
p470
sg6
VRishab Prasanna learned Indian classical music from Rishab Prasanna grandfather, Pt.\u000a
p471
sg8
Vlearn
p472
sa(dp473
g2
Vtappa
p474
sg4
Vform
p475
sg6
VTappa is a form of Indian semi-classical vocal music.\u000a
p476
sg8
S'is a'
p477
sa(dp478
g2
Vtappa
p479
sg4
Vindian music
p480
sg6
VTappa is a form of Indian semi-classical vocal music.\u000a
p481
sg8
Vform of
p482
sa(dp483
g2
Vtappa
p484
sg4
Vnidhu_babus_tappa
p485
sg6
VIn Bengal, Ramnidhi Gupta composed Bengali tappas and Bengali tappas are called as Nidhu Babus Tappa.\u000a
p486
sg8
Vcall as
p487
sa(dp488
g2
g484
sg4
Vbengal
p489
sg6
VIn Bengal, Ramnidhi Gupta composed Bengali tappas and Bengali tappas are called as Nidhu Babus Tappa.\u000a
p490
sg8
Vcall in
p491
sa(dp492
g2
g484
sg4
Vbengali
p493
sg6
VIn Bengal, Ramnidhi Gupta composed Bengali tappas and Bengali tappas are called as Nidhu Babus Tappa.\u000a
p494
sg8
Vtappa 's
p495
sa(dp496
g2
Vtappa
p497
sg4
Vbengali
p498
sg6
VIn Bengal, Ramnidhi Gupta composed Bengali tappas and Bengali tappas are called as Nidhu Babus Tappa.\u000a
p499
sg8
Vtappa 's
p500
sa(dp501
g2
Vsanam marvi
p502
sg4
Vprogramme
p503
sg6
VSanam Marvi debuted at ` Virsa Heritage ', a programme on PTV.\u000a
p504
sg8
Vdebut at
p505
sa(dp506
g2
Vsanam marvi
p507
sg4
Vvirsa_heritage '
p508
sg6
VSanam Marvi debuted at ` Virsa Heritage ', a programme on PTV.\u000a
p509
sg8
Vdebut at
p510
sa(dp511
g2
Vsanam marvi
p512
sg4
Vperformance
p513
sg6
VSanam Marvi became popular after Sanam Marvi performance at Coke Studio, a Pakistani television series featuring live music performances.\u000a
p514
sg8
Vpopular after
p515
sa(dp516
g2
Vsanam marvi
p517
sg4
Vsufi concert
p518
sg6
VSanam Marvi perform sufi concerts around the world.\u000a
p519
sg8
Vperform
p520
sa(dp521
g2
Vjahan-e-khusrau
p522
sg4
Vfestival
p523
sg6
VSanam Marvi made Sanam Marvi debut in with a solo performance at 2010s Jahan-e-Khusrau, the Sufi music festival.\u000a
p524
sg8
S'is a'
p525
sa(dp526
g2
Vjahan-e-khusrau
p527
sg4
Vmusic festival
p528
sg6
VSanam Marvi made Sanam Marvi debut in with a solo performance at 2010s Jahan-e-Khusrau, the Sufi music festival.\u000a
p529
sg8
S'is a'
p530
sa(dp531
g2
Vjahan-e-khusrau
p532
sg4
Vsufi
p533
sg6
VSanam Marvi made Sanam Marvi debut in with a solo performance at 2010s Jahan-e-Khusrau, the Sufi music festival.\u000a
p534
sg8
Vfestival 's
p535
sa(dp536
g2
Vsanam marvi
p537
sg4
Vdebut
p538
sg6
VSanam Marvi made Sanam Marvi debut in with a solo performance at 2010s Jahan-e-Khusrau, the Sufi music festival.\u000a
p539
sg8
Vmake
p540
sa(dp541
g2
Vrasoolan bai
p542
sg4
Vmusician
p543
sg6
VRasoolan Bai was a leading Indian Hindustani classical music vocal musician.\u000a
p544
sg8
S'is a'
p545
sa(dp546
g2
Vrasoolan bai
p547
sg4
Vvocal musician
p548
sg6
VRasoolan Bai was a leading Indian Hindustani classical music vocal musician.\u000a
p549
sg8
S'is a'
p550
sa(dp551
g2
Vrasoolan bai
p552
sg4
Vhindustani musician
p553
sg6
VRasoolan Bai was a leading Indian Hindustani classical music vocal musician.\u000a
p554
sg8
S'is a'
p555
sa(dp556
g2
Vrasoolan bai
p557
sg4
Vclassical musician
p558
sg6
VRasoolan Bai was a leading Indian Hindustani classical music vocal musician.\u000a
p559
sg8
S'is a'
p560
sa(dp561
g2
Vrasoolan bai
p562
sg4
Vlead musician
p563
sg6
VRasoolan Bai was a leading Indian Hindustani classical music vocal musician.\u000a
p564
sg8
S'is a'
p565
sa(dp566
g2
Vrasoolan bai
p567
sg4
Vindian musician
p568
sg6
VRasoolan Bai was a leading Indian Hindustani classical music vocal musician.\u000a
p569
sg8
S'is a'
p570
sa(dp571
g2
Vrasoolan bai
p572
sg4
Vmusic musician
p573
sg6
VRasoolan Bai was a leading Indian Hindustani classical music vocal musician.\u000a
p574
sg8
S'is a'
p575
sa(dp576
g2
Vgharana
p577
sg4
Vpatiala
p578
sg6
VBickram Ghosh music is strongly influenced by thumri and khayal genres of the Patiala gharana.\u000a
p579
sg8
Vgharana 's
p580
sa(dp581
g2
Vkeherwa
p582
sg4
Vmany variation
p583
sg6
Vthe Keherwa has many variations including dhumaali, bhajani, and qawwali.\u000a
p584
sg8
Vhave
p585
sa(dp586
g2
Vfaiyaz khan
p587
sg4
Vagra gharana
p588
sg6
VS.N.Ratanjankar also received instruction from Anant Manohar Joshi and later under Faiyaz Khan of Agra gharana.\u000a
p589
sg8
Vof
p590
sa(dp591
g2
Vdhrupad
p592
sg4
Vstyle
p593
sg6
VAs a vocalist he sang Dhrupad and Khayal styles of Agra gharana.\u000a
p594
sg8
S'is a'
p595
sa(dp596
g2
Vdhrupad
p597
sg4
Vagra gharana
p598
sg6
VAs a vocalist he sang Dhrupad and Khayal styles of Agra gharana.\u000a
p599
sg8
Vstyle of
p600
sa(dp601
g2
Vdhrupad
p602
sg4
Vkhayal
p603
sg6
VAs a vocalist he sang Dhrupad and Khayal styles of Agra gharana.\u000a
p604
sg8
Vstyle 's
p605
sa(dp606
g2
Vgharana
p607
sg4
Vjaipur-atrauli
p608
sg6
Va vocalist of the Jaipur-Atrauli gharana has visited many universities as expert for specialised lecture-demonstrations and refresher courses.\u000a
p609
sg8
Vgharana 's
p610
sa(dp611
g2
Vgharana
p612
sg4
Vjaipur-atrauli
p613
sg6
Va vocalist of the Jaipur-Atrauli gharana has been awarded the title of Gaan Hira by SNDT Womens University, Mumbai.\u000a
p614
sg8
Vgharana 's
p615
sa(dp616
g2
Vgharana
p617
sg4
Vjaipur-atrauli
p618
sg6
VHer performance on AIR was heard by the maestro of the Jaipur-Atrauli gharana, Pandit Nivruttibua Sarnaik.\u000a
p619
sg8
Vgharana 's
p620
sa(dp621
g2
Vkumar gandharva
p622
sg4
Vshri_ram_sangeet_mahavidyalaya
p623
sg6
VKumar Gandharva started  Shri Ram Sangeet Mahavidyalaya  in 1938.\u000a
p624
sg8
Vstart
p625
sa(dp626
g2
Vimrat khan
p627
sg4
Vsitar
p628
sg6
VImrat Khan is a leading sitar and surbahar player.\u000a
p629
sg8
S'is a'
p630
sa(dp631
g2
Vimrat khan
p632
sg4
Vplayer
p633
sg6
VImrat Khan is a leading sitar and surbahar player.\u000a
p634
sg8
S'is a'
p635
sa(dp636
g2
Vimrat khan
p637
sg4
Vlead sitar
p638
sg6
VImrat Khan is a leading sitar and surbahar player.\u000a
p639
sg8
S'is a'
p640
sa(dp641
g2
Vimrat khan
p642
sg4
Vsurbahar player
p643
sg6
VImrat Khan is a leading sitar and surbahar player.\u000a
p644
sg8
S'is a'
p645
sa(dp646
g2
Vimrat khan
p647
sg4
Vvilayat ustad maestro sitar khan
p648
sg6
VImrat Khan is the younger brother of sitar maestro Ustad Vilayat Khan.\u000a
p649
sg8
Vbrother of
p650
sa(dp651
g2
Vimrat khan
p652
sg4
Vyounger brother
p653
sg6
VImrat Khan is the younger brother of sitar maestro Ustad Vilayat Khan.\u000a
p654
sg8
S'is a'
p655
sa(dp656
g2
Vimrat khan
p657
sg4
Vbrother
p658
sg6
VImrat Khan is the younger brother of sitar maestro Ustad Vilayat Khan.\u000a
p659
sg8
S'is a'
p660
sa(dp661
g2
Vwahid khan
p662
sg4
Vpatiala_darbar
p663
sg6
VWahid Khan also served the Patiala Darbar for 3 years as the Patiala Darbar Court-musician.\u000a
p664
sg8
Vserve
p665
sa(dp666
g2
Vwahid khan
p667
sg4
Vall_india_radio
p668
sg6
VWahid Khan was a regular performer at the All India Radio.\u000a
p669
sg8
Vperformer at
p670
sa(dp671
g2
Vwahid khan
p672
sg4
Vperformer
p673
sg6
VWahid Khan was a regular performer at the All India Radio.\u000a
p674
sg8
S'is a'
p675
sa(dp676
g2
Vwahid khan
p677
sg4
Vregular performer
p678
sg6
VWahid Khan was a regular performer at the All India Radio.\u000a
p679
sg8
S'is a'
p680
sa(dp681
g2
Vbharatiya sangeet vadya
p682
sg4
Vbook
p683
sg6
VBharatiya Sangeet Vadya is a book written by Dr. Lalmani Misra.\u000a
p684
sg8
S'is a'
p685
sa(dp686
g2
Vkumar bose
p687
sg4
Vindian music
p688
sg6
VKumar Bose is an Indian tabla maestro and composer of Indian classical music.\u000a
p689
sg8
Vcomposer of
p690
sa(dp691
g2
Vkumar bose
p692
sg4
Vindian composer
p693
sg6
VKumar Bose is an Indian tabla maestro and composer of Indian classical music.\u000a
p694
sg8
S'is a'
p695
sa(dp696
g2
Vkumar bose
p697
sg4
Vtablum maestro
p698
sg6
VKumar Bose is an Indian tabla maestro and composer of Indian classical music.\u000a
p699
sg8
S'is a'
p700
sa(dp701
g2
Vkumar bose
p702
sg4
Vindian maestro
p703
sg6
VKumar Bose is an Indian tabla maestro and composer of Indian classical music.\u000a
p704
sg8
S'is a'
p705
sa(dp706
g2
Vkumar bose
p707
sg4
Vcomposer
p708
sg6
VKumar Bose is an Indian tabla maestro and composer of Indian classical music.\u000a
p709
sg8
S'is a'
p710
sa(dp711
g2
Vkumar bose
p712
sg4
Vmaestro
p713
sg6
VKumar Bose is an Indian tabla maestro and composer of Indian classical music.\u000a
p714
sg8
S'is a'
p715
sa(dp716
g2
Vequalize
p717
sg4
Vurban desi
p718
sg6
VEqualize is an Urban Desi album by the UK band Swami released on September 24, 2007.\u000a
p719
sg8
Valbum 's
p720
sa(dp721
g2
Vequalize
p722
sg4
Valbum
p723
sg6
VEqualize is an Urban Desi album by the UK band Swami released on September 24, 2007.\u000a
p724
sg8
S'is a'
p725
sa(dp726
g2
Vtafo khan
p727
sg4
Vgharana
p728
sg6
VTafo Khan was formed in the Punjab gharana.\u000a
p729
sg8
Vform in
p730
sa(dp731
g2
g728
sg4
Vpunjab
p732
sg6
VTafo Khan was formed in the Punjab gharana.\u000a
p733
sg8
Vgharana 's
p734
sa(dp735
g2
Vnatya sangeet
p736
sg4
Vform
p737
sg6
VNatya Sangeet is a form of Indian classical and semi-classical music.\u000a
p738
sg8
S'is a'
p739
sa(dp740
g2
Vnatya sangeet
p741
sg4
Vindian music
p742
sg6
VNatya Sangeet is a form of Indian classical and semi-classical music.\u000a
p743
sg8
Vform of
p744
sa(dp745
g2
Vnatya sangeet
p746
sg4
Vindian music
p747
sg6
VNatya Sangeet is a form of Indian classical and semi-classical music.\u000a
p748
sg8
Vform of
p749
sa(dp750
g2
Vmogubai kurdikar
p751
sg4
Vmusic vocalist
p752
sg6
VMogubai Kurdikar was a renowned Hindustani classical music vocalist of the Jaipur-Atrauli gharana.\u000a
p753
sg8
S'is a'
p754
sa(dp755
g2
Vmogubai kurdikar
p756
sg4
Vvocalist
p757
sg6
VMogubai Kurdikar was a renowned Hindustani classical music vocalist of the Jaipur-Atrauli gharana.\u000a
p758
sg8
S'is a'
p759
sa(dp760
g2
Vmogubai kurdikar
p761
sg4
Vclassical vocalist
p762
sg6
VMogubai Kurdikar was a renowned Hindustani classical music vocalist of the Jaipur-Atrauli gharana.\u000a
p763
sg8
S'is a'
p764
sa(dp765
g2
Vgharana
p766
sg4
Vjaipur-atrauli
p767
sg6
VMogubai Kurdikar was a renowned Hindustani classical music vocalist of the Jaipur-Atrauli gharana.\u000a
p768
sg8
Vgharana 's
p769
sa(dp770
g2
Vmogubai kurdikar
p771
sg4
g766
sg6
VMogubai Kurdikar was a renowned Hindustani classical music vocalist of the Jaipur-Atrauli gharana.\u000a
p772
sg8
Vvocalist of
p773
sa(dp774
g2
Vmogubai kurdikar
p775
sg4
Vrenowned hindustani
p776
sg6
VMogubai Kurdikar was a renowned Hindustani classical music vocalist of the Jaipur-Atrauli gharana.\u000a
p777
sg8
Vvocalist 's
p778
sa(dp779
g2
Valladiya khan
p780
sg4
Vbombay
p781
sg6
VAfter some eighteen months, Alladiya Khan moved to Bombay, and Mogu followed.\u000a
p782
sg8
Vmove to
p783
sa(dp784
g2
Valladiya khan
p785
sg4
Vmonth
p786
sg6
VAfter some eighteen months, Alladiya Khan moved to Bombay, and Mogu followed.\u000a
p787
sg8
Vmove after
p788
sa(dp789
g2
Varup chattopadhyay
p790
sg4
Vtablum player
p791
sg6
VArup Chattopadhyay is an Indian tabla player.\u000a
p792
sg8
S'is a'
p793
sa(dp794
g2
Varup chattopadhyay
p795
sg4
Vindian player
p796
sg6
VArup Chattopadhyay is an Indian tabla player.\u000a
p797
sg8
S'is a'
p798
sa(dp799
g2
Varup chattopadhyay
p800
sg4
Vplayer
p801
sg6
VArup Chattopadhyay is an Indian tabla player.\u000a
p802
sg8
S'is a'
p803
sa(dp804
g2
Varup chattopadhyay
p805
sg4
Vtablum
p806
sg6
VArup Chattopadhyay started learning tabla at the age of six from Arup Chattopadhyay father Pt.\u000a
p807
sg8
Vlearn
p808
sa(dp809
g2
Vanupam shobhakar
p810
sg4
Valbum awakening
p811
sg6
VAnupam Shobhakar recorded Anupam Shobhakar first album Mysterious Awakening, in 2004.\u000a
p812
sg8
Vrecord
p813
sa(dp814
g2
Vanupam shobhakar
p815
sg4
Vsound
p816
sg6
VAnupam Shobhakar describes the sound of the music on the album as the best of both worlds.\u000a
p817
sg8
Vdescribe
p818
sa(dp819
g2
Vgharana
p820
sg4
Vmusical tradition
p821
sg6
VThis gharana is claimed to combine the musical traditions of Delhi gharana, Gwalior Gharana and Jaipur-Atrauli Gharana.\u000a
p822
sg8
Vcombine
p823
sa(dp824
g2
Vgharana
p825
sg4
Vnotable pupil
p826
sg6
VThe gharana has many notable pupils including Ustad Bade Ghulam Ali Khan, Malika Pukhraj and Gauhar Jan.\u000a
p827
sg8
Vhave
p828
sa(dp829
g2
Vsurinder sandhu
p830
sg4
Vsarangi player
p831
sg6
VSurinder Sandhu is a sarangi player and composer.\u000a
p832
sg8
S'is a'
p833
sa(dp834
g2
Vsurinder sandhu
p835
sg4
Vplayer
p836
sg6
VSurinder Sandhu is a sarangi player and composer.\u000a
p837
sg8
S'is a'
p838
sa(dp839
g2
Vsurinder sandhu
p840
sg4
Vcomposer
p841
sg6
VSurinder Sandhu is a sarangi player and composer.\u000a
p842
sg8
S'is a'
p843
sa(dp844
g2
Vsurinder sandhu
p845
sg4
Vsarangi composer
p846
sg6
VSurinder Sandhu is a sarangi player and composer.\u000a
p847
sg8
S'is a'
p848
sa(dp849
g2
Vsurinder sandhu
p850
sg4
Vstudent
p851
sg6
VSurinder Sandhu is a student of Sabri Khan of the Senia Rampur Moradabad gharana.\u000a
p852
sg8
S'is a'
p853
sa(dp854
g2
Vgharana
p855
sg4
Vsenia_rampur_moradabad
p856
sg6
VSurinder Sandhu is a student of Sabri Khan of the Senia Rampur Moradabad gharana.\u000a
p857
sg8
Vgharana 's
p858
sa(dp859
g2
Vsurinder sandhu
p860
sg4
Vsabri khan
p861
sg6
VSurinder Sandhu is a student of Sabri Khan of the Senia Rampur Moradabad gharana.\u000a
p862
sg8
Vstudent of
p863
sa(dp864
g2
Vsurinder sandhu
p865
sg4
g855
sg6
VSurinder Sandhu is a student of Sabri Khan of the Senia Rampur Moradabad gharana.\u000a
p866
sg8
Vstudent of
p867
sa(dp868
g2
Vsurinder sandhu
p869
sg4
Vmultiple genre
p870
sg6
VSurinder Sandhu composes in multiple genres.\u000a
p871
sg8
Vcompose in
p872
sa(dp873
g2
Vhirabai barodekar
p874
sg4
Vclassical singer
p875
sg6
VHirabai Barodekar was a renowned Indian Hindustani classical music singer, of Kirana gharana.\u000a
p876
sg8
S'is a'
p877
sa(dp878
g2
Vhirabai barodekar
p879
sg4
Vsinger
p880
sg6
VHirabai Barodekar was a renowned Indian Hindustani classical music singer, of Kirana gharana.\u000a
p881
sg8
S'is a'
p882
sa(dp883
g2
Vhirabai barodekar
p884
sg4
Vmusic singer
p885
sg6
VHirabai Barodekar was a renowned Indian Hindustani classical music singer, of Kirana gharana.\u000a
p886
sg8
S'is a'
p887
sa(dp888
g2
Vhirabai barodekar
p889
sg4
Vkirana gharana
p890
sg6
VHirabai Barodekar was a renowned Indian Hindustani classical music singer, of Kirana gharana.\u000a
p891
sg8
Vsinger of
p892
sa(dp893
g2
Vhirabai barodekar
p894
sg4
Vindian renowned hindustani
p895
sg6
VHirabai Barodekar was a renowned Indian Hindustani classical music singer, of Kirana gharana.\u000a
p896
sg8
Vsinger 's
p897
sa(dp898
g2
Vhirabai barodekar
p899
sg4
Vexpert
p900
sg6
VHirabai Barodekar was an expert in Khyal, Thumri, Marathi Natya Sangeet, and Bhajan.\u000a
p901
sg8
S'is a'
p902
sa(dp903
g2
Vhirabai barodekar
p904
sg4
Vkhyal
p905
sg6
VHirabai Barodekar was an expert in Khyal, Thumri, Marathi Natya Sangeet, and Bhajan.\u000a
p906
sg8
Vexpert in
p907
sa(dp908
g2
Vhirabai barodekar
p909
sg4
Vpioneer
p910
sg6
VHirabai Barodekar was truly pioneer of concerts by women artists in India.\u000a
p911
sg8
S'is a'
p912
sa(dp913
g2
Vhirabai barodekar
p914
sg4
Vconcert
p915
sg6
VHirabai Barodekar was truly pioneer of concerts by women artists in India.\u000a
p916
sg8
Vpioneer of
p917
sa(dp918
g2
Vhirabai barodekar
p919
sg4
Vstage
p920
sg6
VHirabai Barodekar was always amazingly popular on stages and Hirabai Barodekar shows were jam-packed.\u000a
p921
sg8
Vpopular on
p922
sa(dp923
g2
Vhirabai barodekar
p924
sg4
Vkirana gharana
p925
sg6
VHirabai Barodekar made Kirana gharana more popular and rich.\u000a
p926
sg8
Vmake
p927
sa(dp928
g2
Vhirabai barodekar
p929
sg4
Vsuvarna_mandir
p930
sg6
VHirabai Barodekar acted in several movies, including Suvarna Mandir, Pratibha, Janabai, and Municipality.\u000a
p931
sg8
Vact include
p932
sa(dp933
g2
Vhirabai barodekar
p934
sg4
Vseveral movie
p935
sg6
VHirabai Barodekar acted in several movies, including Suvarna Mandir, Pratibha, Janabai, and Municipality.\u000a
p936
sg8
Vact in
p937
sa(dp938
g2
Vhirabai barodekar
p939
sg4
Vmusic school
p940
sg6
VHirabai Barodekar also started a music school, Nutan Sangeet Vidyalaya, to teach music to girls.\u000a
p941
sg8
Vstart
p942
sa(dp943
g2
Vhirabai barodekar
p944
sg4
Vnutan_sangeet_vidyalaya
p945
sg6
VHirabai Barodekar also started a music school, Nutan Sangeet Vidyalaya, to teach music to girls.\u000a
p946
sg8
g942
sa(dp947
g2
Vhirabai barodekar
p948
sg4
Vmusic
p949
sg6
VHirabai Barodekar also started a music school, Nutan Sangeet Vidyalaya, to teach music to girls.\u000a
p950
sg8
Vteach
p951
sa(dp952
g2
Vhirabai barodekar
p953
sg4
Vrecording artist
p954
sg6
VHirabai Barodekar became a recording artist very early in Hirabai Barodekar career.\u000a
p955
sg8
Vbecome
p956
sa(dp957
g2
Vhirabai barodekar
p958
sg4
Vseveral award
p959
sg6
VHirabai Barodekar received several awards, including the Sangeet Natak Akademi Award and the Padma Bhushan Award.\u000a
p960
sg8
Vreceive
p961
sa(dp962
g2
Vsumati mutatkar
p963
sg4
Vbhatkhande_music_institute
p964
sg6
VSumati Mutatkar was also a student of Bhatkhande Music Institute at Lucknow under S. N. Ratanjankar.\u000a
p965
sg8
Vstudent of
p966
sa(dp967
g2
Vsumati mutatkar
p968
sg4
Vlucknow
p969
sg6
VSumati Mutatkar was also a student of Bhatkhande Music Institute at Lucknow under S. N. Ratanjankar.\u000a
p970
sg8
Vstudent at
p971
sa(dp972
g2
Vsumati mutatkar
p973
sg4
Vs._n._ratanjankar
p974
sg6
VSumati Mutatkar was also a student of Bhatkhande Music Institute at Lucknow under S. N. Ratanjankar.\u000a
p975
sg8
Vstudent under
p976
sa(dp977
g2
Vsumati mutatkar
p978
sg4
Vstudent
p979
sg6
VSumati Mutatkar was also a student of Bhatkhande Music Institute at Lucknow under S. N. Ratanjankar.\u000a
p980
sg8
S'is a'
p981
sa(dp982
g2
Valka yagnik
p983
sg4
Vplayback singer
p984
sg6
VAlka Yagnik is amongst the best-known playback singers of Hindi cinema with a career spanning three decades.\u000a
p985
sg8
Vbe amongst
p986
sa(dp987
g2
Valka yagnik
p988
sg4
Vleading singer
p989
sg6
VAlka Yagnik was the only leading playback singer during 90s to mid 2000s.\u000a
p990
sg8
S'is a'
p991
sa(dp992
g2
Valka yagnik
p993
sg4
Vsinger
p994
sg6
VAlka Yagnik was the only leading playback singer during 90s to mid 2000s.\u000a
p995
sg8
S'is a'
p996
sa(dp997
g2
Valka yagnik
p998
sg4
Vplayback singer
p999
sg6
VAlka Yagnik was the only leading playback singer during 90s to mid 2000s.\u000a
p1000
sg8
S'is a'
p1001
sa(dp1002
g2
Valka yagnik
p1003
sg4
Vonly singer
p1004
sg6
VAlka Yagnik was the only leading playback singer during 90s to mid 2000s.\u000a
p1005
sg8
S'is a'
p1006
sa(dp1007
g2
Valka yagnik
p1008
sg4
V20
p1009
sg6
VAlka Yagnik was born in Kolkata on 20 March 1966.\u000a
p1010
sg8
Vbear on
p1011
sa(dp1012
g2
Valka yagnik
p1013
sg4
Vkolkata
p1014
sg6
VAlka Yagnik was born in Kolkata on 20 March 1966.\u000a
p1015
sg8
Vbear in
p1016
sa(dp1017
g2
Valka yagnik
p1018
sg4
Vbhajan
p1019
sg6
VAlka Yagnik began singing bhajans for Akashvani, Calcutta.\u000a
p1020
sg8
Vsing
p1021
sa(dp1022
g2
Valka yagnik
p1023
sg4
Vbig break
p1024
sg6
VAlka Yagnik got Alka Yagnik big break with the song Ek Do Teen from the film Tezaab.\u000a
p1025
sg8
Vget
p1026
sa(dp1027
g2
Valka yagnik
p1028
sg4
Vmany duet
p1029
sg6
VAlka Yagnik has also sung many duets with Abhijeet Bhattacharya, Sonu Nigam, Vinod Rathod & Shaan.\u000a
p1030
sg8
Vsing
p1031
sa(dp1032
g2
Valka yagnik
p1033
sg4
Vhanuman song
p1034
sg6
VAlka Yagnik has also rendered the Hanuman Chalisa and various devotional songs.\u000a
p1035
sg8
Vrender
p1036
sa(dp1037
g2
Vpakad
p1038
sg4
Vyaman
p1039
sg6
VFor example, here is a pakad for raga Yaman, a prominent raga from Hindustani Music :.\u000a
p1040
sg8
Vpakad for
p1041
sa(dp1042
g2
g1038
sg4
Vexample
p1043
sg6
VFor example, here is a pakad for raga Yaman, a prominent raga from Hindustani Music :.\u000a
p1044
sg8
Vbe for
p1045
sa(dp1046
g2
Vsitar
p1047
sg4
Vset
p1048
sg6
V, George Harrison picked up a sitar left on the set as a prop and attempted to play it.\u000a
p1049
sg8
Vleave on
p1050
sa(dp1051
g2
g1047
sg4
S'#unknown'
p1052
sg6
V, George Harrison picked up a sitar left on the set as a prop and attempted to play it.\u000a
p1053
sg8
Vleave as
p1054
sa(dp1055
g2
g1047
sg4
Vit
p1056
sg6
V, George Harrison picked up a sitar left on the set as a prop and attempted to play it.\u000a
p1057
sg8
Vplay
p1058
sa(dp1059
g2
Vkirit khan
p1060
sg4
Vkidney failure
p1061
sg6
VKirit Khan died prematurely in 2006 due to kidney failure.\u000a
p1062
sg8
Vdie to
p1063
sa(dp1064
g2
Vkirit khan
p1065
sg4
V2006
p1066
sg6
VKirit Khan died prematurely in 2006 due to kidney failure.\u000a
p1067
sg8
Vdie in
p1068
sa(dp1069
g2
Vsitar
p1070
sg4
Vindian_music_academy
p1071
sg6
VHe was a visiting teacher on sitar in Indian Music Academy in Frankfurt, Germany.\u000a
p1072
sg8
Vsitar in
p1073
sa(dp1074
g2
Vsudhirkumar saxena
p1075
sg4
Vart
p1076
sg6
VSudhirkumar Saxena learnt the tabla performing art for years from Ustad Habeebuddin Khan, the doyen of the Ajrada gharana.\u000a
p1077
sg8
Vperform
p1078
sa(dp1079
g2
Vgharana
p1080
sg4
Vajrada
p1081
sg6
VSudhirkumar Saxena learnt the tabla performing art for years from Ustad Habeebuddin Khan, the doyen of the Ajrada gharana.\u000a
p1082
sg8
Vgharana 's
p1083
sa(dp1084
g2
Vsudhirkumar saxena
p1085
sg4
Vtablum
p1086
sg6
VSudhirkumar Saxena learnt the tabla performing art for years from Ustad Habeebuddin Khan, the doyen of the Ajrada gharana.\u000a
p1087
sg8
Vlearn
p1088
sa(dp1089
g2
Vpannalal ghosh
p1090
sg4
Vbackground
p1091
sg6
VPannalal Ghosh jointly scoring the background for  Aandhiyan  in 1952 along with Ustad Ali Akbar Khan and Pandit Ravi Shankar.\u000a
p1092
sg8
Vscore
p1093
sa(dp1094
g2
Vswara
p1095
sg4
Vsanskrit
p1096
sg6
VIn the context of Indian classical music, Swara is a Sanskrit word that means a note in the octave.\u000a
p1097
sg8
Vword 's
p1098
sa(dp1099
g2
Vswara
p1100
sg4
Vnote
p1101
sg6
VIn the context of Indian classical music, Swara is a Sanskrit word that means a note in the octave.\u000a
p1102
sg8
Vmean
p1103
sa(dp1104
g2
Vswara
p1105
sg4
Vword
p1106
sg6
VIn the context of Indian classical music, Swara is a Sanskrit word that means a note in the octave.\u000a
p1107
sg8
S'is a'
p1108
sa(dp1109
g2
Vswara
p1110
sg4
Vmusic
p1111
sg6
VThe swaras in Carnatic music are slightly different in the twelve-note system.\u000a
p1112
sg8
Vswara in
p1113
sa(dp1114
g2
Vswara
p1115
sg4
Vone
p1116
sg6
VAlso, each swara is associated with one of the seven chakras of the body.\u000a
p1117
sg8
Vassociate with
p1118
sa(dp1119
g2
Vayaan ali khan
p1120
sg4
Vseventh generation
p1121
sg6
VAyaan Ali Khan represents the seventh generation of a musical lineage known as the Senia Bangash School.\u000a
p1122
sg8
Vrepresent
p1123
sa(dp1124
g2
Vektal
p1125
sg4
Vclassical music
p1126
sg6
VEktal is commonly used in classical music like kheyal, and semiclassical forms like Rabindra Sangeet.\u000a
p1127
sg8
Vuse in
p1128
sa(dp1129
g2
Vektal
p1130
sg4
Vsemiclassical form
p1131
sg6
VEktal is commonly used in classical music like kheyal, and semiclassical forms like Rabindra Sangeet.\u000a
p1132
sg8
Vuse in
p1133
sa(dp1134
g2
Varvind parikh
p1135
sg4
Vplayer
p1136
sg6
VArvind Parikh is a Hindustani classical musician and sitar player.\u000a
p1137
sg8
S'is a'
p1138
sa(dp1139
g2
Varvind parikh
p1140
sg4
Vclassical musician
p1141
sg6
VArvind Parikh is a Hindustani classical musician and sitar player.\u000a
p1142
sg8
S'is a'
p1143
sa(dp1144
g2
Varvind parikh
p1145
sg4
Vmusician
p1146
sg6
VArvind Parikh is a Hindustani classical musician and sitar player.\u000a
p1147
sg8
S'is a'
p1148
sa(dp1149
g2
Varvind parikh
p1150
sg4
Vsitar player
p1151
sg6
VArvind Parikh is a Hindustani classical musician and sitar player.\u000a
p1152
sg8
S'is a'
p1153
sa(dp1154
g2
Varvind parikh
p1155
sg4
Vhindustani
p1156
sg6
VArvind Parikh is a Hindustani classical musician and sitar player.\u000a
p1157
sg8
Vmusician 's
p1158
sa(dp1159
g2
Varvind parikh
p1160
sg4
Vadmission
p1161
sg6
VArvind Parikh got admission in Elphinstone College, Bombay.\u000a
p1162
sg8
Vget
p1163
sa(dp1164
g2
Varvind parikh
p1165
sg4
Vperform career
p1166
sg6
VArvind Parikh is having a performing career spanning over six decades.\u000a
p1167
sg8
Vhave
p1168
sa(dp1169
g2
Varvind parikh
p1170
sg4
Vsix
p1171
sg6
VArvind Parikh is having a performing career spanning over six decades.\u000a
p1172
sg8
Vspan over
p1173
sa(dp1174
g2
Varvind parikh
p1175
sg4
Vbroadcaster
p1176
sg6
VArvind Parikh is a regular broadcaster on All India Radio.\u000a
p1177
sg8
S'is a'
p1178
sa(dp1179
g2
Varvind parikh
p1180
sg4
Vregular broadcaster
p1181
sg6
VArvind Parikh is a regular broadcaster on All India Radio.\u000a
p1182
sg8
S'is a'
p1183
sa(dp1184
g2
Varvind parikh
p1185
sg4
Vall_india_radio
p1186
sg6
VArvind Parikh is a regular broadcaster on All India Radio.\u000a
p1187
sg8
Vbroadcaster on
p1188
sa(dp1189
g2
Varvind parikh
p1190
sg4
Vgrade artist
p1191
sg6
VArvind Parikh is a top grade artist and a regular broadcaster of All India Radio.\u000a
p1192
sg8
S'is a'
p1193
sa(dp1194
g2
Varvind parikh
p1195
sg4
Vartist
p1196
sg6
VArvind Parikh is a top grade artist and a regular broadcaster of All India Radio.\u000a
p1197
sg8
S'is a'
p1198
sa(dp1199
g2
Varvind parikh
p1200
sg4
Vbroadcaster
p1201
sg6
VArvind Parikh is a top grade artist and a regular broadcaster of All India Radio.\u000a
p1202
sg8
S'is a'
p1203
sa(dp1204
g2
Varvind parikh
p1205
sg4
Vtop artist
p1206
sg6
VArvind Parikh is a top grade artist and a regular broadcaster of All India Radio.\u000a
p1207
sg8
S'is a'
p1208
sa(dp1209
g2
Varvind parikh
p1210
sg4
Vregular broadcaster
p1211
sg6
VArvind Parikh is a top grade artist and a regular broadcaster of All India Radio.\u000a
p1212
sg8
S'is a'
p1213
sa(dp1214
g2
Varvind parikh
p1215
sg4
Vall_india_radio
p1216
sg6
VArvind Parikh is a top grade artist and a regular broadcaster of All India Radio.\u000a
p1217
sg8
Vbroadcaster of
p1218
sa(dp1219
g2
Varvind parikh
p1220
sg4
Vmusic
p1221
sg6
VArvind Parikh has handled the pursuits of business and music simultaneously.\u000a
p1222
sg8
Vhandle
p1223
sa(dp1224
g2
Varvind parikh
p1225
sg4
Vpursuit
p1226
sg6
VArvind Parikh has handled the pursuits of business and music simultaneously.\u000a
p1227
sg8
g1223
sa(dp1228
g2
Vvichitra veena
p1229
sg4
Vkhan ustad_abdul_aziz beenkar
p1230
sg6
VUstad Sharif Khan Poonchwala learned vichitra veena from Ustad Abdul Aziz Khan Beenkar.\u000a
p1231
sg8
Vveena from
p1232
sa(dp1233
g2
Vgharana
p1234
sg4
Vsitar
p1235
sg6
VUstad Sharif Khan Poonchwala, belongs to Poonch gharana of sitar.\u000a
p1236
sg8
Vgharana of
p1237
sa(dp1238
g2
Vsitar
p1239
sg4
Vpakistan
p1240
sg6
VUstad Sharif Khan Poonchwala played a key role in promoting the sitar in Pakistan.\u000a
p1241
sg8
Vsitar in
p1242
sa(dp1243
g2
Vvilayat khan
p1244
sg4
Vadmiration
p1245
sg6
Vyoung Jagannath not only received excellent training from Vilayat Khan but young Jagannath admiration as well.\u000a
p1246
sg8
S'is a'
p1247
sa(dp1248
g2
Vvilayat khan
p1249
sg4
Vyoung jagannath
p1250
sg6
Vyoung Jagannath not only received excellent training from Vilayat Khan but young Jagannath admiration as well.\u000a
p1251
sg8
Vadmiration 's
p1252
sa(dp1253
g2
Vbansuri guru
p1254
sg4
Vindian film
p1255
sg6
VBansuri Guru is a 2013 Indian documentary film about the life of classical instrumentalist Pandit Hariprasad Chaurasia.\u000a
p1256
sg8
S'is a'
p1257
sa(dp1258
g2
Vbansuri guru
p1259
sg4
Vdocumentary film
p1260
sg6
VBansuri Guru is a 2013 Indian documentary film about the life of classical instrumentalist Pandit Hariprasad Chaurasia.\u000a
p1261
sg8
S'is a'
p1262
sa(dp1263
g2
Vbansuri guru
p1264
sg4
V2013 film
p1265
sg6
VBansuri Guru is a 2013 Indian documentary film about the life of classical instrumentalist Pandit Hariprasad Chaurasia.\u000a
p1266
sg8
S'is a'
p1267
sa(dp1268
g2
Vbansuri guru
p1269
sg4
Vfilm
p1270
sg6
VBansuri Guru is a 2013 Indian documentary film about the life of classical instrumentalist Pandit Hariprasad Chaurasia.\u000a
p1271
sg8
S'is a'
p1272
sa(dp1273
g2
Vbansuri guru
p1274
sg4
Vlife
p1275
sg6
VBansuri Guru is a 2013 Indian documentary film about the life of classical instrumentalist Pandit Hariprasad Chaurasia.\u000a
p1276
sg8
Vfilm about
p1277
sa(dp1278
g2
Vgharana
p1279
sg4
Vjaipur-atrauli
p1280
sg6
VKesarbai Kerkar was an Indian classical vocalist of the Jaipur-Atrauli gharana.\u000a
p1281
sg8
Vgharana 's
p1282
sa(dp1283
g2
Vkalyani bondre
p1284
sg4
Vmusical family
p1285
sg6
VKalyani Bondre was born in Pune, India, into a musical family.\u000a
p1286
sg8
Vbear into
p1287
sa(dp1288
g2
Vkalyani bondre
p1289
sg4
Vpune
p1290
sg6
VKalyani Bondre was born in Pune, India, into a musical family.\u000a
p1291
sg8
Vbear in
p1292
sa(dp1293
g2
Vkalyani bondre
p1294
sg4
Vindia
p1295
sg6
VKalyani Bondre was born in Pune, India, into a musical family.\u000a
p1296
sg8
Vbear in
p1297
sa(dp1298
g2
Vsantoor
p1299
sg4
Vinstrument
p1300
sg6
VThe Santoor is a folk instrument from Kashmir and Jammu.\u000a
p1301
sg8
S'is a'
p1302
sa(dp1303
g2
Vsantoor
p1304
sg4
Vfolk instrument
p1305
sg6
VThe Santoor is a folk instrument from Kashmir and Jammu.\u000a
p1306
sg8
S'is a'
p1307
sa(dp1308
g2
Vsantoor
p1309
sg4
Vjammu
p1310
sg6
VThe Santoor is a folk instrument from Kashmir and Jammu.\u000a
p1311
sg8
Vinstrument from
p1312
sa(dp1313
g2
Vsantoor
p1314
sg4
Vkashmir
p1315
sg6
VThe Santoor is a folk instrument from Kashmir and Jammu.\u000a
p1316
sg8
Vinstrument from
p1317
sa(dp1318
g2
Vdildar hussain
p1319
sg4
Vnusrat_fateh_ali_khan
p1320
sg6
VDildar Hussain worked and toured with Nusrat Fateh Ali Khan.\u000a
p1321
sg8
Vtour with
p1322
sa(dp1323
g2
Vdildar hussain
p1324
sg4
Vtablum
p1325
sg6
VDildar Hussain learned tabla from Ustad Allah Rakha Khan.\u000a
p1326
sg8
Vlearn
p1327
sa(dp1328
g2
Vveena sahasrabuddhe
p1329
sg4
Vhindustani music
p1330
sg6
VVeena Sahasrabuddhe is a leading Indian vocalist and composer of Hindustani classical music.\u000a
p1331
sg8
Vcomposer of
p1332
sa(dp1333
g2
Vveena sahasrabuddhe
p1334
sg4
Vindian vocalist
p1335
sg6
VVeena Sahasrabuddhe is a leading Indian vocalist and composer of Hindustani classical music.\u000a
p1336
sg8
S'is a'
p1337
sa(dp1338
g2
Vveena sahasrabuddhe
p1339
sg4
Vvocalist
p1340
sg6
VVeena Sahasrabuddhe is a leading Indian vocalist and composer of Hindustani classical music.\u000a
p1341
sg8
S'is a'
p1342
sa(dp1343
g2
Vveena sahasrabuddhe
p1344
sg4
Vcomposer
p1345
sg6
VVeena Sahasrabuddhe is a leading Indian vocalist and composer of Hindustani classical music.\u000a
p1346
sg8
S'is a'
p1347
sa(dp1348
g2
Vveena sahasrabuddhe
p1349
sg4
Vlead vocalist
p1350
sg6
VVeena Sahasrabuddhe is a leading Indian vocalist and composer of Hindustani classical music.\u000a
p1351
sg8
S'is a'
p1352
sa(dp1353
g2
Vveena sahasrabuddhe
p1354
sg4
Vsinger
p1355
sg6
VVeena Sahasrabuddhe is known as a singer of khyal and bhajan.\u000a
p1356
sg8
Vknow as
p1357
sa(dp1358
g2
Vveena sahasrabuddhe
p1359
sg4
Vbhajan
p1360
sg6
VVeena Sahasrabuddhe is known as a singer of khyal and bhajan.\u000a
p1361
sg8
Vknow as
p1362
sa(dp1363
g2
Vveena sahasrabuddhe
p1364
sg4
Vmusical family
p1365
sg6
VVeena Sahasrabuddhe was born in a musical family.\u000a
p1366
sg8
Vbear in
p1367
sa(dp1368
g2
Vveena sahasrabuddhe
p1369
sg4
Vdancing
p1370
sg6
VVeena Sahasrabuddhe also learned Kathak dancing in Veena Sahasrabuddhe childhood.\u000a
p1371
sg8
Vlearn
p1372
sa(dp1373
g2
Vveena sahasrabuddhe
p1374
sg4
Vhead
p1375
sg6
VVeena Sahasrabuddhe was the Head of the Department of Music at SNDT Pune campus.\u000a
p1376
sg8
S'is a'
p1377
sa(dp1378
g2
Vveena sahasrabuddhe
p1379
sg4
Vdepartment_of_music
p1380
sg6
VVeena Sahasrabuddhe was the Head of the Department of Music at SNDT Pune campus.\u000a
p1381
sg8
Vhead of
p1382
sa(dp1383
g2
Vveena sahasrabuddhe
p1384
sg4
Vmusical performance
p1385
sg6
VVeena Sahasrabuddhe has given musical performances in India, Australia, Europe, the Middle East, and North America.\u000a
p1386
sg8
Vgive
p1387
sa(dp1388
g2
Vsantoor
p1389
sg4
Vshivkumar_sharma
p1390
sg6
VBrij Bhushan Kabra plays slide guitar, Shivkumar Sharma santoor, Chaurasia bansuri and Tabla was played by Manikrao Popatkar.\u000a
p1391
sg8
Vsantoor 's
p1392
sa(dp1393
g2
Vsuphala
p1394
sg4
Vtablum artist
p1395
sg6
VSuphala is a tabla artist, composer, and producer.\u000a
p1396
sg8
S'is a'
p1397
sa(dp1398
g2
Vsuphala
p1399
sg4
Vartist
p1400
sg6
VSuphala is a tabla artist, composer, and producer.\u000a
p1401
sg8
S'is a'
p1402
sa(dp1403
g2
Vsuphala
p1404
sg4
Vmusic
p1405
sg6
VBorn in the United States by Indian immigrant parents, Suphala has studied music in India.\u000a
p1406
sg8
Vstudy
p1407
sa(dp1408
g2
Vsuphala
p1409
sg4
Vfirst artist
p1410
sg6
VIn January 2005, Suphala was the first artist to perform in Afghanistan after the fall of the Taliban.\u000a
p1411
sg8
S'is a'
p1412
sa(dp1413
g2
Vsuphala
p1414
sg4
Vartist
p1415
sg6
VIn January 2005, Suphala was the first artist to perform in Afghanistan after the fall of the Taliban.\u000a
p1416
sg8
S'is a'
p1417
sa(dp1418
g2
Vsuphala
p1419
sg4
Vfall
p1420
sg6
VIn January 2005, Suphala was the first artist to perform in Afghanistan after the fall of the Taliban.\u000a
p1421
sg8
Vperform after
p1422
sa(dp1423
g2
Vsuphala
p1424
sg4
Vafghanistan
p1425
sg6
VIn January 2005, Suphala was the first artist to perform in Afghanistan after the fall of the Taliban.\u000a
p1426
sg8
Vperform in
p1427
sa(dp1428
g2
Vnityanand haldipur
p1429
sg4
Vperformer
p1430
sg6
VNityanand Haldipur is a performer and teacher of the Indian bamboo flute, known in India as the bansuri.\u000a
p1431
sg8
S'is a'
p1432
sa(dp1433
g2
Vnityanand haldipur
p1434
sg4
Vteacher
p1435
sg6
VNityanand Haldipur is a performer and teacher of the Indian bamboo flute, known in India as the bansuri.\u000a
p1436
sg8
S'is a'
p1437
sa(dp1438
g2
Vnityanand haldipur
p1439
sg4
Vbamboo flute
p1440
sg6
VNityanand Haldipur is a performer and teacher of the Indian bamboo flute, known in India as the bansuri.\u000a
p1441
sg8
Vteacher of
p1442
sa(dp1443
g2
Vgharana
p1444
sg4
Vmaihar
p1445
sg6
VSince 1986, Nityanand has been learning from Padma Bhushan Srimati Annapurna Devi, doyenne of the Maihar gharana.\u000a
p1446
sg8
Vgharana 's
p1447
sa(dp1448
g2
Vgharana
p1449
sg4
Vhindustani music
p1450
sg6
VPandit Jnan Prakash Ghosh was an Indian tabla player from Farukhabad gharana of Hindustani classical music and musicologist.\u000a
p1451
sg8
Vgharana of
p1452
sa(dp1453
g2
g1449
sg4
Vmusicologist
p1454
sg6
VPandit Jnan Prakash Ghosh was an Indian tabla player from Farukhabad gharana of Hindustani classical music and musicologist.\u000a
p1455
sg8
Vgharana of
p1456
sa(dp1457
g2
g1449
sg4
Vfarukhabad
p1458
sg6
VPandit Jnan Prakash Ghosh was an Indian tabla player from Farukhabad gharana of Hindustani classical music and musicologist.\u000a
p1459
sg8
Vgharana 's
p1460
sa(dp1461
g2
Vbadeji khan
p1462
sg4
Vutd
p1463
sg6
VBadeji Khan was the first son and child of Utd.\u000a
p1464
sg8
Vchild of
p1465
sa(dp1466
g2
Vbadeji khan
p1467
sg4
Vson
p1468
sg6
VBadeji Khan was the first son and child of Utd.\u000a
p1469
sg8
S'is a'
p1470
sa(dp1471
g2
Vbadeji khan
p1472
sg4
Vfirst child
p1473
sg6
VBadeji Khan was the first son and child of Utd.\u000a
p1474
sg8
S'is a'
p1475
sa(dp1476
g2
Vbadeji khan
p1477
sg4
Vfirst son
p1478
sg6
VBadeji Khan was the first son and child of Utd.\u000a
p1479
sg8
S'is a'
p1480
sa(dp1481
g2
Vbadeji khan
p1482
sg4
Vchild
p1483
sg6
VBadeji Khan was the first son and child of Utd.\u000a
p1484
sg8
S'is a'
p1485
sa(dp1486
g2
Valladiya khan
p1487
sg4
Vprospective student
p1488
sg6
VAlladiya Khan, being his fathers most prospective student.\u000a
p1489
sg8
Vbe
p1490
sa(dp1491
g2
Vbadeji khan
p1492
sg4
Vustad_nasiruddin_badeji_khan tutelage
p1493
sg6
VBadeji Khan was not able to complete Ustad Nasiruddin Badeji Khan musical tutelage due to health ailments related to Cricket.\u000a
p1494
sg8
Vcomplete
p1495
sa(dp1496
g2
Vbadeji khan
p1497
sg4
Vmusic briefly
p1498
sg6
VBadeji Khan continued learning music briefly from Ustad Nasiruddin Badeji Khan cousin, Utd.\u000a
p1499
sg8
Vlearn
p1500
sa(dp1501
g2
Vbadeji khan
p1502
sg4
Vnotable disciple
p1503
sg6
VBadeji Khan did not produce notable disciples.\u000a
p1504
sg8
Vnot produce
p1505
sa(dp1506
g2
Vgharana
p1507
sg4
Vagra
p1508
sg6
VGauhar Jan belonged to the Agra gharana.\u000a
p1509
sg8
Vgharana 's
p1510
sa(dp1511
g2
Vdayal thakur
p1512
sg4
Vvocal
p1513
sg6
VDayal Thakur provided vocals for songwriter Shania Twain album Up !.\u000a
p1514
sg8
Vprovide
p1515
sa(dp1516
g2
Vdayal thakur
p1517
sg4
Vwife
p1518
sg6
VDayal Thakur currently lives in Bombay with Dayal Thakur wife and children.\u000a
p1519
sg8
Vlive with
p1520
sa(dp1521
g2
Vdayal thakur
p1522
sg4
Vchild
p1523
sg6
VDayal Thakur currently lives in Bombay with Dayal Thakur wife and children.\u000a
p1524
sg8
Vlive with
p1525
sa(dp1526
g2
Vdayal thakur
p1527
sg4
Vbombay
p1528
sg6
VDayal Thakur currently lives in Bombay with Dayal Thakur wife and children.\u000a
p1529
sg8
Vlive in
p1530
sa(dp1531
g2
Virshad khan
p1532
sg4
Vsurbahar
p1533
sg6
VIrshad Khan is a surbahar and sitar player based in Canada.\u000a
p1534
sg8
S'is a'
p1535
sa(dp1536
g2
Virshad khan
p1537
sg4
Vsitar player
p1538
sg6
VIrshad Khan is a surbahar and sitar player based in Canada.\u000a
p1539
sg8
S'is a'
p1540
sa(dp1541
g2
Virshad khan
p1542
sg4
Vplayer
p1543
sg6
VIrshad Khan is a surbahar and sitar player based in Canada.\u000a
p1544
sg8
S'is a'
p1545
sa(dp1546
g2
Virshad khan
p1547
sg4
Vustad imrat khan
p1548
sg6
VIrshad Khan is the second son of Ustad Imrat Khan.\u000a
p1549
sg8
Vson of
p1550
sa(dp1551
g2
Virshad khan
p1552
sg4
Vsecond son
p1553
sg6
VIrshad Khan is the second son of Ustad Imrat Khan.\u000a
p1554
sg8
S'is a'
p1555
sa(dp1556
g2
Virshad khan
p1557
sg4
Vson
p1558
sg6
VIrshad Khan is the second son of Ustad Imrat Khan.\u000a
p1559
sg8
S'is a'
p1560
sa(dp1561
g2
Virshad khan
p1562
sg4
Vpure classical
p1563
sg6
VIrshad Khan performs pure classical, folk, worldbeat, and new age music.\u000a
p1564
sg8
Vperform
p1565
sa(dp1566
g2
Virshad khan
p1567
sg4
Vuniversal_academy_for_musicians
p1568
sg6
VIrshad Khan is the founder / president of Universal Academy for Musicians, based in Mississauga and Mumbai.\u000a
p1569
sg8
Vpresident of
p1570
sa(dp1571
g2
Virshad khan
p1572
sg4
Vfounder president
p1573
sg6
VIrshad Khan is the founder / president of Universal Academy for Musicians, based in Mississauga and Mumbai.\u000a
p1574
sg8
S'is a'
p1575
sa(dp1576
g2
Virshad khan
p1577
sg4
V/ president
p1578
sg6
VIrshad Khan is the founder / president of Universal Academy for Musicians, based in Mississauga and Mumbai.\u000a
p1579
sg8
S'is a'
p1580
sa(dp1581
g2
Virshad khan
p1582
sg4
Vpresident
p1583
sg6
VIrshad Khan is the founder / president of Universal Academy for Musicians, based in Mississauga and Mumbai.\u000a
p1584
sg8
S'is a'
p1585
sa(dp1586
g2
Virshad khan
p1587
sg4
Vmany recording
p1588
sg6
VIrshad Khan has many commercial recordings, which are sold worldwide.\u000a
p1589
sg8
Vhave
p1590
sa(dp1591
g2
Vgharana
p1592
sg4
Vgwalior
p1593
sg6
VHe belongs to the Gwalior gharana and the lineage of Sangeet Maharshi Pandit Vishnu Digambar Paluskar contributed to his background.\u000a
p1594
sg8
Vgharana 's
p1595
sa(dp1596
g2
Vvidyadhar vyas
p1597
sg4
Vgayanacharya_pandit_narayanrao_vyas
p1598
sg6
VVidyadhar Vyas was born in Maharashtra to Gayanacharya Pandit Narayanrao Vyas, a disciple of Pandit Paluskar.\u000a
p1599
sg8
Vbear to
p1600
sa(dp1601
g2
Vvidyadhar vyas
p1602
sg4
Vmaharashtra
p1603
sg6
VVidyadhar Vyas was born in Maharashtra to Gayanacharya Pandit Narayanrao Vyas, a disciple of Pandit Paluskar.\u000a
p1604
sg8
Vbear in
p1605
sa(dp1606
g2
Vgharana
p1607
sg4
Vpatiala
p1608
sg6
VThe Patiala gharana tends to favor pentatonic ragas for their ornamentation and execution of intricate taans.\u000a
p1609
sg8
Vgharana 's
p1610
sa(dp1611
g2
g1607
sg4
Vpentatonic raga
p1612
sg6
VThe Patiala gharana tends to favor pentatonic ragas for their ornamentation and execution of intricate taans.\u000a
p1613
sg8
Vfavor
p1614
sa(dp1615
g2
Vhiren roy
p1616
sg4
Vhiren_roy
p1617
sg6
VHiren Roy started making Hiren Roy own sitars and soon found that local musicians praised Hiren Roy work.\u000a
p1618
sg8
Vmake
p1619
sa(dp1620
g2
Vhiren roy
p1621
sg4
Vown sitar
p1622
sg6
VHiren Roy started making Hiren Roy own sitars and soon found that local musicians praised Hiren Roy work.\u000a
p1623
sg8
g1619
sa(dp1624
g2
Vhiren roy
p1625
sg4
Vdecember_1992
p1626
sg6
VHiren Roy died in December 1992, but Hiren Roy tradition has been carried on by Hiren Roy sons.\u000a
p1627
sg8
Vdie in
p1628
sa(dp1629
g2
Vraju ananthaswamy
p1630
sg4
Vtalented singer
p1631
sg6
VRaju Ananthaswamy has been the most talented singer in recent times.\u000a
p1632
sg8
Vbe
p1633
sa(dp1634
g2
Vbhaskar chandavarkar
p1635
sg4
Vpune
p1636
sg6
VBhaskar Chandavarkar also studied at Fergusson College, FTII, Pune.\u000a
p1637
sg8
Vstudy
p1638
sa(dp1639
g2
Vbhaskar chandavarkar
p1640
sg4
Vcontemporary music
p1641
sg6
VBhaskar Chandavarkar also studied contemporary Western music and jazz.\u000a
p1642
sg8
Vstudy
p1643
sa(dp1644
g2
Vbhaskar chandavarkar
p1645
sg4
Vcontemporary music
p1646
sg6
VBhaskar Chandavarkar also studied contemporary Western music and jazz.\u000a
p1647
sg8
g1643
sa(dp1648
g2
Vbhaskar chandavarkar
p1649
sg4
Vacclaim
p1650
sg6
VBhaskar Chandavarkar also received acclaim for Bhaskar Chandavarkar music for P. L. Deshpande s Marathi play Teen Paishacha Tamasha.\u000a
p1651
sg8
Vreceive
p1652
sa(dp1653
g2
Vjugalbandi
p1654
sg4
Vlead instrumentalist
p1655
sg6
VDr. Bhanu Majumdar is also known for a number of collaborations and jugalbandis with other leading instrumentalists.\u000a
p1656
sg8
Vjugalbandi with
p1657
sa(dp1658
g2
Vgayaki
p1659
sg4
Vother
p1660
sg6
VIn Dilli Gharana, Gayaki is quite different from others.\u000a
p1661
sg8
Vdifferent from
p1662
sa(dp1663
g2
Vgayaki
p1664
sg4
Vdilli_gharana
p1665
sg6
VIn Dilli Gharana, Gayaki is quite different from others.\u000a
p1666
sg8
Vdifferent in
p1667
sa(dp1668
g2
Vraga
p1669
sg4
Vfirst raginus
p1670
sg6
VThis raga appears in the Ragmala as the first ragini of Sri raga.\u000a
p1671
sg8
Vappear as
p1672
sa(dp1673
g2
g1669
sg4
Vragmala
p1674
sg6
VThis raga appears in the Ragmala as the first ragini of Sri raga.\u000a
p1675
sg8
Vappear in
p1676
sa(dp1677
g2
Vraga
p1678
sg4
Vsri
p1679
sg6
VThis raga appears in the Ragmala as the first ragini of Sri raga.\u000a
p1680
sg8
Vraga 's
p1681
sa(dp1682
g2
Vraga
p1683
sg4
Vevening
p1684
sg6
VThis raga is performed during the evening and it is currently assigned to the Marva thata.\u000a
p1685
sg8
Vperform during
p1686
sa(dp1687
g2
Vraga
p1688
sg4
Vpage
p1689
sg6
VIn the Guru Granth Sahib there are 2 pages dedicated to this raga from page 719 to 721.\u000a
p1690
sg8
Vraga from
p1691
sa(dp1692
g2
Vbandish
p1693
sg4
Vliterature element
p1694
sg6
VA bandish provides the literature element in the music, for standard structured singing.\u000a
p1695
sg8
Vprovide
p1696
sa(dp1697
g2
Vsriram parasuram
p1698
sg4
Vhindustani vocalist
p1699
sg6
VSriram Parasuram is an Hindustani classical vocalist.\u000a
p1700
sg8
S'is a'
p1701
sa(dp1702
g2
Vsriram parasuram
p1703
sg4
Vvocalist
p1704
sg6
VSriram Parasuram is an Hindustani classical vocalist.\u000a
p1705
sg8
S'is a'
p1706
sa(dp1707
g2
Vsriram parasuram
p1708
sg4
Vclassical vocalist
p1709
sg6
VSriram Parasuram is an Hindustani classical vocalist.\u000a
p1710
sg8
S'is a'
p1711
sa(dp1712
g2
Vsriram parasuram
p1713
sg4
Vviolin
p1714
sg6
VSriram Parasuram also plays the violin.\u000a
p1715
sg8
Vplay
p1716
sa(dp1717
g2
Vomkarnath thakur
p1718
sg4
Vmusic producer
p1719
sg6
VOmkarnath Thakur has taught music producers such as Sukshinder Shinda and Ram Gopal Varma to play the sarangi.\u000a
p1720
sg8
Vteach
p1721
sa(dp1722
g2
Vomkarnath thakur
p1723
sg4
Vsarangus
p1724
sg6
VOmkarnath Thakur has taught music producers such as Sukshinder Shinda and Ram Gopal Varma to play the sarangi.\u000a
p1725
sg8
Vplay
p1726
sa(dp1727
g2
Vomkarnath thakur
p1728
sg4
Vvocal
p1729
sg6
VOmkarnath Thakur contributed vocals and sarangi to Dizrhythmias first LP and Gavin Harrison s 1998 solo album Sanity & Gravity.\u000a
p1730
sg8
Vcontribute
p1731
sa(dp1732
g2
Vomkarnath thakur
p1733
sg4
Vsarangus
p1734
sg6
VOmkarnath Thakur contributed vocals and sarangi to Dizrhythmias first LP and Gavin Harrison s 1998 solo album Sanity & Gravity.\u000a
p1735
sg8
g1731
sa(dp1736
g2
Vraga
p1737
sg4
Vseries
p1738
sg6
VA raga uses a series of five or more musical notes upon which a melody is constructed.\u000a
p1739
sg8
Vuse
p1740
sa(dp1741
g2
Vraga
p1742
sg4
Vjanaka
p1743
sg6
VIn the Indian musical tradition, Janaka ragas are associated with different times of the day, or with seasons.\u000a
p1744
sg8
Vraga 's
p1745
sa(dp1746
g2
Vraga
p1747
sg4
Vparticular time
p1748
sg6
VMany Hindustani ragas are prescribed for the particular time of a day or a season.\u000a
p1749
sg8
Vprescribe for
p1750
sa(dp1751
g2
g1747
sg4
Vmany hindustani
p1752
sg6
VMany Hindustani ragas are prescribed for the particular time of a day or a season.\u000a
p1753
sg8
Vraga 's
p1754
sa(dp1755
g2
Vraga
p1756
sg4
Vits effect
p1757
sg6
VWhen performed at the suggested time, the raga has its maximum effect.\u000a
p1758
sg8
Vhave
p1759
sa(dp1760
g2
Vraga
p1761
sg4
Vjanaka
p1762
sg6
VThe result of these various influences is that there is increasing flexibility as to when Janaka ragas may be performed.\u000a
p1763
sg8
Vraga 's
p1764
sa(dp1765
g2
Vraga
p1766
sg4
Vdescend order
p1767
sg6
VThose ragas that do not follow the strict ascending or descending order of swaras are called vakra ragas.\u000a
p1768
sg8
Vnot follow
p1769
sa(dp1770
g2
g1766
sg4
Vstrict ascending
p1771
sg6
VThose ragas that do not follow the strict ascending or descending order of swaras are called vakra ragas.\u000a
p1772
sg8
g1769
sa(dp1773
g2
Vraga
p1774
sg4
Vjanaka
p1775
sg6
VThe two streams of Indian classical music, Carnatic music and Hindustani music, have independent sets of Janaka ragas.\u000a
p1776
sg8
Vraga 's
p1777
sa(dp1778
g2
Vraga
p1779
sg4
Vjanaka
p1780
sg6
VIn Carnatic music, Janaka ragas are classified as Janaka ragas and Janya ragas.\u000a
p1781
sg8
Vraga 's
p1782
sa(dp1783
g2
Vraga
p1784
sg4
Vjanaka
p1785
sg6
VIn Carnatic music, Janaka ragas are classified as Janaka ragas and Janya ragas.\u000a
p1786
sg8
Vraga 's
p1787
sa(dp1788
g2
Vraga
p1789
sg4
g1779
sg6
VIn Carnatic music, Janaka ragas are classified as Janaka ragas and Janya ragas.\u000a
p1790
sg8
Vclassify as
p1791
sa(dp1792
g2
g1789
sg4
g1784
sg6
VIn Carnatic music, Janaka ragas are classified as Janaka ragas and Janya ragas.\u000a
p1793
sg8
Vclassify as
p1794
sa(dp1795
g2
g1789
sg4
Vmusic
p1796
sg6
VIn Carnatic music, Janaka ragas are classified as Janaka ragas and Janya ragas.\u000a
p1797
sg8
Vclassify in
p1798
sa(dp1799
g2
g1789
sg4
Vjanaka
p1800
sg6
VIn Carnatic music, Janaka ragas are classified as Janaka ragas and Janya ragas.\u000a
p1801
sg8
Vraga 's
p1802
sa(dp1803
g2
Vraga
p1804
sg4
Vjanaka
p1805
sg6
VJanaka ragas are the ragas from which the Janya ragas are created.\u000a
p1806
sg8
Vraga 's
p1807
sa(dp1808
g2
Vraga
p1809
sg4
Vjanaka
p1810
sg6
VJanaka ragas are the ragas from which the Janya ragas are created.\u000a
p1811
sg8
Vraga 's
p1812
sa(dp1813
g2
Vraga
p1814
sg4
Vscheme
p1815
sg6
VJanaka ragas are grouped together using a scheme called Katapayadi sutra and are organised as Melakarta ragas.\u000a
p1816
sg8
Vuse
p1817
sa(dp1818
g2
g1814
sg4
Vjanaka
p1819
sg6
VJanaka ragas are grouped together using a scheme called Katapayadi sutra and are organised as Melakarta ragas.\u000a
p1820
sg8
Vraga 's
p1821
sa(dp1822
g2
Vraga
p1823
sg4
Vjanaka
p1824
sg6
VJanaka ragas are grouped together using a scheme called Katapayadi sutra and are organised as Melakarta ragas.\u000a
p1825
sg8
Vraga 's
p1826
sa(dp1827
g2
g1814
sg4
g1823
sg6
VJanaka ragas are grouped together using a scheme called Katapayadi sutra and are organised as Melakarta ragas.\u000a
p1828
sg8
Vorganise as
p1829
sa(dp1830
g2
Vraga
p1831
sg4
Vmelakarta
p1832
sg6
VSome Melakarta ragas are Harikambhoji, Kalyani, Kharaharapriya, Mayamalavagowla, Sankarabharanam and Bilaskhani Todi.\u000a
p1833
sg8
Vraga 's
p1834
sa(dp1835
g2
Vraga
p1836
sg4
Vjanya
p1837
sg6
VJanya ragas are derived from the Janaka ragas using a combination of the swarams from the parent raga.\u000a
p1838
sg8
Vraga 's
p1839
sa(dp1840
g2
g1836
sg4
Vraga
p1841
sg6
VJanya ragas are derived from the Janaka ragas using a combination of the swarams from the parent raga.\u000a
p1842
sg8
Vderive from
p1843
sa(dp1844
g2
g1841
sg4
Vjanya
p1845
sg6
VJanya ragas are derived from the Janaka ragas using a combination of the swarams from the parent raga.\u000a
p1846
sg8
Vraga 's
p1847
sa(dp1848
g2
g1836
sg4
Vcombination
p1849
sg6
VJanya ragas are derived from the Janaka ragas using a combination of the swarams from the parent raga.\u000a
p1850
sg8
Vuse
p1851
sa(dp1852
g2
Vraga
p1853
sg4
Vdefinite collection
p1854
sg6
VEach raga has a definite collection and orders of swaras.\u000a
p1855
sg8
Vhave
p1856
sa(dp1857
g2
g1853
sg4
Vorder
p1858
sg6
VEach raga has a definite collection and orders of swaras.\u000a
p1859
sg8
g1856
sa(dp1860
g2
Vgharana
p1861
sg4
Vsenia
p1862
sg6
VSharat Chandra Srivastava is a North Indian classical violinist of the Senia gharana.\u000a
p1863
sg8
Vgharana 's
p1864
sa(dp1865
g2
Vthumri
p1866
sg4
Vexpression
p1867
sg6
VThe Thumri is an expression of Shringar Rasa - a passionate, playful utterances of the young woman in love.\u000a
p1868
sg8
S'is a'
p1869
sa(dp1870
g2
Vthumri
p1871
sg4
Vshringar rasa
p1872
sg6
VThe Thumri is an expression of Shringar Rasa - a passionate, playful utterances of the young woman in love.\u000a
p1873
sg8
Vexpression of
p1874
sa(dp1875
g2
Vthumri
p1876
sg4
Vplayful utterance
p1877
sg6
VThe Thumri is an expression of Shringar Rasa - a passionate, playful utterances of the young woman in love.\u000a
p1878
sg8
Vexpression -
p1879
sa(dp1880
g2
Vthumri
p1881
sg4
Vpassionate
p1882
sg6
VThe Thumri is an expression of Shringar Rasa - a passionate, playful utterances of the young woman in love.\u000a
p1883
sg8
Vexpression -
p1884
sa(dp1885
g2
Vragini trivedi
p1886
sg4
Vvichitra veena
p1887
sg6
VRagini Trivedi is Indian classical musician performing on vichitra veena, sitar and jal tarang.\u000a
p1888
sg8
Vperform on
p1889
sa(dp1890
g2
Vragini trivedi
p1891
sg4
Vmusician
p1892
sg6
VRagini Trivedi is Indian classical musician performing on vichitra veena, sitar and jal tarang.\u000a
p1893
sg8
S'is a'
p1894
sa(dp1895
g2
Vragini trivedi
p1896
sg4
Vindian musician
p1897
sg6
VRagini Trivedi is Indian classical musician performing on vichitra veena, sitar and jal tarang.\u000a
p1898
sg8
S'is a'
p1899
sa(dp1900
g2
Vragini trivedi
p1901
sg4
Vclassical musician
p1902
sg6
VRagini Trivedi is Indian classical musician performing on vichitra veena, sitar and jal tarang.\u000a
p1903
sg8
S'is a'
p1904
sa(dp1905
g2
Vragini trivedi
p1906
sg4
Vindia
p1907
sg6
VRagini Trivedi was born in Kanpur, India.\u000a
p1908
sg8
Vbear in
p1909
sa(dp1910
g2
Vragini trivedi
p1911
sg4
Vkanpur
p1912
sg6
VRagini Trivedi was born in Kanpur, India.\u000a
p1913
sg8
Vbear in
p1914
sa(dp1915
g2
Vomkarnath thakur
p1916
sg4
Vground floor
p1917
sg6
VOmkarnath Thakur stayed on the ground floor.Thus aesthetics and academics of music helped refine sensibilities of the chidren.\u000a
p1918
sg8
Vstay on
p1919
sa(dp1920
g2
Vragini trivedi
p1921
sg4
Vmother
p1922
sg6
VRagini Trivedi lost Ragini Trivedi mother on April 9, 1977, and father on 17 July 1979.\u000a
p1923
sg8
Vlose
p1924
sa(dp1925
g2
Vragini trivedi
p1926
sg4
Vpursuit
p1927
sg6
VRagini Trivedi continued Ragini Trivedi pursuit of music, getting gold medal in M.Mus.\u000a
p1928
sg8
Vcontinue
p1929
sa(dp1930
g2
Vragini trivedi
p1931
sg4
Vgold medal
p1932
sg6
VRagini Trivedi continued Ragini Trivedi pursuit of music, getting gold medal in M.Mus.\u000a
p1933
sg8
Vget
p1934
sa(dp1935
g2
Vvichitra veena
p1936
sg4
Vbhopal
p1937
sg6
VVichitra Veena was first presented at Bharat Bhawan, Bhopal.\u000a
p1938
sg8
Vpresent at
p1939
sa(dp1940
g2
Vvichitra veena
p1941
sg4
Vbharat_bhawan
p1942
sg6
VVichitra Veena was first presented at Bharat Bhawan, Bhopal.\u000a
p1943
sg8
Vpresent at
p1944
sa(dp1945
g2
Vragini trivedi
p1946
sg4
Vvarious workshop
p1947
sg6
VRagini Trivedi has designed and conducted various workshops on teaching this style at Jaipur, Pune and Bhopal.\u000a
p1948
sg8
Vconduct
p1949
sa(dp1950
g2
Vragini trivedi
p1951
sg4
g1947
sg6
VRagini Trivedi has designed and conducted various workshops on teaching this style at Jaipur, Pune and Bhopal.\u000a
p1952
sg8
Vdesign
p1953
sa(dp1954
g2
Vragini trivedi
p1955
sg4
Vnotation system
p1956
sg6
VRagini Trivedi developed a new notation system, Ome Swarlipi, based on amalgamation of Bhatkhande and Paluskar notation systems.\u000a
p1957
sg8
Vdevelop
p1958
sa(dp1959
g2
Vragini trivedi
p1960
sg4
Vome_swarlipi
p1961
sg6
VRagini Trivedi developed a new notation system, Ome Swarlipi, based on amalgamation of Bhatkhande and Paluskar notation systems.\u000a
p1962
sg8
g1958
sa(dp1963
g2
Vragini trivedi
p1964
sg4
Vtheory
p1965
sg6
VRagini Trivedi writes on theory, practice and innovation in music.\u000a
p1966
sg8
Vwrite on
p1967
sa(dp1968
g2
Vragini trivedi
p1969
sg4
Vmusic
p1970
sg6
VRagini Trivedi writes on theory, practice and innovation in music.\u000a
p1971
sg8
Vwrite in
p1972
sa(dp1973
g2
Vragini trivedi
p1974
sg4
Vcapacity
p1975
sg6
VRagini Trivedi has collaborated in the creation of compendium and anthologies, in the capacity of contributor and editor.\u000a
p1976
sg8
Vcollaborate in
p1977
sa(dp1978
g2
Vragini trivedi
p1979
sg4
Vcreation
p1980
sg6
VRagini Trivedi has collaborated in the creation of compendium and anthologies, in the capacity of contributor and editor.\u000a
p1981
sg8
Vcollaborate in
p1982
sa(dp1983
g2
Vpurbayan chatterjee
p1984
sg4
Vartist tablum ustad_zakir_hussain
p1985
sg6
VPurbayan Chatterjee has performed several times with tabla artist Ustad Zakir Hussain.\u000a
p1986
sg8
Vperform with
p1987
sa(dp1988
g2
Vshankar jaikishan
p1989
sg4
Vwestern classical
p1990
sg6
VShankar Jaikishan also used the western classical - based waltz rhythm in a number of songs.\u000a
p1991
sg8
Vuse
p1992
sa(dp1993
g2
Vshankar jaikishan
p1994
sg4
Vmajor contribution
p1995
sg6
VShankar Jaikishan made a major contribution towards the development of Jazz music in India and the new genre Indo Jazz.\u000a
p1996
sg8
Vmake
p1997
sa(dp1998
g2
Vraga
p1999
sg4
Vits rule
p2000
sg6
VIn addition each raga has its natural register and portamento rules.\u000a
p2001
sg8
Vhave
p2002
sa(dp2003
g2
Vdhrupad
p2004
sg4
Vstructure
p2005
sg6
Vthe Persian created the qawwali genre, which fuses the Persian melody and beat on a dhrupad like structure.\u000a
p2006
sg8
Vdhrupad like
p2007
sa(dp2008
g2
Vvishnu digambar paluskar
p2009
sg4
V12 age
p2010
sg6
VVishnu Digambar Paluskar emerged as a talented musician and organizer despite having been blinded at age 12.\u000a
p2011
sg8
Vhave at
p2012
sa(dp2013
g2
Vvishnu digambar paluskar
p2014
sg4
Vtalented organizer
p2015
sg6
VVishnu Digambar Paluskar emerged as a talented musician and organizer despite having been blinded at age 12.\u000a
p2016
sg8
Vemerge as
p2017
sa(dp2018
g2
Vvishnu digambar paluskar
p2019
sg4
Vtalented organizer
p2020
sg6
VVishnu Digambar Paluskar emerged as a talented musician and organizer despite having been blinded at age 12.\u000a
p2021
sg8
Vemerge as
p2022
sa(dp2023
g2
Vraga
p2024
sg4
Vhindustani
p2025
sg6
VA typical rendition of Hindustani raga involves two stages :.\u000a
p2026
sg8
Vraga 's
p2027
sa(dp2028
g2
Vdhrupad
p2029
sg4
Vold style
p2030
sg6
VDhrupad is an old style of singing, traditionally performed by male singers.\u000a
p2031
sg8
S'is a'
p2032
sa(dp2033
g2
Vdhrupad
p2034
sg4
Vstyle
p2035
sg6
VDhrupad is an old style of singing, traditionally performed by male singers.\u000a
p2036
sg8
S'is a'
p2037
sa(dp2038
g2
Vdhrupad
p2039
sg4
Vsinging
p2040
sg6
VDhrupad is an old style of singing, traditionally performed by male singers.\u000a
p2041
sg8
Vstyle of
p2042
sa(dp2043
g2
Vdhrupad
p2044
sg4
Vtambura
p2045
sg6
VDhrupad is performed with a tambura and a pakhawaj as instrumental accompaniments.\u000a
p2046
sg8
Vperform with
p2047
sa(dp2048
g2
Vdhrupad
p2049
sg4
Vpakhawaj
p2050
sg6
VDhrupad is performed with a tambura and a pakhawaj as instrumental accompaniments.\u000a
p2051
sg8
Vperform with
p2052
sa(dp2053
g2
Valap
p2054
sg4
Vjhalum section
p2055
sg6
VThe alap gradually unfolds into more rhythmic jod and jhala sections.\u000a
p2056
sg8
Vunfold into
p2057
sa(dp2058
g2
Vkhyal
p2059
sg4
Vpersian music
p2060
sg6
VKhyal is a Hindustani form of vocal music, adopted from medieval the Persian music and based on Dhrupad.\u000a
p2061
sg8
Vadopt from
p2062
sa(dp2063
g2
Vkhyal
p2064
sg4
Vhindustani form
p2065
sg6
VKhyal is a Hindustani form of vocal music, adopted from medieval the Persian music and based on Dhrupad.\u000a
p2066
sg8
S'is a'
p2067
sa(dp2068
g2
Vkhyal
p2069
sg4
Vform
p2070
sg6
VKhyal is a Hindustani form of vocal music, adopted from medieval the Persian music and based on Dhrupad.\u000a
p2071
sg8
S'is a'
p2072
sa(dp2073
g2
Vkhyal
p2074
sg4
Vvocal music
p2075
sg6
VKhyal is a Hindustani form of vocal music, adopted from medieval the Persian music and based on Dhrupad.\u000a
p2076
sg8
Vform of
p2077
sa(dp2078
g2
Vkhyal
p2079
sg4
Vdhrupad
p2080
sg6
VKhyal is a Hindustani form of vocal music, adopted from medieval the Persian music and based on Dhrupad.\u000a
p2081
sg8
Vbase on
p2082
sa(dp2083
g2
Vkhyal
p2084
sg4
Veight-line lyric
p2085
sg6
VA Khyal is a two - to eight-line lyric set to a melody.\u000a
p2086
sg8
Vto
p2087
sa(dp2088
g2
Vkhyal
p2089
sg4
Vgreater embellishment
p2090
sg6
VKhyal contains a greater variety embellishments and ornamentations compared to dhrupad.\u000a
p2091
sg8
Vcontain
p2092
sa(dp2093
g2
Vkhyal
p2094
sg4
Vornamentation
p2095
sg6
VKhyal contains a greater variety embellishments and ornamentations compared to dhrupad.\u000a
p2096
sg8
g2092
sa(dp2097
g2
Vraga
p2098
sg4
Vkhyal
p2099
sg6
VThe singer improvises and finds inspiration within the raga to depict the Khyal.\u000a
p2100
sg8
Vdepict
p2101
sa(dp2102
g2
Vraga
p2103
sg4
Vflash
p2104
sg6
VRashid Khan embellishes the modal form of the ragas with flashes of gamaks, bol-taans and sargams.\u000a
p2105
sg8
Vraga with
p2106
sa(dp2107
g2
Venayat khan
p2108
sg4
Vfamily
p2109
sg6
VEnayat Khan was born in Uttar Pradesh into a family of musicians.\u000a
p2110
sg8
Vbear into
p2111
sa(dp2112
g2
Venayat khan
p2113
sg4
Vuttar_pradesh
p2114
sg6
VEnayat Khan was born in Uttar Pradesh into a family of musicians.\u000a
p2115
sg8
Vbear in
p2116
sa(dp2117
g2
Venayat khan
p2118
sg4
Vfour
p2119
sg6
VEnayat Khan died young, with four children.\u000a
p2120
sg8
Vdie with
p2121
sa(dp2122
g2
Vraga
p2123
sg4
Vlaya tempo
p2124
sg6
VThe slow melodic development of the raga in Vilambit laya slow tempo was the most characteristic aspect of Miraj music.\u000a
p2125
sg8
Vraga in
p2126
sa(dp2127
g2
Vgharana
p2128
sg4
Vgwalior
p2129
sg6
VRambhau Kundagolkar was also influenced by Rehmet Khan of the Gwalior gharana and adopted the direct style of presentation.\u000a
p2130
sg8
Vgharana 's
p2131
sa(dp2132
g2
Vgharana
p2133
sg4
Vbanaras
p2134
sg6
VGirija Devi is an Indian classical singer of the Banaras gharana.\u000a
p2135
sg8
Vgharana 's
p2136
sa(dp2137
g2
Vgirija devi
p2138
sg4
V2009
p2139
sg6
VGirija Devi often toured and continues to perform in 2009.\u000a
p2140
sg8
Vperform in
p2141
sa(dp2142
g2
Vsipra bose
p2143
sg4
Vkolkata
p2144
sg6
VSipra Bose was a noted singer in the Hindustani classical music tradition from Kolkata, India.\u000a
p2145
sg8
Vsinger from
p2146
sa(dp2147
g2
Vsipra bose
p2148
sg4
Vindia
p2149
sg6
VSipra Bose was a noted singer in the Hindustani classical music tradition from Kolkata, India.\u000a
p2150
sg8
Vsinger from
p2151
sa(dp2152
g2
Vsipra bose
p2153
sg4
Vclassical tradition
p2154
sg6
VSipra Bose was a noted singer in the Hindustani classical music tradition from Kolkata, India.\u000a
p2155
sg8
Vsinger in
p2156
sa(dp2157
g2
Vsipra bose
p2158
sg4
Vnoted singer
p2159
sg6
VSipra Bose was a noted singer in the Hindustani classical music tradition from Kolkata, India.\u000a
p2160
sg8
S'is a'
p2161
sa(dp2162
g2
Vsipra bose
p2163
sg4
Vsinger
p2164
sg6
VSipra Bose was a noted singer in the Hindustani classical music tradition from Kolkata, India.\u000a
p2165
sg8
S'is a'
p2166
sa(dp2167
g2
Vsipra bose
p2168
sg4
Vrendering
p2169
sg6
VSipra Bose is noted for Sipra Bose rendering of light classical songs in Bengali.\u000a
p2170
sg8
Vnote for
p2171
sa(dp2172
g2
Vsipra bose
p2173
sg4
Vnaina_devi
p2174
sg6
VSipra Bose also worked with Naina Devi of the Benaras gharana and Pandit Ravi Shankar.\u000a
p2175
sg8
Vwork with
p2176
sa(dp2177
g2
Vgharana
p2178
sg4
Vbenaras
p2179
sg6
VSipra Bose also worked with Naina Devi of the Benaras gharana and Pandit Ravi Shankar.\u000a
p2180
sg8
Vgharana 's
p2181
sa(dp2182
g2
Vsipra bose
p2183
sg4
Vapril_22_,_2008
p2184
sg6
VSipra Bose died from a heart attack in Kolkata on April 22, 2008.\u000a
p2185
sg8
Vdie on
p2186
sa(dp2187
g2
Vsipra bose
p2188
sg4
Vheart attack
p2189
sg6
VSipra Bose died from a heart attack in Kolkata on April 22, 2008.\u000a
p2190
sg8
Vdie from
p2191
sa(dp2192
g2
Valladiya khan
p2193
sg4
Vcourt musician
p2194
sg6
VAlladiya Khan migrated to the court of Shahu Maharaj in Kolhapuri and became Ghulam Ahmad Alladiya Khan court musician.\u000a
p2195
sg8
Vbecome
p2196
sa(dp2197
g2
Valladiya khan
p2198
sg4
Vcourt
p2199
sg6
VAlladiya Khan migrated to the court of Shahu Maharaj in Kolhapuri and became Ghulam Ahmad Alladiya Khan court musician.\u000a
p2200
sg8
Vmigrate to
p2201
sa(dp2202
g2
Vmeend
p2203
sg4
Vgayakus
p2204
sg6
VThe Meend of Ghulam Ahmad Alladiya Khan gayaki can be traced to this influence.\u000a
p2205
sg8
Vmeend of
p2206
sa(dp2207
g2
g2203
sg4
Vinfluence
p2208
sg6
VThe Meend of Ghulam Ahmad Alladiya Khan gayaki can be traced to this influence.\u000a
p2209
sg8
Vtrace to
p2210
sa(dp2211
g2
Vmeend
p2212
sg4
Vhis gayakus
p2213
sg6
VThe Meend of his gayaki was known to have been greatly influenced by Utd.\u000a
p2214
sg8
Vmeend of
p2215
sa(dp2216
g2
Vmeend
p2217
sg4
Vaalap
p2218
sg6
VMeend in aalap and gamak in taan are the hallmark of this gayaki.\u000a
p2219
sg8
Vin
p2220
sa(dp2221
g2
Vmeend
p2222
sg4
Vgamak
p2223
sg6
VMeend in aalap and gamak in taan are the hallmark of this gayaki.\u000a
p2224
sg8
S'is a'
p2225
sa(dp2226
g2
Vmeend
p2227
sg4
Vhallmark
p2228
sg6
VMeend in aalap and gamak in taan are the hallmark of this gayaki.\u000a
p2229
sg8
S'is a'
p2230
sa(dp2231
g2
Vmeend
p2232
sg4
Vgayakus
p2233
sg6
VMeend in aalap and gamak in taan are the hallmark of this gayaki.\u000a
p2234
sg8
Vhallmark of
p2235
sa(dp2236
g2
Vmeend
p2237
sg4
Vtaan
p2238
sg6
VMeend in aalap and gamak in taan are the hallmark of this gayaki.\u000a
p2239
sg8
Vgamak in
p2240
sa(dp2241
g2
Vgharana
p2242
sg4
Vjaipur-atrauli
p2243
sg6
VShruti Sadolikar Katkar is an Indian classical singer of the khyal style in the Jaipur-Atrauli gharana.\u000a
p2244
sg8
Vgharana 's
p2245
sa(dp2246
g2
Vwamanrao sadolikar
p2247
sg4
Vindian movie
p2248
sg6
VWamanrao Sadolikar has regularly performed playback for Indian movies.\u000a
p2249
sg8
Vperform for
p2250
sa(dp2251
g2
Vwamanrao sadolikar
p2252
sg4
Vvice chancellor
p2253
sg6
VWamanrao Sadolikar works as Vice Chancellor of the Bhatkhande Music Institute University in Lucknow, Uttar Pradesh.\u000a
p2254
sg8
Vwork as
p2255
sa(dp2256
g2
Vbhajan sopori
p2257
sg4
Vindian instrumentalist
p2258
sg6
VBhajan Sopori is an Indian instrumentalist.\u000a
p2259
sg8
S'is a'
p2260
sa(dp2261
g2
Vbhajan sopori
p2262
sg4
Vinstrumentalist
p2263
sg6
VBhajan Sopori is an Indian instrumentalist.\u000a
p2264
sg8
S'is a'
p2265
sa(dp2266
g2
Vgharana
p2267
sg4
Vindian music
p2268
sg6
VSoporis son Abhay Rustum Sopori belongs to the Sufiana gharana of Indian classical music.\u000a
p2269
sg8
Vgharana of
p2270
sa(dp2271
g2
g2267
sg4
Vsufiana
p2272
sg6
VSoporis son Abhay Rustum Sopori belongs to the Sufiana gharana of Indian classical music.\u000a
p2273
sg8
Vgharana 's
p2274
sa(dp2275
g2
Vsangeetha katti
p2276
sg4
Vclassical vocalist
p2277
sg6
VSangeetha Katti popularly known as Sangeetha Katti is a Hindustani classical vocalist in India.\u000a
p2278
sg8
S'is a'
p2279
sa(dp2280
g2
Vsangeetha katti
p2281
sg4
Vvocalist
p2282
sg6
VSangeetha Katti popularly known as Sangeetha Katti is a Hindustani classical vocalist in India.\u000a
p2283
sg8
S'is a'
p2284
sa(dp2285
g2
Vsangeetha katti
p2286
sg4
Vsangeetha_katti
p2287
sg6
VSangeetha Katti popularly known as Sangeetha Katti is a Hindustani classical vocalist in India.\u000a
p2288
sg8
Vknow as
p2289
sa(dp2290
g2
Vsangeetha katti
p2291
sg4
Vhindustani
p2292
sg6
VSangeetha Katti popularly known as Sangeetha Katti is a Hindustani classical vocalist in India.\u000a
p2293
sg8
Vvocalist 's
p2294
sa(dp2295
g2
Vsangeetha katti
p2296
sg4
Vindia
p2297
sg6
VSangeetha Katti popularly known as Sangeetha Katti is a Hindustani classical vocalist in India.\u000a
p2298
sg8
Vvocalist in
p2299
sa(dp2300
g2
Vakhtar sadmani
p2301
sg4
Vsevere heart-attack
p2302
sg6
VAkhtar Sadmani suffered a severe heart-attack and died on 30 December 2003.\u000a
p2303
sg8
Vsuffer
p2304
sa(dp2305
g2
Vakhtar sadmani
p2306
sg4
V30_december_2003
p2307
sg6
VAkhtar Sadmani suffered a severe heart-attack and died on 30 December 2003.\u000a
p2308
sg8
Vdie on
p2309
sa(dp2310
g2
Vraga
p2311
sg4
Vthat
p2312
sg6
VThe raga does not fit into any of Bhatkhande s thats and so its origin is uncertain.\u000a
p2313
sg8
Vs
p2314
sa(dp2315
g2
Vraga
p2316
sg4
Vvarious name
p2317
sg6
VHowever, the raga has various names across India.\u000a
p2318
sg8
Vhave
p2319
sa(dp2320
g2
Vraga
p2321
sg4
Vcarnatic music
p2322
sg6
VIn Carnatic Music, the raga is called Raga Vaasanthi.\u000a
p2323
sg8
Vcall in
p2324
sa(dp2325
g2
Vraga
p2326
sg4
Vraga
p2327
sg6
VThe Raga is a morning raga.\u000a
p2328
sg8
S'is a'
p2329
sa(dp2330
g2
Vraga
p2331
sg4
Vmorning raga
p2332
sg6
VThe Raga is a morning raga.\u000a
p2333
sg8
S'is a'
p2334
sa(dp2335
g2
Vgharana
p2336
sg4
Vagra
p2337
sg6
VLalith J. Rao is an Indian classical singer and a representative of the Agra gharana.\u000a
p2338
sg8
Vgharana 's
p2339
sa(dp2340
g2
Vusha parkhi
p2341
sg4
Vdoctorate
p2342
sg6
VUsha Parkhi has a doctorate in music from Gandharva Mahavidyalaya.\u000a
p2343
sg8
Vhave
p2344
sa(dp2345
g2
Vnico
p2346
sg4
Vinfluence
p2347
sg6
VNatasha Khan has quoted Nico as an influence in particular Desertshore.\u000a
p2348
sg8
Vquote
p2349
sa(dp2350
g2
Vnico
p2351
sg4
Veeko
p2352
sg6
VMystery Incorporated episode Art of Darkness featured a parody of Nico Blue partly after Nico named Eeko.\u000a
p2353
sg8
Vname
p2354
sa(dp2355
g2
Vdildar hussain
p2356
sg4
Vtablum
p2357
sg6
VDildar Hussain learned tabla from Ustad Allah Rakha Khan.\u000a
p2358
sg8
Vlearn
p2359
sa(dp2360
g2
Vgharana
p2361
sg4
Vindian music
p2362
sg6
VBhatkhande visited many of the gharanas of North Indian classical music, conducting a detailed analysis of Indian raga.\u000a
p2363
sg8
Vgharana of
p2364
sa(dp2365
g2
Vraga
p2366
sg4
Vnight
p2367
sg6
VRagas are normally ascribed to certain periods of the day and night.\u000a
p2368
sg8
Vascribe to
p2369
sa(dp2370
g2
g2366
sg4
Vcertain period
p2371
sg6
VRagas are normally ascribed to certain periods of the day and night.\u000a
p2372
sg8
Vascribe to
p2373
sa(dp2374
g2
Vgharana
p2375
sg4
Vgwalior
p2376
sg6
VHe studied under Gwalior gharana with Balakrishnabuwa Ichalkaranjikar.\u000a
p2377
sg8
Vgharana 's
p2378
sa(dp2379
g2
g2375
sg4
Vbalakrishnabuwa ichalkaranjikar
p2380
sg6
VHe studied under Gwalior gharana with Balakrishnabuwa Ichalkaranjikar.\u000a
p2381
sg8
Vgharana with
p2382
sa(dp2383
g2
Vzeelaf
p2384
sg4
Vraga
p2385
sg6
VZeelaf is a raga in Hindustani classical music.\u000a
p2386
sg8
S'is a'
p2387
sa(dp2388
g2
Vzeelaf
p2389
sg4
Vhindustani music
p2390
sg6
VZeelaf is a raga in Hindustani classical music.\u000a
p2391
sg8
Vraga in
p2392
sa(dp2393
g2
Vraga
p2394
sg4
Vnote
p2395
sg6
VGenerally, a raga involves notes from three saptaks.\u000a
p2396
sg8
Vinvolve
p2397
sa(dp2398
g2
Vbudhaditya mukherjee
p2399
sg4
Vsitar
p2400
sg6
VBudhaditya Mukherjee is a Hindustani classical sitar and surbahar player of the Imdadkhani Gharana.\u000a
p2401
sg8
S'is a'
p2402
sa(dp2403
g2
Vbudhaditya mukherjee
p2404
sg4
Vplayer
p2405
sg6
VBudhaditya Mukherjee is a Hindustani classical sitar and surbahar player of the Imdadkhani Gharana.\u000a
p2406
sg8
S'is a'
p2407
sa(dp2408
g2
Vbudhaditya mukherjee
p2409
sg4
Vclassical sitar
p2410
sg6
VBudhaditya Mukherjee is a Hindustani classical sitar and surbahar player of the Imdadkhani Gharana.\u000a
p2411
sg8
S'is a'
p2412
sa(dp2413
g2
Vbudhaditya mukherjee
p2414
sg4
Vsurbahar player
p2415
sg6
VBudhaditya Mukherjee is a Hindustani classical sitar and surbahar player of the Imdadkhani Gharana.\u000a
p2416
sg8
S'is a'
p2417
sa(dp2418
g2
Vbudhaditya mukherjee
p2419
sg4
Vhindustani
p2420
sg6
VBudhaditya Mukherjee is a Hindustani classical sitar and surbahar player of the Imdadkhani Gharana.\u000a
p2421
sg8
Vplayer 's
p2422
sa(dp2423
g2
Vbudhaditya mukherjee
p2424
sg4
Vimdadkhani gharana
p2425
sg6
VBudhaditya Mukherjee is a Hindustani classical sitar and surbahar player of the Imdadkhani Gharana.\u000a
p2426
sg8
Vsitar of
p2427
sa(dp2428
g2
Vbudhaditya mukherjee
p2429
sg4
Vdoctorate
p2430
sg6
VBudhaditya Mukherjee holds a doctorate in metallurgical engineering.\u000a
p2431
sg8
Vhold
p2432
sa(dp2433
g2
Vraga
p2434
sg4
Vmayamalavagowla
p2435
sg6
VThis raga corresponds to Mayamalavagowla in Carnatic music.\u000a
p2436
sg8
Vcorrespond to
p2437
sa(dp2438
g2
g2434
sg4
Vmusic
p2439
sg6
VThis raga corresponds to Mayamalavagowla in Carnatic music.\u000a
p2440
sg8
Vcorrespond in
p2441
sa(dp2442
g2
Vektara
p2443
sg4
Vinstrument
p2444
sg6
VEktara is a one-string instrument most often used in traditional music from Bangladesh, India, Egypt, and Pakistan.\u000a
p2445
sg8
S'is a'
p2446
sa(dp2447
g2
Vektara
p2448
sg4
Vone-string instrument
p2449
sg6
VEktara is a one-string instrument most often used in traditional music from Bangladesh, India, Egypt, and Pakistan.\u000a
p2450
sg8
S'is a'
p2451
sa(dp2452
g2
Vektara
p2453
sg4
Vtraditional music
p2454
sg6
VEktara is a one-string instrument most often used in traditional music from Bangladesh, India, Egypt, and Pakistan.\u000a
p2455
sg8
Vuse in
p2456
sa(dp2457
g2
Vektara
p2458
sg4
Vpakistan
p2459
sg6
VEktara is a one-string instrument most often used in traditional music from Bangladesh, India, Egypt, and Pakistan.\u000a
p2460
sg8
Vuse in
p2461
sa(dp2462
g2
Velectric sitar
p2463
sg4
Vstring
p2464
sg6
VSome electric sitars have drone strings in lieu of sympathetic strings.\u000a
p2465
sg8
Vdrone
p2466
sa(dp2467
g2
Vajrara gharana
p2468
sg4
Vajrada
p2469
sg6
VAjrara gharana or Ajrada gharana is one of the six main traditional schools in tabla drum.\u000a
p2470
sg8
Vgharana 's
p2471
sa(dp2472
g2
Vajrara gharana
p2473
sg4
Vgharana
p2474
sg6
VAjrara gharana or Ajrada gharana is one of the six main traditional schools in tabla drum.\u000a
p2475
sg8
S'is a'
p2476
sa(dp2477
g2
Vgharana
p2478
sg4
Vdelhi_gharana
p2479
sg6
VThis Gharana is an offshoot of the Delhi Gharana.\u000a
p2480
sg8
Voffshoot of
p2481
sa(dp2482
g2
Vgharana
p2483
sg4
Voffshoot
p2484
sg6
VThis Gharana is an offshoot of the Delhi Gharana.\u000a
p2485
sg8
S'is a'
p2486
sa(dp2487
g2
Vvichitra veena
p2488
sg4
Vform
p2489
sg6
VThe Vichitra Veena is the modern form of ancient Ektantri Veena.\u000a
p2490
sg8
S'is a'
p2491
sa(dp2492
g2
Vvichitra veena
p2493
sg4
Vmodern form
p2494
sg6
VThe Vichitra Veena is the modern form of ancient Ektantri Veena.\u000a
p2495
sg8
S'is a'
p2496
sa(dp2497
g2
Vvichitra veena
p2498
sg4
Vancient ektantri_veena
p2499
sg6
VThe Vichitra Veena is the modern form of ancient Ektantri Veena.\u000a
p2500
sg8
Vform of
p2501
sa(dp2502
g2
Vvilayat khan
p2503
sg4
Vunique gat
p2504
sg6
VOn the 15th day Vilayat Khan played a unique Gat whose joda Ustad Salari Khansaheb could not produce.\u000a
p2505
sg8
Vplay
p2506
sa(dp2507
g2
Vfarukhabad gharana
p2508
sg4
Vgharana
p2509
sg6
VThe Farukhabad Gharana is the oldest gharana of Tabla.\u000a
p2510
sg8
S'is a'
p2511
sa(dp2512
g2
Vfarukhabad gharana
p2513
sg4
Voldest gharana
p2514
sg6
VThe Farukhabad Gharana is the oldest gharana of Tabla.\u000a
p2515
sg8
S'is a'
p2516
sa(dp2517
g2
Vfarukhabad gharana
p2518
sg4
Vtabla
p2519
sg6
VThe Farukhabad Gharana is the oldest gharana of Tabla.\u000a
p2520
sg8
Vgharana of
p2521
sa(dp2522
g2
Vgharana
p2523
sg4
Vfarukhabad
p2524
sg6
VThe playing style of the Farukhabad gharana contains similarities to its strong, resonant sounds.\u000a
p2525
sg8
Vgharana 's
p2526
sa(dp2527
g2
Vshahid parvez
p2528
sg4
Vsabha
p2529
sg6
VShahid Parvez performed and supported the sabha.\u000a
p2530
sg8
Vsupport
p2531
sa(dp2532
g2
Vshubhendra shankar
p2533
sg4
Vrigorous training
p2534
sg6
VShubhendra Shankar had rigorous training in Sitar under the tutelage of virtuoso Sitar maestro Ravi Shankar mother.\u000a
p2535
sg8
Vhave
p2536
sa(dp2537
g2
Vraga
p2538
sg4
Vswara
p2539
sg6
VIn Indian classical music, Sampurna ragas have all seven swaras in their scale.\u000a
p2540
sg8
Vhave
p2541
sa(dp2542
g2
g2539
sg4
Vtheir scale
p2543
sg6
VIn Indian classical music, Sampurna ragas have all seven swaras in their scale.\u000a
p2544
sg8
Vswara in
p2545
sa(dp2546
g2
g2538
sg4
Vsampurna
p2547
sg6
VIn Indian classical music, Sampurna ragas have all seven swaras in their scale.\u000a
p2548
sg8
Vraga 's
p2549
sa(dp2550
g2
Vswara
p2551
sg4
Vavarohana
p2552
sg6
VIn general, the swaras in the Arohana and Avarohana strictly follow the ascending and descending scale as well.\u000a
p2553
sg8
Vswara in
p2554
sa(dp2555
g2
g2551
sg4
Varohana
p2556
sg6
VIn general, the swaras in the Arohana and Avarohana strictly follow the ascending and descending scale as well.\u000a
p2557
sg8
Vswara in
p2558
sa(dp2559
g2
g2551
sg4
Vdescend scale
p2560
sg6
VIn general, the swaras in the Arohana and Avarohana strictly follow the ascending and descending scale as well.\u000a
p2561
sg8
Vfollow
p2562
sa(dp2563
g2
g2551
sg4
Vascending
p2564
sg6
VIn general, the swaras in the Arohana and Avarohana strictly follow the ascending and descending scale as well.\u000a
p2565
sg8
g2562
sa(dp2566
g2
Vswara
p2567
sg4
Vswara phrase
p2568
sg6
VThat is, the swaras in the Arohana and Avarohana do not have vakra swara phrases.\u000a
p2569
sg8
Vnot vakra
p2570
sa(dp2571
g2
g2567
sg4
Vavarohana
p2572
sg6
VThat is, the swaras in the Arohana and Avarohana do not have vakra swara phrases.\u000a
p2573
sg8
Vswara in
p2574
sa(dp2575
g2
g2567
sg4
Varohana
p2576
sg6
VThat is, the swaras in the Arohana and Avarohana do not have vakra swara phrases.\u000a
p2577
sg8
Vswara in
p2578
sa(dp2579
g2
Vraga
p2580
sg4
Vmelakarta
p2581
sg6
VSome examples of Melakarta ragas are Mayamalavagowla, Todi, Sankarabharanam and Kharaharapriya.\u000a
p2582
sg8
Vraga 's
p2583
sa(dp2584
g2
Vpannalal ghosh
p2585
sg4
Vbansuri
p2586
sg6
VPannalal Ghosh elevated the Bansuri from a folk instrument to the stage of serious classical music.\u000a
p2587
sg8
Velevate
p2588
sa(dp2589
g2
Vjayateerth mevundi
p2590
sg4
V1972
p2591
sg6
VJayateerth Mevundi, born in 1972, is a Hindustani classical vocalist of the Kirana Gharana.\u000a
p2592
sg8
Vbear in
p2593
sa(dp2594
g2
Vjayateerth mevundi
p2595
sg4
Vkirana_gharana
p2596
sg6
VJayateerth Mevundi, born in 1972, is a Hindustani classical vocalist of the Kirana Gharana.\u000a
p2597
sg8
Vvocalist of
p2598
sa(dp2599
g2
Vjayateerth mevundi
p2600
sg4
Vhindustani vocalist
p2601
sg6
VJayateerth Mevundi, born in 1972, is a Hindustani classical vocalist of the Kirana Gharana.\u000a
p2602
sg8
S'is a'
p2603
sa(dp2604
g2
Vjayateerth mevundi
p2605
sg4
Vvocalist
p2606
sg6
VJayateerth Mevundi, born in 1972, is a Hindustani classical vocalist of the Kirana Gharana.\u000a
p2607
sg8
S'is a'
p2608
sa(dp2609
g2
Vjayateerth mevundi
p2610
sg4
Vclassical vocalist
p2611
sg6
VJayateerth Mevundi, born in 1972, is a Hindustani classical vocalist of the Kirana Gharana.\u000a
p2612
sg8
S'is a'
p2613
sa(dp2614
g2
Vjayateerth mevundi
p2615
sg4
V1972
p2616
sg6
VJayateerth Mevundi, born in 1972 is widely recognized as one of the leading performers in this gharana.\u000a
p2617
sg8
Vbear in
p2618
sa(dp2619
g2
Vjayateerth mevundi
p2620
sg4
Vone
p2621
sg6
VJayateerth Mevundi, born in 1972 is widely recognized as one of the leading performers in this gharana.\u000a
p2622
sg8
Vrecognize as
p2623
sa(dp2624
g2
Vjayateerth mevundi
p2625
sg4
Vhubli
p2626
sg6
VJayateerth Mevundi hails from Hubli in North Karnataka.\u000a
p2627
sg8
Vhail from
p2628
sa(dp2629
g2
Vjayateerth mevundi
p2630
sg4
Vnorth_karnataka
p2631
sg6
VJayateerth Mevundi hails from Hubli in North Karnataka.\u000a
p2632
sg8
Vhail in
p2633
sa(dp2634
g2
Vgharana
p2635
sg4
Vbenares
p2636
sg6
VIn 1964, Chandrakant Kamat became a Gandabandhan disciple of Samta Prasad of the Benares gharana.\u000a
p2637
sg8
Vgharana 's
p2638
sa(dp2639
g2
Vsanjoy bandopadhyay
p2640
sg4
Vplayer
p2641
sg6
VSanjoy Bandopadhyay is a Bengali Hindustani classical sitar player.\u000a
p2642
sg8
S'is a'
p2643
sa(dp2644
g2
Vsanjoy bandopadhyay
p2645
sg4
Vsitar player
p2646
sg6
VSanjoy Bandopadhyay is a Bengali Hindustani classical sitar player.\u000a
p2647
sg8
S'is a'
p2648
sa(dp2649
g2
Vsanjoy bandopadhyay
p2650
sg4
Vclassical player
p2651
sg6
VSanjoy Bandopadhyay is a Bengali Hindustani classical sitar player.\u000a
p2652
sg8
S'is a'
p2653
sa(dp2654
g2
Vsanjoy bandopadhyay
p2655
sg4
Vbengali hindustani
p2656
sg6
VSanjoy Bandopadhyay is a Bengali Hindustani classical sitar player.\u000a
p2657
sg8
Vplayer 's
p2658
sa(dp2659
g2
Vesraj
p2660
sg4
Vaccompanying instrument
p2661
sg6
VThe esraj is mostly used as an accompanying instrument.\u000a
p2662
sg8
Vuse as
p2663
sa(dp2664
g2
Vesraj
p2665
sg4
Vmany decade
p2666
sg6
VBoth the dilruba and the esraj had been declining in popularity for many decades.\u000a
p2667
sg8
Vdecline for
p2668
sa(dp2669
g2
g2665
sg4
Vpopularity
p2670
sg6
VBoth the dilruba and the esraj had been declining in popularity for many decades.\u000a
p2671
sg8
Vdecline in
p2672
sa(dp2673
g2
Vswara
p2674
sg4
Vmusic notation
p2675
sg6
VIts structure using swaras in Carnatic music notation is as follows.\u000a
p2676
sg8
Vuse in
p2677
sa(dp2678
g2
Vshivaranjani
p2679
sg4
Vscale
p2680
sg6
VThe Carnatic scale Shivaranjani has vakra prayoga and The Carnatic scale Shivaranjani scale is as follows.\u000a
p2681
sg8
Vvakra
p2682
sa(dp2683
g2
Vshivaranjani
p2684
sg4
Vprayoga
p2685
sg6
VThe Carnatic scale Shivaranjani has vakra prayoga and The Carnatic scale Shivaranjani scale is as follows.\u000a
p2686
sg8
g2682
sa(dp2687
g2
Vshivaranjani
p2688
sg4
Vscale
p2689
sg6
VThe Carnatic scale Shivaranjani has vakra prayoga and The Carnatic scale Shivaranjani scale is as follows.\u000a
p2690
sg8
g2682
sa(dp2691
g2
Vrampur-sahaswan gharana
p2692
sg4
Vhindustani music
p2693
sg6
VShanno Khurana is a noted Indian classical vocalist and composer, from the Rampur-Sahaswan gharana of Hindustani classical music.\u000a
p2694
sg8
Vgharana of
p2695
sa(dp2696
g2
Vshubha mudgal
p2697
sg4
Vmovement
p2698
sg6
VShubha Mudgal is also close to movements like ANHAD and SAHMAT.\u000a
p2699
sg8
Vclose to
p2700
sa(dp2701
g2
Vshubha mudgal
p2702
sg4
Vnew_delhi
p2703
sg6
VShubha Mudgal moved to New Delhi, and enrolled at the Delhi University.\u000a
p2704
sg8
Vmove to
p2705
sa(dp2706
g2
Vshubha mudgal
p2707
sg4
Vdelhi_university
p2708
sg6
VShubha Mudgal moved to New Delhi, and enrolled at the Delhi University.\u000a
p2709
sg8
Venrol at
p2710
sa(dp2711
g2
Vshubha mudgal
p2712
sg4
Vmusical education
p2713
sg6
VShubha Mudgal continued Shubha Mudgal musical education under Pandit Vinaya Chandra Mudgalya at the urging of Shubha Mudgal first guru.\u000a
p2714
sg8
Vcontinue
p2715
sa(dp2716
g2
Vshubha mudgal
p2717
sg4
Vother form
p2718
sg6
VIn the 1990s, Shubha Mudgal started experimenting with other forms of music, including pop and fusion varieties.\u000a
p2719
sg8
Vexperiment with
p2720
sa(dp2721
g2
Vshubha mudgal
p2722
sg4
V1990
p2723
sg6
VIn the 1990s, Shubha Mudgal started experimenting with other forms of music, including pop and fusion varieties.\u000a
p2724
sg8
Vexperiment in
p2725
sa(dp2726
g2
Vshubha mudgal
p2727
sg4
Vmarried aneesh pradhan
p2728
sg6
VShubha Mudgal however got divorced from him, and married Aneesh Pradhan.\u000a
p2729
sg8
Vdivorce from
p2730
sa(dp2731
g2
Vshubha mudgal
p2732
sg4
Vhe
p2733
sg6
VShubha Mudgal however got divorced from him, and married Aneesh Pradhan.\u000a
p2734
sg8
Vdivorce from
p2735
sa(dp2736
g2
Vbhopali
p2737
sg4
Vclassical raga
p2738
sg6
VBhopali, also known as Bhoop, Bhoop or Bhupali, is a Hindustani classical raga.\u000a
p2739
sg8
S'is a'
p2740
sa(dp2741
g2
Vbhopali
p2742
sg4
Vraga
p2743
sg6
VBhopali, also known as Bhoop, Bhoop or Bhupali, is a Hindustani classical raga.\u000a
p2744
sg8
S'is a'
p2745
sa(dp2746
g2
Vbhopali
p2747
sg4
Vbhoop
p2748
sg6
VBhopali, also known as Bhoop, Bhoop or Bhupali, is a Hindustani classical raga.\u000a
p2749
sg8
Vknow as
p2750
sa(dp2751
g2
Vbhopali
p2752
sg4
Vhindustani
p2753
sg6
VBhopali, also known as Bhoop, Bhoop or Bhupali, is a Hindustani classical raga.\u000a
p2754
sg8
Vraga 's
p2755
sa(dp2756
g2
Vswara
p2757
sg4
Vmandra saptak
p2758
sg6
VA swara immediately followed by 1 indicates the mandra saptak and indicates the taar saptak.\u000a
p2759
sg8
Vindicate
p2760
sa(dp2761
g2
g2757
sg4
Vtaar saptak
p2762
sg6
VA swara immediately followed by 1 indicates the mandra saptak and indicates the taar saptak.\u000a
p2763
sg8
Vindicate
p2764
sa(dp2765
g2
Vpremadasa hegoda
p2766
sg4
Vsri_lankan sitarist
p2767
sg6
VPremadasa Hegoda is a Sri Lankan sitarist.\u000a
p2768
sg8
S'is a'
p2769
sa(dp2770
g2
Vpremadasa hegoda
p2771
sg4
Vsitarist
p2772
sg6
VPremadasa Hegoda is a Sri Lankan sitarist.\u000a
p2773
sg8
S'is a'
p2774
sa(dp2775
g2
Vpremadasa hegoda
p2776
sg4
V1974
p2777
sg6
VPremadasa Hegoda has lived in Japan since 1974.\u000a
p2778
sg8
Vlive since
p2779
sa(dp2780
g2
Vpremadasa hegoda
p2781
sg4
Vjapan
p2782
sg6
VPremadasa Hegoda has lived in Japan since 1974.\u000a
p2783
sg8
Vlive in
p2784
sa(dp2785
g2
Vgharana
p2786
sg4
Vjaipur-atrauli
p2787
sg6
VTaufiq Qureshi is married to Geetika Varde, a renowned vocalist of the Jaipur-Atrauli gharana.\u000a
p2788
sg8
Vgharana 's
p2789
sa(dp2790
g2
Vraga
p2791
sg4
Vfour
p2792
sg6
VThe Raga Guide is a 1999 Nimbus Records compilation of 74 Hindustani ragas on four CDs.\u000a
p2793
sg8
Vraga on
p2794
sa(dp2795
g2
g2791
sg4
V74
p2796
sg6
VThe Raga Guide is a 1999 Nimbus Records compilation of 74 Hindustani ragas on four CDs.\u000a
p2797
sg8
Vraga 's
p2798
sa(dp2799
g2
Vdilshad khan
p2800
sg4
Vclassical singer
p2801
sg6
VDilshad Khan is a Bengali Hindustani classical singer of the Patiala Gharana.\u000a
p2802
sg8
S'is a'
p2803
sa(dp2804
g2
Vdilshad khan
p2805
sg4
Vsinger
p2806
sg6
VDilshad Khan is a Bengali Hindustani classical singer of the Patiala Gharana.\u000a
p2807
sg8
S'is a'
p2808
sa(dp2809
g2
Vdilshad khan
p2810
sg4
Vbengali singer
p2811
sg6
VDilshad Khan is a Bengali Hindustani classical singer of the Patiala Gharana.\u000a
p2812
sg8
S'is a'
p2813
sa(dp2814
g2
Vdilshad khan
p2815
sg4
Vhindustani singer
p2816
sg6
VDilshad Khan is a Bengali Hindustani classical singer of the Patiala Gharana.\u000a
p2817
sg8
S'is a'
p2818
sa(dp2819
g2
Vdilshad khan
p2820
sg4
Vpatiala_gharana
p2821
sg6
VDilshad Khan is a Bengali Hindustani classical singer of the Patiala Gharana.\u000a
p2822
sg8
Vsinger of
p2823
sa(dp2824
g2
Vdilshad khan
p2825
sg4
Varabinda_dasgupta
p2826
sg6
VDilshad Khan was named as Arabinda Dasgupta.\u000a
p2827
sg8
Vname as
p2828
sa(dp2829
g2
Vdilshad khan
p2830
sg4
Vclassical vocalist
p2831
sg6
VDilshad Khan is married to classical vocalist, Parveen Sultana.\u000a
p2832
sg8
Vmarry to
p2833
sa(dp2834
g2
Vdilshad khan
p2835
sg4
Vparveen_sultana
p2836
sg6
VDilshad Khan is married to classical vocalist, Parveen Sultana.\u000a
p2837
sg8
Vmarry to
p2838
sa(dp2839
g2
Vgharana
p2840
sg4
Vpatiala
p2841
sg6
VPandit Ajoy Chakrabarty belongs to the Patiala gharana.\u000a
p2842
sg8
Vgharana 's
p2843
sa(dp2844
g2
Vsitar
p2845
sg4
Vage
p2846
sg6
VBhagwat was introduced to playing sitar at the age of nine by Bhagwat uncle.\u000a
p2847
sg8
Vplay at
p2848
sa(dp2849
g2
Vsitar
p2850
sg4
Vjazz
p2851
sg6
VIn America, the profile of the sitar in Jazz was maintained by Collin Walcott.\u000a
p2852
sg8
Vsitar in
p2853
sa(dp2854
g2
Vsitar
p2855
sg4
Vjazz context
p2856
sg6
VThis is a chronological catalogue of recordings which have featured the sitar within a jazz context.\u000a
p2857
sg8
Vsitar within
p2858
sa(dp2859
g2
Vkhyal
p2860
sg4
Vforte
p2861
sg6
VThough Khyal is his forte, he is equally adept in singing light classical varieties.\u000a
p2862
sg8
S'is a'
p2863
sa(dp2864
g2
Vkhyal
p2865
sg4
Vhis forte
p2866
sg6
VThough Khyal is his forte, he is equally adept in singing light classical varieties.\u000a
p2867
sg8
S'is a'
p2868
sa(dp2869
g2
Vsanhita nandi
p2870
sg4
Vvocalist
p2871
sg6
VSanhita Nandi is a prominent Hindustani classical vocalist of the Kirana Gharana.\u000a
p2872
sg8
S'is a'
p2873
sa(dp2874
g2
Vsanhita nandi
p2875
sg4
Vclassical vocalist
p2876
sg6
VSanhita Nandi is a prominent Hindustani classical vocalist of the Kirana Gharana.\u000a
p2877
sg8
S'is a'
p2878
sa(dp2879
g2
Vsanhita nandi
p2880
sg4
Vkirana_gharana
p2881
sg6
VSanhita Nandi is a prominent Hindustani classical vocalist of the Kirana Gharana.\u000a
p2882
sg8
Vvocalist of
p2883
sa(dp2884
g2
Vsanhita nandi
p2885
sg4
Vprominent hindustani
p2886
sg6
VSanhita Nandi is a prominent Hindustani classical vocalist of the Kirana Gharana.\u000a
p2887
sg8
Vvocalist 's
p2888
sa(dp2889
g2
Vsanhita nandi
p2890
sg4
Vindia
p2891
sg6
VSanhita Nandi has travelled extensively to perform, both within and outside of India.\u000a
p2892
sg8
Vtravel
p2893
sa(dp2894
g2
Vhaveli sangeet
p2895
sg4
Vsemi form
p2896
sg6
VHaveli Sangeet is a semi classical form of Hindustani classical music sung in Havelis.\u000a
p2897
sg8
S'is a'
p2898
sa(dp2899
g2
Vhaveli sangeet
p2900
sg4
Vform
p2901
sg6
VHaveli Sangeet is a semi classical form of Hindustani classical music sung in Havelis.\u000a
p2902
sg8
S'is a'
p2903
sa(dp2904
g2
Vhaveli sangeet
p2905
sg4
Vclassical form
p2906
sg6
VHaveli Sangeet is a semi classical form of Hindustani classical music sung in Havelis.\u000a
p2907
sg8
S'is a'
p2908
sa(dp2909
g2
Vhaveli sangeet
p2910
sg4
Vmusic sung
p2911
sg6
VHaveli Sangeet is a semi classical form of Hindustani classical music sung in Havelis.\u000a
p2912
sg8
Vform of
p2913
sa(dp2914
g2
Vgangubai hangal
p2915
sg4
Vgharana
p2916
sg6
VGangubai Hangal belonged to the Kirana gharana.\u000a
p2917
sg8
Vbelong to
p2918
sa(dp2919
g2
g2916
sg4
Vkirana
p2920
sg6
VGangubai Hangal belonged to the Kirana gharana.\u000a
p2921
sg8
Vgharana 's
p2922
sa(dp2923
g2
Vgangubai hangal
p2924
sg4
Vchikkurao nadiger
p2925
sg6
VGangubai Hangal was born in Dharwad to Chikkurao Nadiger, an agriculturist and Ambabai, a vocalist of Carnatic music.\u000a
p2926
sg8
Vbear to
p2927
sa(dp2928
g2
Vgangubai hangal
p2929
sg4
Vdharwad
p2930
sg6
VGangubai Hangal was born in Dharwad to Chikkurao Nadiger, an agriculturist and Ambabai, a vocalist of Carnatic music.\u000a
p2931
sg8
Vbear in
p2932
sa(dp2933
g2
Vgangubai hangal
p2934
sg4
Vdattopant_desai
p2935
sg6
VGangubai Hangal also learned from Dattopant Desai before studying under Sawai Gandharva, a respected guru.\u000a
p2936
sg8
Vlearn from
p2937
sa(dp2938
g2
Vgangubai hangal
p2939
sg4
Vsawai_gandharva
p2940
sg6
VGangubai Hangal also learned from Dattopant Desai before studying under Sawai Gandharva, a respected guru.\u000a
p2941
sg8
Vstudy under
p2942
sa(dp2943
g2
Vgangubai hangal
p2944
sg4
Vnumber
p2945
sg6
VGangubai Hangal received a number of awards, which include :.\u000a
p2946
sg8
Vreceive
p2947
sa(dp2948
g2
Vpantula rama
p2949
sg4
Vfamily
p2950
sg6
VPantula Rama was born into a family with a lineage of music.\u000a
p2951
sg8
Vbear into
p2952
sa(dp2953
g2
Vpantula rama
p2954
sg4
Vlineage
p2955
sg6
VPantula Rama was born into a family with a lineage of music.\u000a
p2956
sg8
Vbear with
p2957
sa(dp2958
g2
Vpantula rama
p2959
sg4
Veight
p2960
sg6
VPantula Rama has been performing since a Top grade Vocalist was eight.\u000a
p2961
sg8
Vperform since
p2962
sa(dp2963
g2
Vharihar rao
p2964
sg4
Vmusician
p2965
sg6
VHarihar Rao was a noted Hindustani musician, accomplished playing both tabla and sitar.\u000a
p2966
sg8
S'is a'
p2967
sa(dp2968
g2
Vharihar rao
p2969
sg4
Vnoted hindustani
p2970
sg6
VHarihar Rao was a noted Hindustani musician, accomplished playing both tabla and sitar.\u000a
p2971
sg8
Vmusician 's
p2972
sa(dp2973
g2
Vchatur lal
p2974
sg4
Vmusician
p2975
sg6
VSupporting musicians are Chatur Lal on tabla and Nodu Mullick on Tamboura.\u000a
p2976
sg8
S'is a'
p2977
sa(dp2978
g2
Vchatur lal
p2979
sg4
Vsupport musician
p2980
sg6
VSupporting musicians are Chatur Lal on tabla and Nodu Mullick on Tamboura.\u000a
p2981
sg8
S'is a'
p2982
sa(dp2983
g2
Vgirish panchwadkar
p2984
sg4
Vindia
p2985
sg6
VGirish Panchwadkar is an accomplished Marathi singer and music director from India.\u000a
p2986
sg8
Vdirector from
p2987
sa(dp2988
g2
Vgirish panchwadkar
p2989
sg4
Vdirector
p2990
sg6
VGirish Panchwadkar is an accomplished Marathi singer and music director from India.\u000a
p2991
sg8
S'is a'
p2992
sa(dp2993
g2
Vgirish panchwadkar
p2994
sg4
Vsinger
p2995
sg6
VGirish Panchwadkar is an accomplished Marathi singer and music director from India.\u000a
p2996
sg8
S'is a'
p2997
sa(dp2998
g2
Vgirish panchwadkar
p2999
sg4
Vmusic director
p3000
sg6
VGirish Panchwadkar is an accomplished Marathi singer and music director from India.\u000a
p3001
sg8
S'is a'
p3002
sa(dp3003
g2
Vgirish panchwadkar
p3004
sg4
Vaccomplished marathi
p3005
sg6
VGirish Panchwadkar is an accomplished Marathi singer and music director from India.\u000a
p3006
sg8
Vsinger 's
p3007
sa(dp3008
g2
Vgirish panchwadkar
p3009
sg4
Vmusic group
p3010
sg6
VGirish Panchwadkar formed a music group Kshitij a group of marathi songs.\u000a
p3011
sg8
Vform
p3012
sa(dp3013
g2
Vgirish panchwadkar
p3014
sg4
Vperformance
p3015
sg6
VGirish Panchwadkar started Girish Panchwadkar performance through the program Shabdswaranche Indradhanushya in Solapur in 1992.\u000a
p3016
sg8
Vstart
p3017
sa(dp3018
g2
Vgirish panchwadkar
p3019
sg4
Vstage
p3020
sg6
VGirish Panchwadkar is performing on stage since last 21 years in Maharashtra and outside.\u000a
p3021
sg8
Vperform on
p3022
sa(dp3023
g2
Vgirish panchwadkar
p3024
sg4
Vlast_21_years
p3025
sg6
VGirish Panchwadkar is performing on stage since last 21 years in Maharashtra and outside.\u000a
p3026
sg8
Vperform since
p3027
sa(dp3028
g2
Vsawani
p3029
sg4
Vgenre
p3030
sg6
VSawani is a genre of semi-classical singing, popular in Uttar Pradesh and Bihar.\u000a
p3031
sg8
S'is a'
p3032
sa(dp3033
g2
Vsawani
p3034
sg4
Vsemi-classical singing
p3035
sg6
VSawani is a genre of semi-classical singing, popular in Uttar Pradesh and Bihar.\u000a
p3036
sg8
Vgenre of
p3037
sa(dp3038
g2
Vpandit sudhir
p3039
sg4
Vplayer
p3040
sg6
VPandit Sudhir is an Indian sitar player of Hindustani classical music.\u000a
p3041
sg8
S'is a'
p3042
sa(dp3043
g2
Vpandit sudhir
p3044
sg4
Vsitar player
p3045
sg6
VPandit Sudhir is an Indian sitar player of Hindustani classical music.\u000a
p3046
sg8
S'is a'
p3047
sa(dp3048
g2
Vpandit sudhir
p3049
sg4
Vindian player
p3050
sg6
VPandit Sudhir is an Indian sitar player of Hindustani classical music.\u000a
p3051
sg8
S'is a'
p3052
sa(dp3053
g2
Vpandit sudhir
p3054
sg4
Vhindustani music
p3055
sg6
VPandit Sudhir is an Indian sitar player of Hindustani classical music.\u000a
p3056
sg8
Vplayer of
p3057
sa(dp3058
g2
Vhariprasad chaurasia
p3059
sg4
Vallahabad
p3060
sg6
VHariprasad Chaurasia was born in Allahabad in the Indian state of Uttar Pradesh.\u000a
p3061
sg8
Vbear in
p3062
sa(dp3063
g2
Vhariprasad chaurasia
p3064
sg4
Vindian state
p3065
sg6
VHariprasad Chaurasia was born in Allahabad in the Indian state of Uttar Pradesh.\u000a
p3066
sg8
Vbear in
p3067
sa(dp3068
g2
Vhariprasad chaurasia
p3069
sg4
Vvocal music
p3070
sg6
VHariprasad Chaurasia started learning vocal music from his neighbor, Pandit Rajaram, at the age of 15.\u000a
p3071
sg8
Vlearn
p3072
sa(dp3073
g2
Vswara
p3074
sg4
Vvadi
p3075
sg6
VVadi swara in a raga is like a king in a kingdom.\u000a
p3076
sg8
Vswara 's
p3077
sa(dp3078
g2
g3074
sg4
Vraga
p3079
sg6
VVadi swara in a raga is like a king in a kingdom.\u000a
p3080
sg8
Vswara in
p3081
sa(dp3082
g2
g3074
sg4
Vking
p3083
sg6
VVadi swara in a raga is like a king in a kingdom.\u000a
p3084
sg8
Vbe like
p3085
sa(dp3086
g2
Vswara
p3087
sg4
Vvadi
p3088
sg6
VVadi swara is also helpful to identify the time of singing or playing a raga.\u000a
p3089
sg8
Vswara 's
p3090
sa(dp3091
g2
g3087
sg4
Vtime
p3092
sg6
VVadi swara is also helpful to identify the time of singing or playing a raga.\u000a
p3093
sg8
Videntify
p3094
sa(dp3095
g2
Vmc yogi
p3096
sg4
Vnicholas_giacomini
p3097
sg6
VMC Yogi is the stage name of Nicholas Giacomini, an American hip hop musician and yogi.\u000a
p3098
sg8
Vname of
p3099
sa(dp3100
g2
Vmc yogi
p3101
sg4
Vstage name
p3102
sg6
VMC Yogi is the stage name of Nicholas Giacomini, an American hip hop musician and yogi.\u000a
p3103
sg8
S'is a'
p3104
sa(dp3105
g2
Vmc yogi
p3106
sg4
Vname
p3107
sg6
VMC Yogi is the stage name of Nicholas Giacomini, an American hip hop musician and yogi.\u000a
p3108
sg8
S'is a'
p3109
sa(dp3110
g2
Vraga
p3111
sg4
Vrasa
p3112
sg6
Vsince the Spring season is the raga of spring, it can be considered that the raga has shringara rasa.\u000a
p3113
sg8
Vshringara
p3114
sa(dp3115
g2
Vchaiti
p3116
sg4
Vsemi-classical song
p3117
sg6
VChaiti are a semi-classical songs sung in the Hindu calendar month of Chaiti.\u000a
p3118
sg8
S'is a'
p3119
sa(dp3120
g2
Vchaiti
p3121
sg4
Vsong
p3122
sg6
VChaiti are a semi-classical songs sung in the Hindu calendar month of Chaiti.\u000a
p3123
sg8
S'is a'
p3124
sa(dp3125
g2
Vchaiti
p3126
sg4
Vcalendar month
p3127
sg6
VChaiti are a semi-classical songs sung in the Hindu calendar month of Chaiti.\u000a
p3128
sg8
Vsing in
p3129
sa(dp3130
g2
Vajay pohankar
p3131
sg4
Vmadhya_pradesh
p3132
sg6
VAjay Pohankar was born in Jabalpur, Madhya Pradesh, where Ajay Pohankar father was an advocate.\u000a
p3133
sg8
Vbear in
p3134
sa(dp3135
g2
Vajay pohankar
p3136
sg4
Vjabalpur
p3137
sg6
VAjay Pohankar was born in Jabalpur, Madhya Pradesh, where Ajay Pohankar father was an advocate.\u000a
p3138
sg8
Vbear in
p3139
sa(dp3140
g2
Vajay pohankar
p3141
sg4
Vpiya_bawari
p3142
sg6
VAjay Pohankar is known for the musical video, Piya Bawari.\u000a
p3143
sg8
Vknow for
p3144
sa(dp3145
g2
Vajay pohankar
p3146
sg4
Vmusical video
p3147
sg6
VAjay Pohankar is known for the musical video, Piya Bawari.\u000a
p3148
sg8
Vknow for
p3149
sa(dp3150
g2
Vajay pohankar
p3151
sg4
Vanjali_pohankar
p3152
sg6
VAjay Pohankar is married to Anjali Pohankar, a vocalist and musicologist.\u000a
p3153
sg8
Vmarry to
p3154
sa(dp3155
g2
Vabhogi
p3156
sg4
Vmusic
p3157
sg6
VAbhogi is a raga in Carnatic music and has been adapted to Hindustani music.\u000a
p3158
sg8
Vraga in
p3159
sa(dp3160
g2
Vabhogi
p3161
sg4
Vmusic
p3162
sg6
VAbhogi is a raga in Carnatic music and has been adapted to Hindustani music.\u000a
p3163
sg8
Vadapt to
p3164
sa(dp3165
g2
Vabhogi
p3166
sg4
Vraga
p3167
sg6
VAbhogi is a raga in Carnatic music and has been adapted to Hindustani music.\u000a
p3168
sg8
S'is a'
p3169
sa(dp3170
g2
Vabhogi
p3171
sg4
Vpentatonic scale
p3172
sg6
VAbhogi is a pentatonic scale, an audava or owdava raga.\u000a
p3173
sg8
S'is a'
p3174
sa(dp3175
g2
Vabhogi
p3176
sg4
Vscale
p3177
sg6
VAbhogi is a pentatonic scale, an audava or owdava raga.\u000a
p3178
sg8
S'is a'
p3179
sa(dp3180
g2
Vabhogi
p3181
sg4
Vmusic
p3182
sg6
VAbhogi has been borrowed from Carnatic music into Hindustani music and is also quite popular in the latter.\u000a
p3183
sg8
Vborrow from
p3184
sa(dp3185
g2
Vabhogi
p3186
sg4
Vsymmetric scale
p3187
sg6
VAbhogi is a symmetric pentatonic scale that does not contain panchamam and nishadam.\u000a
p3188
sg8
S'is a'
p3189
sa(dp3190
g2
Vabhogi
p3191
sg4
Vpentatonic scale
p3192
sg6
VAbhogi is a symmetric pentatonic scale that does not contain panchamam and nishadam.\u000a
p3193
sg8
S'is a'
p3194
sa(dp3195
g2
Vabhogi
p3196
sg4
Vscale
p3197
sg6
VAbhogi is a symmetric pentatonic scale that does not contain panchamam and nishadam.\u000a
p3198
sg8
S'is a'
p3199
sa(dp3200
g2
Vabhogi
p3201
sg4
Vpanchamam
p3202
sg6
VAbhogi is a symmetric pentatonic scale that does not contain panchamam and nishadam.\u000a
p3203
sg8
Vnot contain
p3204
sa(dp3205
g2
Vabhogi
p3206
sg4
Vnishadam
p3207
sg6
VAbhogi is a symmetric pentatonic scale that does not contain panchamam and nishadam.\u000a
p3208
sg8
g3204
sa(dp3209
g2
Vabhogi
p3210
sg4
Vscale
p3211
sg6
VAbhogi is a scale that is used for compositions in a medium to fast tempo.\u000a
p3212
sg8
S'is a'
p3213
sa(dp3214
g2
Vabhogi
p3215
sg4
Vcomposition
p3216
sg6
VAbhogi is a scale that is used for compositions in a medium to fast tempo.\u000a
p3217
sg8
Vuse for
p3218
sa(dp3219
g2
Vabhogi
p3220
sg4
Vmedium
p3221
sg6
VAbhogi is a scale that is used for compositions in a medium to fast tempo.\u000a
p3222
sg8
Vuse in
p3223
sa(dp3224
g2
Vabhogi
p3225
sg4
Vfilm music
p3226
sg6
VAbhogi has been used to score film music too.\u000a
p3227
sg8
Vuse to
p3228
sa(dp3229
g2
Vraga
p3230
sg4
Vabhogus
p3231
sg6
VThere are also some Tamil movie songs based on the raga of abhogi.\u000a
p3232
sg8
Vraga of
p3233
sa(dp3234
g2
Vtintal
p3235
sg4
Vfamous tala
p3236
sg6
VTintal is one of the most famous talas of Hindustani music.\u000a
p3237
sg8
Vof
p3238
sa(dp3239
g2
Vtintal
p3240
sg4
Vbeat
p3241
sg6
VTintal has sixteen beats in four equal divisions.\u000a
p3242
sg8
Vsixteen
p3243
sa(dp3244
g2
Valankara
p3245
sg4
Vaddition
p3246
sg6
VIn addition seven more Alankara are given.\u000a
p3247
sg8
Vgive in
p3248
sa(dp3249
g2
Vgharana
p3250
sg4
Vcomprehensive ideology
p3251
sg6
VA gharana also indicates a comprehensive musicological ideology.\u000a
p3252
sg8
Vindicate
p3253
sa(dp3254
g2
Vgharana
p3255
sg4
Vpatiala
p3256
sg6
VThe principal feature of the thumri of the Patiala gharana is its incorporation of the tappa from the Punjab region.\u000a
p3257
sg8
Vgharana 's
p3258
sa(dp3259
g2
Vtappa
p3260
sg4
Vregion
p3261
sg6
VThe principal feature of the thumri of the Patiala gharana is its incorporation of the tappa from the Punjab region.\u000a
p3262
sg8
Vtappa from
p3263
sa(dp3264
g2
Vtarana
p3265
sg4
Vform
p3266
sg6
VTarana was invented by Amir Khusro, and is similar to the Qalbana form of Sufi poetry.\u000a
p3267
sg8
Vsimilar to
p3268
sa(dp3269
g2
Vtabla
p3270
sg4
Vmusic
p3271
sg6
VThe Tabla is still used in the music behind folk and sufi poetry.\u000a
p3272
sg8
Vuse in
p3273
sa(dp3274
g2
Vtabla
p3275
sg4
Vpart
p3276
sg6
VThe Tabla later became a part of Hindustani music industry.\u000a
p3277
sg8
Vbecome
p3278
sa(dp3279
g2
Vgharana
p3280
sg4
Vbol technique
p3281
sg6
VFor instance, some gharanas have different tabla positioning and bol techniques.\u000a
p3282
sg8
Vhave
p3283
sa(dp3284
g2
g3280
sg4
Vtablum positioning
p3285
sg6
VFor instance, some gharanas have different tabla positioning and bol techniques.\u000a
p3286
sg8
g3283
sa(dp3287
g2
Vulhas kashalkar
p3288
sg4
Vprogramme executive
p3289
sg6
VUlhas Kashalkar initially worked as a programme executive at the Thane station of All India Radio.\u000a
p3290
sg8
Vwork as
p3291
sa(dp3292
g2
Vanant lal
p3293
sg4
Vfirst person
p3294
sg6
VAnant Lal is the first person in India to introduce a folk instrument in Classical music.\u000a
p3295
sg8
S'is a'
p3296
sa(dp3297
g2
Vanant lal
p3298
sg4
Vperson
p3299
sg6
VAnant Lal is the first person in India to introduce a folk instrument in Classical music.\u000a
p3300
sg8
S'is a'
p3301
sa(dp3302
g2
Vanant lal
p3303
sg4
Vindia
p3304
sg6
VAnant Lal is the first person in India to introduce a folk instrument in Classical music.\u000a
p3305
sg8
Vperson in
p3306
sa(dp3307
g2
Vanant lal
p3308
sg4
Vfolk instrument
p3309
sg6
VAnant Lal is the first person in India to introduce a folk instrument in Classical music.\u000a
p3310
sg8
Vintroduce
p3311
sa(dp3312
g2
Vdadra
p3313
sg4
Vtwo
p3314
sg6
VDadra refers to two separate but originally linked concepts in Hindustani classical music.\u000a
p3315
sg8
Vrefer to
p3316
sa(dp3317
g2
Vsarpada
p3318
sg4
Vraga
p3319
sg6
VSarpada is a raga in Hindustani classical music.\u000a
p3320
sg8
S'is a'
p3321
sa(dp3322
g2
Vsarpada
p3323
sg4
Vhindustani music
p3324
sg6
VSarpada is a raga in Hindustani classical music.\u000a
p3325
sg8
Vraga in
p3326
sa(dp3327
g2
Vbenares gharana
p3328
sg4
Vcommon style
p3329
sg6
VBenares gharana is one of the six most common styles of playing of the Indian tabla.\u000a
p3330
sg8
Vof
p3331
sa(dp3332
g2
Vgharana
p3333
sg4
Vbaj
p3334
sg6
VThe gharana is categorized into the Purbi baj, which includes the Farukhabad, Lucknow, and Benares gharanas.\u000a
p3335
sg8
Vcategorize into
p3336
sa(dp3337
g2
Vrimpa siva
p3338
sg4
Vmusician
p3339
sg6
VRimpa Siva is an Indian musician known for being one of the few female tabla players.\u000a
p3340
sg8
S'is a'
p3341
sa(dp3342
g2
Vrimpa siva
p3343
sg4
Vindian musician
p3344
sg6
VRimpa Siva is an Indian musician known for being one of the few female tabla players.\u000a
p3345
sg8
S'is a'
p3346
sa(dp3347
g2
Vgharana
p3348
sg4
Vdelhi
p3349
sg6
VPhilip then migrated to Delhi to learn Tabla under the maestro Ustad Fiyaz Khan of the Delhi gharana.\u000a
p3350
sg8
Vgharana 's
p3351
sa(dp3352
g2
Vchatur lal
p3353
sg4
Vravi_shankar
p3354
sg6
VChatur Lal accompanied Ravi Shankar, KBE on tabla until 1962, when Alla Rakha assumed the role.\u000a
p3355
sg8
Vaccompany
p3356
sa(dp3357
g2
Vchatur lal
p3358
sg4
Vkbe
p3359
sg6
VChatur Lal accompanied Ravi Shankar, KBE on tabla until 1962, when Alla Rakha assumed the role.\u000a
p3360
sg8
g3356
sa(dp3361
g2
Vsitar
p3362
sg4
Vwood song
p3363
sg6
VHarrison became interested in Indian classical music, bought a sitar and used Sitar to record the song Norwegian Wood.\u000a
p3364
sg8
Vrecord
p3365
sa(dp3366
g2
Vgauhar jaan
p3367
sg4
Vsinger
p3368
sg6
VGauhar Jaan was an Indian singer and dancer from Calcutta.\u000a
p3369
sg8
S'is a'
p3370
sa(dp3371
g2
Vgauhar jaan
p3372
sg4
Vdancer
p3373
sg6
VGauhar Jaan was an Indian singer and dancer from Calcutta.\u000a
p3374
sg8
S'is a'
p3375
sa(dp3376
g2
Vgauhar jaan
p3377
sg4
Vindian singer
p3378
sg6
VGauhar Jaan was an Indian singer and dancer from Calcutta.\u000a
p3379
sg8
S'is a'
p3380
sa(dp3381
g2
Vgauhar jaan
p3382
sg4
V26
p3383
sg6
VGauhar Jaan was born as Angelina Yeoward in on 26 June 1873 in Azamgarh, of Armenian descent.\u000a
p3384
sg8
Vbear on
p3385
sa(dp3386
g2
Vgauhar jaan
p3387
sg4
Vangelina yeoward
p3388
sg6
VGauhar Jaan was born as Angelina Yeoward in on 26 June 1873 in Azamgarh, of Armenian descent.\u000a
p3389
sg8
Vbear as
p3390
sa(dp3391
g2
Vgauhar jaan
p3392
sg4
Vazamgarh
p3393
sg6
VGauhar Jaan was born as Angelina Yeoward in on 26 June 1873 in Azamgarh, of Armenian descent.\u000a
p3394
sg8
Vbear in
p3395
sa(dp3396
g2
Vgauhar jaan
p3397
sg4
Vrecording session
p3398
sg6
VGauhar Jaan agreed to do the recording session for a princely sum of 3,000 rupees.\u000a
p3399
sg8
Vdo
p3400
sa(dp3401
g2
Vpakhavaj
p3402
sg4
Vlow tone
p3403
sg6
VThe pakhavaj has a low, mellow tone, very rich in harmonics.\u000a
p3404
sg8
Vhave
p3405
sa(dp3406
g2
Vprem joshua
p3407
sg4
Vmusician
p3408
sg6
VPrem Joshua is a German musician, active since 1991.\u000a
p3409
sg8
S'is a'
p3410
sa(dp3411
g2
Vprem joshua
p3412
sg4
Vgerman musician
p3413
sg6
VPrem Joshua is a German musician, active since 1991.\u000a
p3414
sg8
S'is a'
p3415
sa(dp3416
g2
Vthumri
p3417
sg4
Vsemus
p3418
sg6
VThumri is a common genre of semi - classical Indian music.\u000a
p3419
sg8
Vgenre of
p3420
sa(dp3421
g2
Vthumri
p3422
sg4
Vgenre
p3423
sg6
VThumri is a common genre of semi - classical Indian music.\u000a
p3424
sg8
S'is a'
p3425
sa(dp3426
g2
Vthumri
p3427
sg4
Vcommon genre
p3428
sg6
VThumri is a common genre of semi - classical Indian music.\u000a
p3429
sg8
S'is a'
p3430
sa(dp3431
g2
Vthumri
p3432
sg4
Vth century
p3433
sg6
VThumri arose in popularity during the 19th century in the Lucknow court of nawab Wajid Ali Shah.\u000a
p3434
sg8
Varise during
p3435
sa(dp3436
g2
Vthumri
p3437
sg4
Vpopularity
p3438
sg6
VThumri arose in popularity during the 19th century in the Lucknow court of nawab Wajid Ali Shah.\u000a
p3439
sg8
Varise in
p3440
sa(dp3441
g2
Vthumri
p3442
sg4
Vcourt
p3443
sg6
VThumri arose in popularity during the 19th century in the Lucknow court of nawab Wajid Ali Shah.\u000a
p3444
sg8
Varise in
p3445
sa(dp3446
g2
Vindore gharana
p3447
sg4
Vvocal gharana
p3448
sg6
VIndore gharana is one of the vocal gharanas of Indian classical music.\u000a
p3449
sg8
Vof
p3450
sa(dp3451
g2
Vgharana
p3452
sg4
Vbhendibazaar
p3453
sg6
VThe merukhand structure is similar to that practiced by Ustad Aman Ali Khan of the Bhendibazaar gharana.\u000a
p3454
sg8
Vgharana 's
p3455
sa(dp3456
g2
Vgharana
p3457
sg4
Vindore
p3458
sg6
VThe khayal gayaki in the Indore gharana retains the slow development and restraint from frills as in the dhrupad.\u000a
p3459
sg8
Vgharana 's
p3460
sa(dp3461
g2
Vmohanrao palekar
p3462
sg4
Vmiddle family
p3463
sg6
VMohanrao Palekar was born in a musically oriented middle class family.\u000a
p3464
sg8
Vbear in
p3465
sa(dp3466
g2
Vmohanrao palekar
p3467
sg4
Vbharat_natak_mandali
p3468
sg6
VMohanrao Palekar first joined Bharat Natak Mandali as a stage actor.\u000a
p3469
sg8
Vjoin
p3470
sa(dp3471
g2
Vmohanrao palekar
p3472
sg4
Vample opportunity
p3473
sg6
VMohanrao Palekar also got ample opportunities to listen to great musicians ad libitum.\u000a
p3474
sg8
Vget
p3475
sa(dp3476
g2
Vgharana
p3477
sg4
Vsitar playing
p3478
sg6
VHe was recognized as the foremost representative of the Senia gharana of sitar playing in the mid-20th century.\u000a
p3479
sg8
Vgharana of
p3480
sa(dp3481
g2
g3477
sg4
Vsenia
p3482
sg6
VHe was recognized as the foremost representative of the Senia gharana of sitar playing in the mid-20th century.\u000a
p3483
sg8
Vgharana 's
p3484
sa(dp3485
g2
Vsurbahar
p3486
sg4
Vplaying
p3487
sg6
VThe Surbahar was originally designed to felicitate the playing of Alap.\u000a
p3488
sg8
Vfelicitate
p3489
sa(dp3490
g2
Vsurbahar
p3491
sg4
Vthree
p3492
sg6
VSteven Landsberg is Khansahibs only student to have studied the Surbahar, the technique with three mizrabas, and tarparan.\u000a
p3493
sg8
Vtechnique with
p3494
sa(dp3495
g2
Vsurbahar
p3496
sg4
Vtechnique
p3497
sg6
VSteven Landsberg is Khansahibs only student to have studied the Surbahar, the technique with three mizrabas, and tarparan.\u000a
p3498
sg8
S'is a'
p3499
sa(dp3500
g2
Vchaturprahar
p3501
sg4
Vfestival
p3502
sg6
VChaturprahar is an annual Indian classical music festival held at National Centre for Performing Arts in Mumbai, India.\u000a
p3503
sg8
S'is a'
p3504
sa(dp3505
g2
Vchaturprahar
p3506
sg4
Vannual festival
p3507
sg6
VChaturprahar is an annual Indian classical music festival held at National Centre for Performing Arts in Mumbai, India.\u000a
p3508
sg8
S'is a'
p3509
sa(dp3510
g2
Vchaturprahar
p3511
sg4
Vclassical festival
p3512
sg6
VChaturprahar is an annual Indian classical music festival held at National Centre for Performing Arts in Mumbai, India.\u000a
p3513
sg8
S'is a'
p3514
sa(dp3515
g2
Vchaturprahar
p3516
sg4
Vmusic festival
p3517
sg6
VChaturprahar is an annual Indian classical music festival held at National Centre for Performing Arts in Mumbai, India.\u000a
p3518
sg8
S'is a'
p3519
sa(dp3520
g2
Vchaturprahar
p3521
sg4
Vindian festival
p3522
sg6
VChaturprahar is an annual Indian classical music festival held at National Centre for Performing Arts in Mumbai, India.\u000a
p3523
sg8
S'is a'
p3524
sa(dp3525
g2
Vchaturprahar
p3526
sg4
Vart
p3527
sg6
VChaturprahar is an annual Indian classical music festival held at National Centre for Performing Arts in Mumbai, India.\u000a
p3528
sg8
Vperform
p3529
sa(dp3530
g2
Vchaturprahar
p3531
sg4
Vnational_centre
p3532
sg6
VChaturprahar is an annual Indian classical music festival held at National Centre for Performing Arts in Mumbai, India.\u000a
p3533
sg8
Vhold at
p3534
sa(dp3535
g2
Vchaturprahar
p3536
sg4
Vconcept
p3537
sg6
VChaturprahar is based on the concept of association of time with the ragas.\u000a
p3538
sg8
Vbase on
p3539
sa(dp3540
g2
Vchaturprahar
p3541
sg4
Vvarious raga
p3542
sg6
VChaturprahar explores various ragas associated with different times of the day.\u000a
p3543
sg8
Vexplore
p3544
sa(dp3545
g2
Vraga
p3546
sg4
Vparticular time
p3547
sg6
VSinging these ragas at their particular times brings out the most in them.\u000a
p3548
sg8
Vsing at
p3549
sa(dp3550
g2
Vkaushiki chakrabarty
p3551
sg4
Vmorning session
p3552
sg6
VKaushiki Chakrabarty performed in the morning session.\u000a
p3553
sg8
Vperform in
p3554
sa(dp3555
g2
Vsitar
p3556
sg4
Vstring
p3557
sg6
VA sitar can have 18, 19 or 20 strings.\u000a
p3558
sg8
Vhave
p3559
sa(dp3560
g2
Vsitar
p3561
sg4
Vsecondary resonator
p3562
sg6
VSome sitars have a secondary resonator, the tumbaa, near the top of the hollow neck.\u000a
p3563
sg8
Vhave
p3564
sa(dp3565
g2
g3561
sg4
Vtumbaa
p3566
sg6
VSome sitars have a secondary resonator, the tumbaa, near the top of the hollow neck.\u000a
p3567
sg8
g3564
sa(dp3568
g2
Vsitar
p3569
sg4
Vcollectible price
p3570
sg6
VSome sitars by certain manufacturers fetch very high collectible prices.\u000a
p3571
sg8
Vfetch
p3572
sa(dp3573
g2
g3569
sg4
Vcertain manufacturer
p3574
sg6
VSome sitars by certain manufacturers fetch very high collectible prices.\u000a
p3575
sg8
Vsitar by
p3576
sa(dp3577
g2
Vsitar
p3578
sg4
Volder hiren_roy
p3579
sg6
VMost notable are older Rikhi Ram and older Hiren Roy sitars depending upon which master built the instrument.\u000a
p3580
sg8
Vsitar 's
p3581
sa(dp3582
g2
Vgharana
p3583
sg4
Vvisibility
p3584
sg6
VThe gharana gained visibility and following the latter-half of the 20th Century after acclaimed contemporary vocalist Pt.\u000a
p3585
sg8
Vgain
p3586
sa(dp3587
g2
Vgharana
p3588
sg4
Vdharbhanga
p3589
sg6
VVinod Kumar Dwivedi is an Indian classical Dhrupad - Dhamar singer, belonging to the Dharbhanga gharana.\u000a
p3590
sg8
Vgharana 's
p3591
sa(dp3592
g2
Vgharana
p3593
sg4
Vtablum playing
p3594
sg6
VThe word Chilla is widely used in the Punjab gharana of tabla playing.\u000a
p3595
sg8
Vgharana of
p3596
sa(dp3597
g2
g3593
sg4
Vpunjab
p3598
sg6
VThe word Chilla is widely used in the Punjab gharana of tabla playing.\u000a
p3599
sg8
Vgharana 's
p3600
sa(dp3601
g2
Vriyaz
p3602
sg4
Vsong
p3603
sg6
VMany new singers perform Riyaz of Asha Khadilkar songs at initial stage of Many new singers training.\u000a
p3604
sg8
Vof
p3605
sa(dp3606
g2
Vvichitra veena
p3607
sg4
Vwider fame
p3608
sg6
VKanpur, India in 1957 was through Gopal Shankar Misra that the vichitra veena finally found wider international fame.\u000a
p3609
sg8
Vfind
p3610
sa(dp3611
g2
Vgharana
p3612
sg4
Vhindustani music
p3613
sg6
VPandit Shankar Ghosh is a noted Indian tabla player from the Farukhabad gharana of Hindustani classical music.\u000a
p3614
sg8
Vgharana of
p3615
sa(dp3616
g2
g3612
sg4
Vfarukhabad
p3617
sg6
VPandit Shankar Ghosh is a noted Indian tabla player from the Farukhabad gharana of Hindustani classical music.\u000a
p3618
sg8
Vgharana 's
p3619
sa(dp3620
g2
Vgharana
p3621
sg4
Vpatiala
p3622
sg6
VPandit Shankar Ghosh is also an occasional Hindustani classical singer where Pandit Shankar Ghosh follows the Patiala gharana.\u000a
p3623
sg8
Vgharana 's
p3624
sa(dp3625
g2
Vsheema mukherjee
p3626
sg4
Vbritish player
p3627
sg6
VSheema Mukherjee is a British composer and sitar player.\u000a
p3628
sg8
S'is a'
p3629
sa(dp3630
g2
Vsheema mukherjee
p3631
sg4
Vplayer
p3632
sg6
VSheema Mukherjee is a British composer and sitar player.\u000a
p3633
sg8
S'is a'
p3634
sa(dp3635
g2
Vsheema mukherjee
p3636
sg4
Vsitar player
p3637
sg6
VSheema Mukherjee is a British composer and sitar player.\u000a
p3638
sg8
S'is a'
p3639
sa(dp3640
g2
Vsheema mukherjee
p3641
sg4
Vbritish composer
p3642
sg6
VSheema Mukherjee is a British composer and sitar player.\u000a
p3643
sg8
S'is a'
p3644
sa(dp3645
g2
Vsheema mukherjee
p3646
sg4
Vcomposer
p3647
sg6
VSheema Mukherjee is a British composer and sitar player.\u000a
p3648
sg8
S'is a'
p3649
sa(dp3650
g2
Vtabla
p3651
sg4
Vchild
p3652
sg6
VSingh grew up in Leytonstone and began playing the tablas as a child.\u000a
p3653
sg8
Vtabla as
p3654
sa(dp3655
g2
Vmalini rajurkar
p3656
sg4
Vgwalior_gharana
p3657
sg6
VMalini Rajurkar is a noted Hindustani classical singer of Gwalior Gharana.\u000a
p3658
sg8
Vsinger of
p3659
sa(dp3660
g2
Vmalini rajurkar
p3661
sg4
Vnoted hindustani
p3662
sg6
VMalini Rajurkar is a noted Hindustani classical singer of Gwalior Gharana.\u000a
p3663
sg8
Vsinger 's
p3664
sa(dp3665
g2
Vmalini rajurkar
p3666
sg4
Vclassical singer
p3667
sg6
VMalini Rajurkar is a noted Hindustani classical singer of Gwalior Gharana.\u000a
p3668
sg8
S'is a'
p3669
sa(dp3670
g2
Vmalini rajurkar
p3671
sg4
Vsinger
p3672
sg6
VMalini Rajurkar is a noted Hindustani classical singer of Gwalior Gharana.\u000a
p3673
sg8
S'is a'
p3674
sa(dp3675
g2
Vmalini rajurkar
p3676
sg4
Vindia
p3677
sg6
VMalini Rajurkar grew up in the state of Rajasthan in India.\u000a
p3678
sg8
Vgrow in
p3679
sa(dp3680
g2
Vmalini rajurkar
p3681
sg4
Vstate
p3682
sg6
VMalini Rajurkar grew up in the state of Rajasthan in India.\u000a
p3683
sg8
Vgrow in
p3684
sa(dp3685
g2
Vmalini rajurkar
p3686
sg4
Vcommand
p3687
sg6
VMalini Rajurkar is noted especially for Malini Rajurkar command over the Tappa genre.\u000a
p3688
sg8
Vnote for
p3689
sa(dp3690
g2
Vmalini rajurkar
p3691
sg4
Vlighter music
p3692
sg6
VMalini Rajurkar has also sung lighter music.\u000a
p3693
sg8
Vsing
p3694
sa(dp3695
g2
Vdhondutai kulkarni
p3696
sg4
Vcreation
p3697
sg6
VDhondutai Kulkarni knows specialty Raag creations made not just by Alladiya Khan but also Kesarbai Kerkar.\u000a
p3698
sg8
Vknow
p3699
sa(dp3700
g2
Valladiya khan
p3701
sg4
Vkesarbai_kerkar
p3702
sg6
VDhondutai Kulkarni knows specialty Raag creations made not just by Alladiya Khan but also Kesarbai Kerkar.\u000a
p3703
sg8
Vnot make
p3704
sa(dp3705
g2
Vraga
p3706
sg4
Vindian music
p3707
sg6
VThe samavadi is the second-most prominent note of a raga in Indian classical music.\u000a
p3708
sg8
Vraga in
p3709
sa(dp3710
g2
Vgharana
p3711
sg4
Vjaipur-atrauli
p3712
sg6
VGeeta Javdekar is a Hindustani classical vocalist belonging to the Jaipur-Atrauli gharana.\u000a
p3713
sg8
Vgharana 's
p3714
sa(dp3715
g2
Vgeeta javadekar
p3716
sg4
Vtime
p3717
sg6
VGeeta Javadekar stood first in the B.A. examination of Karnataka University with a record number of marks at the time.\u000a
p3718
sg8
Vstand at
p3719
sa(dp3720
g2
Vgeeta javadekar
p3721
sg4
Vexamination
p3722
sg6
VGeeta Javadekar stood first in the B.A. examination of Karnataka University with a record number of marks at the time.\u000a
p3723
sg8
Vstand in
p3724
sa(dp3725
g2
Vgeeta javadekar
p3726
sg4
Vtutelage
p3727
sg6
VGeeta Javadekar continued Geeta Javadekar tutelage under several maestros : Pt.\u000a
p3728
sg8
Vcontinue
p3729
sa(dp3730
g2
Vamar nath
p3731
sg4
Vpakistan
p3732
sg6
VAmar Nath was born in 1924 in Jhang in Punjab, now in Pakistan.\u000a
p3733
sg8
Vbear in
p3734
sa(dp3735
g2
Vamar nath
p3736
sg4
V1924
p3737
sg6
VAmar Nath was born in 1924 in Jhang in Punjab, now in Pakistan.\u000a
p3738
sg8
Vbear in
p3739
sa(dp3740
g2
Vamar nath
p3741
sg4
Vjhang
p3742
sg6
VAmar Nath was born in 1924 in Jhang in Punjab, now in Pakistan.\u000a
p3743
sg8
Vbear in
p3744
sa(dp3745
g2
Vamar nath
p3746
sg4
Vpunjab
p3747
sg6
VAmar Nath was born in 1924 in Jhang in Punjab, now in Pakistan.\u000a
p3748
sg8
Vbear in
p3749
sa(dp3750
g2
Vgharana
p3751
sg4
Vmodern maihar
p3752
sg6
VDuring his lifetime, he composed several ragas and laid the foundation of a modern Maihar gharana.\u000a
p3753
sg8
Vgharana 's
p3754
sa(dp3755
g2
Vgharana
p3756
sg4
Vsenia
p3757
sg6
VThrough Alauddin, Alauddin was given access to the Senia gharana.\u000a
p3758
sg8
Vgharana 's
p3759
sa(dp3760
g2
Vgharana
p3761
sg4
Vindian music
p3762
sg6
VDuring Alauddin time as a court musician, Khan completely reshaped the Maihar gharana of Indian classical music.\u000a
p3763
sg8
Vgharana of
p3764
sa(dp3765
g2
g3761
sg4
Vmaihar
p3766
sg6
VDuring Alauddin time as a court musician, Khan completely reshaped the Maihar gharana of Indian classical music.\u000a
p3767
sg8
Vgharana 's
p3768
sa(dp3769
g2
Vdevaki pandit
p3770
sg4
Vusha_pandit
p3771
sg6
VDevaki Pandit was born in Maharashtra, India to Usha Pandit.\u000a
p3772
sg8
Vbear to
p3773
sa(dp3774
g2
Vdevaki pandit
p3775
sg4
Vindia
p3776
sg6
VDevaki Pandit was born in Maharashtra, India to Usha Pandit.\u000a
p3777
sg8
Vbear in
p3778
sa(dp3779
g2
Vdevaki pandit
p3780
sg4
Vmaharashtra
p3781
sg6
VDevaki Pandit was born in Maharashtra, India to Usha Pandit.\u000a
p3782
sg8
Vbear in
p3783
sa(dp3784
g2
Vdevaki pandit
p3785
sg4
Vram_raksha_stotra
p3786
sg6
VDevaki Pandit sung the Ram Raksha Stotra in 32 different Hindustani Classical Raagas.\u000a
p3787
sg8
Vsing
p3788
sa(dp3789
g2
Vraga
p3790
sg4
Vhigh sa
p3791
sg6
VIt is very common to begin the elaboration of this raga with high Sa.\u000a
p3792
sg8
Vraga with
p3793
sa(dp3794
g2
Vgharana
p3795
sg4
Vth century
p3796
sg6
VThe gharana is believed to have been founded in the 16th century by.\u000a
p3797
sg8
Vfound in
p3798
sa(dp3799
g2
Vbaiju bawra
p3800
sg4
Vhindi film
p3801
sg6
VBaiju Bawra, a Hindi - language film was a musician at the court of the Raja of Chanderi.\u000a
p3802
sg8
S'is a'
p3803
sa(dp3804
g2
Vbaiju bawra
p3805
sg4
Vmusician
p3806
sg6
VBaiju Bawra, a Hindi - language film was a musician at the court of the Raja of Chanderi.\u000a
p3807
sg8
S'is a'
p3808
sa(dp3809
g2
Vbaiju bawra
p3810
sg4
Vlanguage film
p3811
sg6
VBaiju Bawra, a Hindi - language film was a musician at the court of the Raja of Chanderi.\u000a
p3812
sg8
S'is a'
p3813
sa(dp3814
g2
Vbaiju bawra
p3815
sg4
Vfilm
p3816
sg6
VBaiju Bawra, a Hindi - language film was a musician at the court of the Raja of Chanderi.\u000a
p3817
sg8
S'is a'
p3818
sa(dp3819
g2
Vgeet ramayan
p3820
sg4
Vcrescendo
p3821
sg6
VThe Geet Ramayan is considered as the crescendo of Madgulkars literary vigour.\u000a
p3822
sg8
Vconsider as
p3823
sa(dp3824
g2
Vraga
p3825
sg4
Vhindustani music
p3826
sg6
VMusical director Sudhir Phadke mainly used ragas of Hindustani classical music to compose the songs.\u000a
p3827
sg8
Vraga of
p3828
sa(dp3829
g2
g3825
sg4
Vsong
p3830
sg6
VMusical director Sudhir Phadke mainly used ragas of Hindustani classical music to compose the songs.\u000a
p3831
sg8
Vcompose
p3832
sa(dp3833
g2
Vgeet ramayan
p3834
sg4
V1955
p3835
sg6
VGeet Ramayan was conceptualized in 1955, four years before the introduction of television in India in 1959.\u000a
p3836
sg8
Vconceptualize in
p3837
sa(dp3838
g2
Vraga
p3839
sg4
Vtime
p3840
sg6
VThe raga and Tala of a song was selected to suit the time of the incident and the narrative mood.\u000a
p3841
sg8
Vsuit
p3842
sa(dp3843
g2
g3839
sg4
Vsong
p3844
sg6
VThe raga and Tala of a song was selected to suit the time of the incident and the narrative mood.\u000a
p3845
sg8
Vtalum of
p3846
sa(dp3847
g2
Vgeet ramayan
p3848
sg4
Vnine
p3849
sg6
VGeet Ramayan has been translated into nine other languages and also transliterated into Braille.\u000a
p3850
sg8
Vtranslate into
p3851
sa(dp3852
g2
Vgeet ramayan
p3853
sg4
Vbraille
p3854
sg6
VGeet Ramayan has been translated into nine other languages and also transliterated into Braille.\u000a
p3855
sg8
Vtransliterate into
p3856
sa(dp3857
g2
Vanjanibai malpekar
p3858
sg4
Vnoted singer
p3859
sg6
VAnjanibai Malpekar was a noted Indian classical singer, belonging to the Bhendibazaar gharana of Hindustani classical music.\u000a
p3860
sg8
S'is a'
p3861
sa(dp3862
g2
Vanjanibai malpekar
p3863
sg4
Vclassical singer
p3864
sg6
VAnjanibai Malpekar was a noted Indian classical singer, belonging to the Bhendibazaar gharana of Hindustani classical music.\u000a
p3865
sg8
S'is a'
p3866
sa(dp3867
g2
Vanjanibai malpekar
p3868
sg4
Vsinger
p3869
sg6
VAnjanibai Malpekar was a noted Indian classical singer, belonging to the Bhendibazaar gharana of Hindustani classical music.\u000a
p3870
sg8
S'is a'
p3871
sa(dp3872
g2
Vanjanibai malpekar
p3873
sg4
Vindian singer
p3874
sg6
VAnjanibai Malpekar was a noted Indian classical singer, belonging to the Bhendibazaar gharana of Hindustani classical music.\u000a
p3875
sg8
S'is a'
p3876
sa(dp3877
g2
Vgharana
p3878
sg4
Vhindustani music
p3879
sg6
VAnjanibai Malpekar was a noted Indian classical singer, belonging to the Bhendibazaar gharana of Hindustani classical music.\u000a
p3880
sg8
Vgharana of
p3881
sa(dp3882
g2
g3878
sg4
Vbhendibazaar
p3883
sg6
VAnjanibai Malpekar was a noted Indian classical singer, belonging to the Bhendibazaar gharana of Hindustani classical music.\u000a
p3884
sg8
Vgharana 's
p3885
sa(dp3886
g2
Vanjanibai malpekar
p3887
sg4
g3878
sg6
VAnjanibai Malpekar was a noted Indian classical singer, belonging to the Bhendibazaar gharana of Hindustani classical music.\u000a
p3888
sg8
Vbelong to
p3889
sa(dp3890
g2
Vanjanibai malpekar
p3891
sg4
Vdebut performance
p3892
sg6
VAnjanibai Malpekar gave Anjanibai Malpekar debut performance at a concert in Mumbai in 1899, at the age of 16.\u000a
p3893
sg8
Vgive
p3894
sa(dp3895
g2
Vsitar
p3896
sg4
Vtune
p3897
sg6
VThe next part is to sound the Chala sitar to Shadjagrama tune.\u000a
p3898
sg8
Vsitar to
p3899
sa(dp3900
g2
g3896
sg4
Vchala
p3901
sg6
VThe next part is to sound the Chala sitar to Shadjagrama tune.\u000a
p3902
sg8
Vsitar 's
p3903
sa(dp3904
g2
Vsitar
p3905
sg4
Vchala
p3906
sg6
VRepeat the above mentioned procedure to further lower down the Chala sitar by one more Pramana Sruti.\u000a
p3907
sg8
Vsitar 's
p3908
sa(dp3909
g2
g3905
sg4
Vpramana sruti
p3910
sg6
VRepeat the above mentioned procedure to further lower down the Chala sitar by one more Pramana Sruti.\u000a
p3911
sg8
Vsitar by
p3912
sa(dp3913
g2
Vmadhup mudgal
p3914
sg4
Vmusic vocalist
p3915
sg6
VMadhup Mudgal is an Indian Hindustani classical music vocalist.\u000a
p3916
sg8
S'is a'
p3917
sa(dp3918
g2
Vmadhup mudgal
p3919
sg4
Vvocalist
p3920
sg6
VMadhup Mudgal is an Indian Hindustani classical music vocalist.\u000a
p3921
sg8
S'is a'
p3922
sa(dp3923
g2
Vmadhup mudgal
p3924
sg4
Vclassical vocalist
p3925
sg6
VMadhup Mudgal is an Indian Hindustani classical music vocalist.\u000a
p3926
sg8
S'is a'
p3927
sa(dp3928
g2
Vmadhup mudgal
p3929
sg4
Vindian hindustani
p3930
sg6
VMadhup Mudgal is an Indian Hindustani classical music vocalist.\u000a
p3931
sg8
Vvocalist 's
p3932
sa(dp3933
g2
Vmadhup mudgal
p3934
sg4
Vworld
p3935
sg6
VMadhup Mudgal travels across the world for Madhup Mudgal performances.\u000a
p3936
sg8
Vtravel across
p3937
sa(dp3938
g2
Vmadhup mudgal
p3939
sg4
Vperformance
p3940
sg6
VMadhup Mudgal travels across the world for Madhup Mudgal performances.\u000a
p3941
sg8
Vtravel for
p3942
sa(dp3943
g2
Vmadhup mudgal
p3944
sg4
Vconductor
p3945
sg6
VMadhup Mudgal has remained the conductor of the Gandharva Choir, a music group for many years.\u000a
p3946
sg8
Vremain
p3947
sa(dp3948
g2
Vmadhuvanti
p3949
sg4
Vname
p3950
sg6
VMadhuvanti is the name of a raga used in Indian classical music.\u000a
p3951
sg8
S'is a'
p3952
sa(dp3953
g2
Vmadhuvanti
p3954
sg4
Vraga
p3955
sg6
VMadhuvanti is the name of a raga used in Indian classical music.\u000a
p3956
sg8
Vname of
p3957
sa(dp3958
g2
g3955
sg4
Vindian music
p3959
sg6
VMadhuvanti is the name of a raga used in Indian classical music.\u000a
p3960
sg8
Vuse in
p3961
sa(dp3962
g2
Vmadhuvanti
p3963
sg4
Vtodi
p3964
sg6
VMadhuvanti belongs to thaat Todi.\u000a
p3965
sg8
Vthaat
p3966
sa(dp3967
g2
Vmadhuvanti
p3968
sg4
Vloving sentiment
p3969
sg6
VMadhuvanti expresses a gentle loving sentiment.\u000a
p3970
sg8
Vexpress
p3971
sa(dp3972
g2
Vmadhuvanti
p3973
sg4
Vraga
p3974
sg6
VMadhuvanti is the janya raga of the 59th Melakarta of Carnatic Music, Dharmavati.\u000a
p3975
sg8
S'is a'
p3976
sa(dp3977
g2
Vmadhuvanti
p3978
sg4
Vjanya raga
p3979
sg6
VMadhuvanti is the janya raga of the 59th Melakarta of Carnatic Music, Dharmavati.\u000a
p3980
sg8
S'is a'
p3981
sa(dp3982
g2
Vmadhuvanti
p3983
sg4
Vdharmavati
p3984
sg6
VMadhuvanti is the janya raga of the 59th Melakarta of Carnatic Music, Dharmavati.\u000a
p3985
sg8
Vraga of
p3986
sa(dp3987
g2
Vmadhuvanti
p3988
sg4
Vth melakarta_of_carnatic_music
p3989
sg6
VMadhuvanti is the janya raga of the 59th Melakarta of Carnatic Music, Dharmavati.\u000a
p3990
sg8
Vraga of
p3991
sa(dp3992
g2
Vmadhuvanti
p3993
sg4
Vmelodious raga
p3994
sg6
VMadhuvanti is a very melodious raga.\u000a
p3995
sg8
S'is a'
p3996
sa(dp3997
g2
Vmadhuvanti
p3998
sg4
Vraga
p3999
sg6
VMadhuvanti is a very melodious raga.\u000a
p4000
sg8
S'is a'
p4001
sa(dp4002
g2
Vraga
p4003
sg4
Vmany tukada
p4004
sg6
VThis raga has been used to compose many tukadas.\u000a
p4005
sg8
Vcompose
p4006
sa(dp4007
g2
Vgharana
p4008
sg4
Vhindustani music
p4009
sg6
VPandit Kishan Maharaj was an Indian tabla player who belonged to the Benares gharana of Hindustani classical music.\u000a
p4010
sg8
Vgharana of
p4011
sa(dp4012
g2
g4008
sg4
Vbenares
p4013
sg6
VPandit Kishan Maharaj was an Indian tabla player who belonged to the Benares gharana of Hindustani classical music.\u000a
p4014
sg8
Vgharana 's
p4015
sa(dp4016
g2
Vdhrupad
p4017
sg4
Vvocal tradition
p4018
sg6
VThough Dhrupad is basically a vocal tradition, Dhrupad musical aesthetics have been adopted by many instrumentalists.\u000a
p4019
sg8
S'is a'
p4020
sa(dp4021
g2
Vdhrupad
p4022
sg4
Vtradition
p4023
sg6
VThough Dhrupad is basically a vocal tradition, Dhrupad musical aesthetics have been adopted by many instrumentalists.\u000a
p4024
sg8
S'is a'
p4025
sa(dp4026
g2
Vraga
p4027
sg4
Vmodal frame
p4028
sg6
VEach raga has a modal frame - a wealth of micro-tonal ornamentations are typical.\u000a
p4029
sg8
Vhave
p4030
sa(dp4031
g2
Valap
p4032
sg4
Vtext
p4033
sg6
VThe text is preceded by a wholly improvised section, the alap.\u000a
p4034
sg8
Vprecede
p4035
sa(dp4036
g2
Vgharana
p4037
sg4
Vdarbhanga
p4038
sg6
VToday the senior performer of the Darbhanga gharana is Prem Kumar Mallick.\u000a
p4039
sg8
Vgharana 's
p4040
sa(dp4041
g2
Vgharana
p4042
sg4
Vpatronage
p4043
sg6
VThis gharana flourished under the patronage of the kings of Bettiah Raj.\u000a
p4044
sg8
Vflourish under
p4045
sa(dp4046
g2
Vgharana
p4047
sg4
Vbettiah
p4048
sg6
VThe most famous exponents of the Bettiah gharana today are Indrakishore Mishra and Falguni Mitra.\u000a
p4049
sg8
Vgharana 's
p4050
sa(dp4051
g2
Vgharana
p4052
sg4
Vpandit_chhannulal_mishra
p4053
sg6
VRamkumar Mishra is the grandson of Pandit Anokhelal Mishra from Banaras gharana and son of Pandit Chhannulal Mishra.\u000a
p4054
sg8
Vgharana of
p4055
sa(dp4056
g2
g4052
sg4
Vbanaras
p4057
sg6
VRamkumar Mishra is the grandson of Pandit Anokhelal Mishra from Banaras gharana and son of Pandit Chhannulal Mishra.\u000a
p4058
sg8
Vgharana 's
p4059
sa(dp4060
g2
Vgharana
p4061
sg4
Vpatiala
p4062
sg6
VBade Ghulam Ali Khan was a Hindustani classical vocalist, from the Patiala gharana.\u000a
p4063
sg8
Vgharana 's
p4064
sa(dp4065
g2
Vsadarang
p4066
sg4
Vmusical composer
p4067
sg6
VSadarang was the pen name of the Hindustani musical composer and artist Niyamat Khan.\u000a
p4068
sg8
Vname of
p4069
sa(dp4070
g2
Vsadarang
p4071
sg4
Vartist niyamat khan
p4072
sg6
VSadarang was the pen name of the Hindustani musical composer and artist Niyamat Khan.\u000a
p4073
sg8
Vname of
p4074
sa(dp4075
g2
Vsadarang
p4076
sg4
Vname
p4077
sg6
VSadarang was the pen name of the Hindustani musical composer and artist Niyamat Khan.\u000a
p4078
sg8
S'is a'
p4079
sa(dp4080
g2
Vsadarang
p4081
sg4
Vpen name
p4082
sg6
VSadarang was the pen name of the Hindustani musical composer and artist Niyamat Khan.\u000a
p4083
sg8
S'is a'
p4084
sa(dp4085
g2
Vsadarang
p4086
sg4
Vcourt
p4087
sg6
VSadarang served in the court of Mughal Emperor Muhammad Shah.\u000a
p4088
sg8
Vserve in
p4089
sa(dp4090
g2
Vsadarang
p4091
sg4
Vcomposition
p4092
sg6
VSadarang and his nephew Adarang remain influential in Hindustani classical music, mainly through Sadarang and Adarang compositions.\u000a
p4093
sg8
S'is a'
p4094
sa(dp4095
g2
Vsadarang
p4096
sg4
Vadarang
p4097
sg6
VSadarang and his nephew Adarang remain influential in Hindustani classical music, mainly through Sadarang and Adarang compositions.\u000a
p4098
sg8
Vcomposition 's
p4099
sa(dp4100
g2
Vmanjusha kulkarni-patil
p4101
sg4
Vhindustani vocalist
p4102
sg6
VManjusha Kulkarni-Patil is an Hindustani classical music vocalist.\u000a
p4103
sg8
S'is a'
p4104
sa(dp4105
g2
Vmanjusha kulkarni-patil
p4106
sg4
Vmusic vocalist
p4107
sg6
VManjusha Kulkarni-Patil is an Hindustani classical music vocalist.\u000a
p4108
sg8
S'is a'
p4109
sa(dp4110
g2
Vmanjusha kulkarni-patil
p4111
sg4
Vvocalist
p4112
sg6
VManjusha Kulkarni-Patil is an Hindustani classical music vocalist.\u000a
p4113
sg8
S'is a'
p4114
sa(dp4115
g2
Vmanjusha kulkarni-patil
p4116
sg4
Vclassical vocalist
p4117
sg6
VManjusha Kulkarni-Patil is an Hindustani classical music vocalist.\u000a
p4118
sg8
S'is a'
p4119
sa(dp4120
g2
Vmanjusha kulkarni-patil
p4121
sg4
Vgharana
p4122
sg6
VManjusha Kulkarni-Patil belongs to the Gwalior gharana.\u000a
p4123
sg8
Vbelong to
p4124
sa(dp4125
g2
g4122
sg4
Vgwalior
p4126
sg6
VManjusha Kulkarni-Patil belongs to the Gwalior gharana.\u000a
p4127
sg8
Vgharana 's
p4128
sa(dp4129
g2
Vmanjusha kulkarni-patil
p4130
sg4
V2 nov
p4131
sg6
VManjusha Kulkarni-Patil was born in Sangli, Maharashtra, India on2nd Nov. 1971 in a family of musicians.\u000a
p4132
sg8
Vbear on
p4133
sa(dp4134
g2
Vmanjusha kulkarni-patil
p4135
sg4
Vsangli
p4136
sg6
VManjusha Kulkarni-Patil was born in Sangli, Maharashtra, India on2nd Nov. 1971 in a family of musicians.\u000a
p4137
sg8
Vbear in
p4138
sa(dp4139
g2
Vmanjusha kulkarni-patil
p4140
sg4
Vfamily
p4141
sg6
VManjusha Kulkarni-Patil was born in Sangli, Maharashtra, India on2nd Nov. 1971 in a family of musicians.\u000a
p4142
sg8
Vbear in
p4143
sa(dp4144
g2
Vmanjusha kulkarni-patil
p4145
sg4
Vage
p4146
sg6
VManjusha Kulkarni-Patil started learning at the age of twelve from Chintubua Mhaiskar.\u000a
p4147
sg8
Vlearn at
p4148
sa(dp4149
g2
Vmanjusha kulkarni-patil
p4150
sg4
Vdisciple
p4151
sg6
VManjusha Kulkarni-Patil is also a disciple of Pandit Kanebua and Ulhas Kashalkar.\u000a
p4152
sg8
S'is a'
p4153
sa(dp4154
g2
Vmanjusha kulkarni-patil
p4155
sg4
Vpandit_kanebua
p4156
sg6
VManjusha Kulkarni-Patil is also a disciple of Pandit Kanebua and Ulhas Kashalkar.\u000a
p4157
sg8
Vdisciple of
p4158
sa(dp4159
g2
Vmanjusha kulkarni-patil
p4160
sg4
Vulhas_kashalkar
p4161
sg6
VManjusha Kulkarni-Patil is also a disciple of Pandit Kanebua and Ulhas Kashalkar.\u000a
p4162
sg8
Vdisciple of
p4163
sa(dp4164
g2
Vmanjusha kulkarni-patil
p4165
sg4
Vmanjusha_kulkarni-patil_khayal form
p4166
sg6
VManjusha Kulkarni-Patil is known for Manjusha Kulkarni-Patil Khayal form of Hindustani music.\u000a
p4167
sg8
Vknow for
p4168
sa(dp4169
g2
Vmanjusha kulkarni-patil
p4170
sg4
Vclassical festival
p4171
sg6
VManjusha Kulkarni-Patil performs at all major classical music festivals like Sawai Gandharva Bhimsen Festival, Tansen festival.\u000a
p4172
sg8
Vperform at
p4173
sa(dp4174
g2
Vomkarnath thakur
p4175
sg4
Vimproved version
p4176
sg6
VOmkarnath Thakur introduced their improved versions, Pt remained a publishers favorite.\u000a
p4177
sg8
Vintroduce
p4178
sa(dp4179
g2
Vmilind date
p4180
sg4
Vmusic composer
p4181
sg6
VMilind Date is an Indian flutist and music composer who plays the bansuri.\u000a
p4182
sg8
S'is a'
p4183
sa(dp4184
g2
Vmilind date
p4185
sg4
Vindian composer
p4186
sg6
VMilind Date is an Indian flutist and music composer who plays the bansuri.\u000a
p4187
sg8
S'is a'
p4188
sa(dp4189
g2
Vmilind date
p4190
sg4
Vflutist
p4191
sg6
VMilind Date is an Indian flutist and music composer who plays the bansuri.\u000a
p4192
sg8
S'is a'
p4193
sa(dp4194
g2
Vmilind date
p4195
sg4
Vindian flutist
p4196
sg6
VMilind Date is an Indian flutist and music composer who plays the bansuri.\u000a
p4197
sg8
S'is a'
p4198
sa(dp4199
g2
Vmilind date
p4200
sg4
Vcomposer
p4201
sg6
VMilind Date is an Indian flutist and music composer who plays the bansuri.\u000a
p4202
sg8
S'is a'
p4203
sa(dp4204
g2
Vmilind date
p4205
sg4
Vbansurus
p4206
sg6
VMilind Date is an Indian flutist and music composer who plays the bansuri.\u000a
p4207
sg8
Vplay
p4208
sa(dp4209
g2
Vmilind date
p4210
sg4
Vseveral music
p4211
sg6
VMilind Date experimented with several music and dance forms through Milind Date performances and recordings.\u000a
p4212
sg8
Vexperiment with
p4213
sa(dp4214
g2
Vmilind date
p4215
sg4
Vseveral music
p4216
sg6
VMilind Date experimented with several music and dance forms through Milind Date performances and recordings.\u000a
p4217
sg8
Vexperiment with
p4218
sa(dp4219
g2
Vmilind date
p4220
sg4
Vrecording
p4221
sg6
VMilind Date experimented with several music and dance forms through Milind Date performances and recordings.\u000a
p4222
sg8
Vexperiment through
p4223
sa(dp4224
g2
Vmilind date
p4225
sg4
Vperformance
p4226
sg6
VMilind Date experimented with several music and dance forms through Milind Date performances and recordings.\u000a
p4227
sg8
Vexperiment through
p4228
sa(dp4229
g2
Vgulubhai jasdanwalla
p4230
sg4
Vsuccessful disciple
p4231
sg6
VGulubhai Jasdanwalla produced many successful disciples, including Baba Azizuddin Khan, Smt.\u000a
p4232
sg8
Vproduce
p4233
sa(dp4234
g2
Vpadma talwalkar
p4235
sg4
Vindian vocalist
p4236
sg6
VPadma Talwalkar is an Indian classical vocalist.\u000a
p4237
sg8
S'is a'
p4238
sa(dp4239
g2
Vpadma talwalkar
p4240
sg4
Vvocalist
p4241
sg6
VPadma Talwalkar is an Indian classical vocalist.\u000a
p4242
sg8
S'is a'
p4243
sa(dp4244
g2
Vpadma talwalkar
p4245
sg4
Vclassical vocalist
p4246
sg6
VPadma Talwalkar is an Indian classical vocalist.\u000a
p4247
sg8
S'is a'
p4248
sa(dp4249
g2
Vpadma talwalkar
p4250
sg4
Vmumbai
p4251
sg6
VPadma Talwalkar was born in Mumbai, India.\u000a
p4252
sg8
Vbear in
p4253
sa(dp4254
g2
Vpadma talwalkar
p4255
sg4
Vindia
p4256
sg6
VPadma Talwalkar was born in Mumbai, India.\u000a
p4257
sg8
Vbear in
p4258
sa(dp4259
g2
Vpadma talwalkar
p4260
sg4
Vgharana
p4261
sg6
VPadma Talwalkar received training in Khyal gayaki in three main styles or gharanas : Gwalior, Kirana and Jaipur.\u000a
p4262
sg8
Vreceive
p4263
sa(dp4264
g2
Vpadma talwalkar
p4265
sg4
Vtraining
p4266
sg6
VPadma Talwalkar received training in Khyal gayaki in three main styles or gharanas : Gwalior, Kirana and Jaipur.\u000a
p4267
sg8
g4263
sa(dp4268
g2
Vpadma talwalkar
p4269
sg4
Vtablum maestro pt
p4270
sg6
VPadma Talwalkar is married to well known tabla maestro Pt.\u000a
p4271
sg8
Vmarry to
p4272
sa(dp4273
g2
Vgharana
p4274
sg4
Vimdadkhani
p4275
sg6
VShujaat Husain Khan is an Indian musician and sitar player of the Imdadkhani gharana.\u000a
p4276
sg8
Vgharana 's
p4277
sa(dp4278
g2
Vgharana
p4279
sg4
Vmewati
p4280
sg6
VMaestro Kala Ramnath belongs to the Mewati gharana.\u000a
p4281
sg8
Vgharana 's
p4282
sa(dp4283
g2
Vsureshbabu mane
p4284
sg4
Vkirana_gharana
p4285
sg6
VSureshbabu Mane was a prominent Hindustani classical music singer of Kirana Gharana in India.\u000a
p4286
sg8
Vsinger of
p4287
sa(dp4288
g2
Vsureshbabu mane
p4289
sg4
Vprominent hindustani
p4290
sg6
VSureshbabu Mane was a prominent Hindustani classical music singer of Kirana Gharana in India.\u000a
p4291
sg8
Vsinger 's
p4292
sa(dp4293
g2
Vsureshbabu mane
p4294
sg4
Vclassical singer
p4295
sg6
VSureshbabu Mane was a prominent Hindustani classical music singer of Kirana Gharana in India.\u000a
p4296
sg8
S'is a'
p4297
sa(dp4298
g2
Vsureshbabu mane
p4299
sg4
Vsinger
p4300
sg6
VSureshbabu Mane was a prominent Hindustani classical music singer of Kirana Gharana in India.\u000a
p4301
sg8
S'is a'
p4302
sa(dp4303
g2
Vsureshbabu mane
p4304
sg4
Vmusic singer
p4305
sg6
VSureshbabu Mane was a prominent Hindustani classical music singer of Kirana Gharana in India.\u000a
p4306
sg8
S'is a'
p4307
sa(dp4308
g2
Vsureshbabu mane
p4309
sg4
Vdoyen
p4310
sg6
VSureshbabu Mane was the son of a doyen of Kirana Gharana, Ustad Abdul Karim Khan.\u000a
p4311
sg8
Vson of
p4312
sa(dp4313
g2
Vsureshbabu mane
p4314
sg4
Vson
p4315
sg6
VSureshbabu Mane was the son of a doyen of Kirana Gharana, Ustad Abdul Karim Khan.\u000a
p4316
sg8
S'is a'
p4317
sa(dp4318
g2
Vprabhakar karekar
p4319
sg4
Vartist
p4320
sg6
VPrabhakar Karekar is also an All India Radio artist.\u000a
p4321
sg8
S'is a'
p4322
sa(dp4323
g2
Vprabhakar karekar
p4324
sg4
Vall_india_radio
p4325
sg6
VPrabhakar Karekar is also an All India Radio artist.\u000a
p4326
sg8
Vartist 's
p4327
sa(dp4328
g2
Vprabhakar karekar
p4329
sg4
Vartiste
p4330
sg6
VPrabhakar Karekar is an All India Radio artiste.\u000a
p4331
sg8
S'is a'
p4332
sa(dp4333
g2
Vprabhakar karekar
p4334
sg4
Vall_india_radio
p4335
sg6
VPrabhakar Karekar is an All India Radio artiste.\u000a
p4336
sg8
Vartiste 's
p4337
sa(dp4338
g2
Vprabhakar karekar
p4339
sg4
Vvarious center
p4340
sg6
VPrabhakar Karekar has participated in many Radio Sangeet Sammelans and National programs at various centers in India.\u000a
p4341
sg8
Vparticipate at
p4342
sa(dp4343
g2
Vprabhakar karekar
p4344
sg4
Vradio sangeet many sammelans
p4345
sg6
VPrabhakar Karekar has participated in many Radio Sangeet Sammelans and National programs at various centers in India.\u000a
p4346
sg8
Vparticipate in
p4347
sa(dp4348
g2
Vprabhakar karekar
p4349
sg4
Vone
p4350
sg6
VPrabhakar Karekar has received several awards, one of them being the Lata Mangeshkar Award instituted by Lata Mangeshkar.\u000a
p4351
sg8
Vreceive
p4352
sa(dp4353
g2
Vprabhakar karekar
p4354
sg4
Vseveral award
p4355
sg6
VPrabhakar Karekar has received several awards, one of them being the Lata Mangeshkar Award instituted by Lata Mangeshkar.\u000a
p4356
sg8
g4352
sa(dp4357
g2
Vprabhakar karekar
p4358
sg4
Vinternational festival
p4359
sg6
VPrabhakar Karekar has also participated in the international festivals like UMBRIA '98 in Italy.\u000a
p4360
sg8
Vparticipate in
p4361
sa(dp4362
g2
Vprabhakar karekar
p4363
sg4
Vitaly
p4364
sg6
VPrabhakar Karekar has also participated in the international festivals like UMBRIA '98 in Italy.\u000a
p4365
sg8
Vparticipate in
p4366
sa(dp4367
g2
Vprabhakar karekar
p4368
sg4
Vchairman
p4369
sg6
VPrabhakar Karekar is the founder and chairman of Swaraprabha Trust, which aims to work for promoting Indian Classical Music.\u000a
p4370
sg8
S'is a'
p4371
sa(dp4372
g2
Vprabhakar karekar
p4373
sg4
Vfounder
p4374
sg6
VPrabhakar Karekar is the founder and chairman of Swaraprabha Trust, which aims to work for promoting Indian Classical Music.\u000a
p4375
sg8
S'is a'
p4376
sa(dp4377
g2
Vprabhakar karekar
p4378
sg4
Vswaraprabha_trust
p4379
sg6
VPrabhakar Karekar is the founder and chairman of Swaraprabha Trust, which aims to work for promoting Indian Classical Music.\u000a
p4380
sg8
Vchairman of
p4381
sa(dp4382
g2
Vbismillah khan
p4383
sg4
V21_march_1913
p4384
sg6
VBismillah Khan was born on 21 March 1913 in Dumraon, Bihar in northern India.\u000a
p4385
sg8
Vbear on
p4386
sa(dp4387
g2
Vbismillah khan
p4388
sg4
Vbihar
p4389
sg6
VBismillah Khan was born on 21 March 1913 in Dumraon, Bihar in northern India.\u000a
p4390
sg8
Vbear in
p4391
sa(dp4392
g2
Vbismillah khan
p4393
sg4
Vdumraon
p4394
sg6
VBismillah Khan was born on 21 March 1913 in Dumraon, Bihar in northern India.\u000a
p4395
sg8
Vbear in
p4396
sa(dp4397
g2
Vbismillah khan
p4398
sg4
Vnorthern india
p4399
sg6
VBismillah Khan was born on 21 March 1913 in Dumraon, Bihar in northern India.\u000a
p4400
sg8
Vbear in
p4401
sa(dp4402
g2
Vdeenanath mangeshkar
p4403
sg4
Vsinging lesson
p4404
sg6
VDeenanath Mangeshkar started taking singing and music lessons from Shri Baba Mashelkar at the age of five.\u000a
p4405
sg8
Vtake
p4406
sa(dp4407
g2
Vshrutinandan
p4408
sg4
Vacademy
p4409
sg6
VShrutinandan is an Indian classical music academy located in Kolkata, India.\u000a
p4410
sg8
S'is a'
p4411
sa(dp4412
g2
Vshrutinandan
p4413
sg4
Vclassical academy
p4414
sg6
VShrutinandan is an Indian classical music academy located in Kolkata, India.\u000a
p4415
sg8
S'is a'
p4416
sa(dp4417
g2
Vshrutinandan
p4418
sg4
Vmusic academy
p4419
sg6
VShrutinandan is an Indian classical music academy located in Kolkata, India.\u000a
p4420
sg8
S'is a'
p4421
sa(dp4422
g2
Vshrutinandan
p4423
sg4
Vindian academy
p4424
sg6
VShrutinandan is an Indian classical music academy located in Kolkata, India.\u000a
p4425
sg8
S'is a'
p4426
sa(dp4427
g2
Vshrutinandan
p4428
sg4
Vkolkata
p4429
sg6
VShrutinandan is an Indian classical music academy located in Kolkata, India.\u000a
p4430
sg8
Vlocate in
p4431
sa(dp4432
g2
Vshrutinandan
p4433
sg4
Vindia
p4434
sg6
VShrutinandan is an Indian classical music academy located in Kolkata, India.\u000a
p4435
sg8
Vlocate in
p4436
sa(dp4437
g2
Vshrutinandan
p4438
sg4
Vjuly_1997
p4439
sg6
VShrutinandan was inaugurated on July 1997.\u000a
p4440
sg8
Vinaugurate on
p4441
sa(dp4442
g2
Vvikas kashalkar
p4443
sg4
Vproducer
p4444
sg6
VVikas Kashalkar worked as a Producer at Balbharati, Pune.\u000a
p4445
sg8
Vwork as
p4446
sa(dp4447
g2
Vvikas kashalkar
p4448
sg4
V dr
p4449
sg6
VDr. Vikas Kashalkar regularly performs on Doordarshan & All India Radio.\u000a
p4450
sg8
S'is a'
p4451
sa(dp4452
g2
Vvikas kashalkar
p4453
sg4
Vdoordarshan_&_all_india_radio
p4454
sg6
VDr. Vikas Kashalkar regularly performs on Doordarshan & All India Radio.\u000a
p4455
sg8
Vperform on
p4456
sa(dp4457
g2
Vvikas kashalkar
p4458
sg4
Vmelodious voice
p4459
sg6
VVikas Kashalkar has melodious voice and intricacies of ` Tanas ' give immense joy to the listeners.\u000a
p4460
sg8
Vhave
p4461
sa(dp4462
g2
Vraga
p4463
sg4
Vnote
p4464
sg6
VThis raga in its avarohana has the notes jumping from one to another.\u000a
p4465
sg8
Vhave
p4466
sa(dp4467
g2
g4463
sg4
Vits avarohana
p4468
sg6
VThis raga in its avarohana has the notes jumping from one to another.\u000a
p4469
sg8
Vraga in
p4470
sa(dp4471
g2
Vgharana
p4472
sg4
Vdarbhanga
p4473
sg6
VPandit Padma Shree Siyaram Tiwari belonged to the Darbhanga gharana and was based in Patna.\u000a
p4474
sg8
Vgharana 's
p4475
sa(dp4476
g2
Vtappa
p4477
sg4
Vbhajan
p4478
sg6
VPandit Padma Shree Siyaram Tiwari also performed in other genres such as Khyal, Thumri, Tappa and bhajan.\u000a
p4479
sg8
S'is a'
p4480
sa(dp4481
g2
Vvijay koparkar
p4482
sg4
Vsing lesson
p4483
sg6
VVijay Koparkar started taking singing lessons at the age of eight.\u000a
p4484
sg8
Vtake
p4485
sa(dp4486
g2
Vvijay koparkar
p4487
sg4
Vsawai_gandharva_music_festival '
p4488
sg6
VVijay Koparkar performed twice at the prestigious ' Sawai Gandharva Music Festival ' held in Pune, India every year.\u000a
p4489
sg8
Vperform at
p4490
sa(dp4491
g2
Vvijay koparkar
p4492
sg4
Vmusic lesson
p4493
sg6
VVijay Koparkar has been imparting music lessons for many years.\u000a
p4494
sg8
Vimpart
p4495
sa(dp4496
g2
Vbandish projekt
p4497
sg4
Vmusical act
p4498
sg6
VBandish Projekt is a musical act featuring a blend of Indian elements in an electronica format.\u000a
p4499
sg8
S'is a'
p4500
sa(dp4501
g2
Vbandish projekt
p4502
sg4
Vact
p4503
sg6
VBandish Projekt is a musical act featuring a blend of Indian elements in an electronica format.\u000a
p4504
sg8
S'is a'
p4505
sa(dp4506
g2
Vbandish projekt
p4507
sg4
Vblend
p4508
sg6
VBandish Projekt is a musical act featuring a blend of Indian elements in an electronica format.\u000a
p4509
sg8
Vfeature
p4510
sa(dp4511
g2
Vbandish projekt
p4512
sg4
Vtwo
p4513
sg6
VBandish Projekt released two EPs in 2012, I Am Not Alone and Correkt Remixed.\u000a
p4514
sg8
Vrelease
p4515
sa(dp4516
g2
Vahir bhairav
p4517
sg4
Vclassical raga
p4518
sg6
VAhir Bhairav is a Hindustani classical raga.\u000a
p4519
sg8
S'is a'
p4520
sa(dp4521
g2
Vahir bhairav
p4522
sg4
Vraga
p4523
sg6
VAhir Bhairav is a Hindustani classical raga.\u000a
p4524
sg8
S'is a'
p4525
sa(dp4526
g2
Vahir bhairav
p4527
sg4
Vhindustani
p4528
sg6
VAhir Bhairav is a Hindustani classical raga.\u000a
p4529
sg8
Vraga 's
p4530
sa(dp4531
g2
Vahir bhairav
p4532
sg4
Vraga
p4533
sg6
VAhir Bhairav is typical uttarang raga, which means emphasis is on the upper tetrachord.\u000a
p4534
sg8
S'is a'
p4535
sa(dp4536
g2
Vahir bhairav
p4537
sg4
Vuttarang raga
p4538
sg6
VAhir Bhairav is typical uttarang raga, which means emphasis is on the upper tetrachord.\u000a
p4539
sg8
S'is a'
p4540
sa(dp4541
g2
Vahir bhairav
p4542
sg4
Vtypical raga
p4543
sg6
VAhir Bhairav is typical uttarang raga, which means emphasis is on the upper tetrachord.\u000a
p4544
sg8
S'is a'
p4545
sa(dp4546
g2
Vgharana
p4547
sg4
Vgwalior
p4548
sg6
VSunanda Patnaik is an Indian classical singer of Gwalior gharana from Odisha.\u000a
p4549
sg8
Vgharana 's
p4550
sa(dp4551
g2
g4547
sg4
Vodisha
p4552
sg6
VSunanda Patnaik is an Indian classical singer of Gwalior gharana from Odisha.\u000a
p4553
sg8
Vgharana from
p4554
sa(dp4555
g2
Vsunanda patnaik
p4556
sg4
Vall_india_radio
p4557
sg6
VSunanda Patnaik started singing at All India Radio in Cuttack in 1948 at the age of 14.\u000a
p4558
sg8
Vsing at
p4559
sa(dp4560
g2
Vsunanda patnaik
p4561
sg4
Vage
p4562
sg6
VSunanda Patnaik started singing at All India Radio in Cuttack in 1948 at the age of 14.\u000a
p4563
sg8
Vsing at
p4564
sa(dp4565
g2
Vsunanda patnaik
p4566
sg4
V1948
p4567
sg6
VSunanda Patnaik started singing at All India Radio in Cuttack in 1948 at the age of 14.\u000a
p4568
sg8
Vsing in
p4569
sa(dp4570
g2
Vsunanda patnaik
p4571
sg4
Vcuttack
p4572
sg6
VSunanda Patnaik started singing at All India Radio in Cuttack in 1948 at the age of 14.\u000a
p4573
sg8
Vsing in
p4574
sa(dp4575
g2
Vsunanda patnaik
p4576
sg4
Vaward
p4577
sg6
VSunanda Patnaik received Odisha Sangeet Natak Akademi award in 1970-71.\u000a
p4578
sg8
Vreceive
p4579
sa(dp4580
g2
Vasad qizilbash
p4581
sg4
Vviolin
p4582
sg6
VAsad Qizilbash started learning violin when K.H. Qizilbash was around 8 years old.\u000a
p4583
sg8
Vlearn
p4584
sa(dp4585
g2
Vasad qizilbash
p4586
sg4
Vperform member
p4587
sg6
VAsad Qizilbash became a performing member of the Childrens Art Workshop at the Pakistan National Council of Arts.\u000a
p4588
sg8
Vbecome
p4589
sa(dp4590
g2
Vasad qizilbash
p4591
sg4
Vpakistan
p4592
sg6
VAsad Qizilbash was selected with some other musicians to represent Pakistan at the Attaturk Festival, in Ankara.\u000a
p4593
sg8
Vrepresent
p4594
sa(dp4595
g2
Vasad qizilbash
p4596
sg4
Vmarcus_mingus_jazz_club
p4597
sg6
VAsad Qizilbash performs live at the Marcus Mingus Jazz Club in Brussels, Belgium.\u000a
p4598
sg8
Vperform at
p4599
sa(dp4600
g2
Vsurbahar
p4601
sg4
Vsitar
p4602
sg6
VSurbahar is closely related to the sitar, but has a lower tone.\u000a
p4603
sg8
Vrelate to
p4604
sa(dp4605
g2
Vsurbahar
p4606
sg4
Vlower tone
p4607
sg6
VSurbahar is closely related to the sitar, but has a lower tone.\u000a
p4608
sg8
Vhave
p4609
sa(dp4610
g2
Vsurbahar
p4611
sg4
V130
p4612
sg6
VThe surbahar is over 130 cm.\u000a
p4613
sg8
Vbe over
p4614
sa(dp4615
g2
Vsurbahar
p4616
sg4
Vfour
p4617
sg6
VSurbahar has four rhythm strings, four playing strings, and 15 to 17 unplayed sympathetic strings.\u000a
p4618
sg8
Vhave
p4619
sa(dp4620
g2
Vsurbahar
p4621
sg4
V1825
p4622
sg6
VSome researchers believe that surbahar was invented around 1825.\u000a
p4623
sg8
Vinvent around
p4624
sa(dp4625
g2
Vshehnai
p4626
sg4
Vt-sery label
p4627
sg6
VLals own recordings include Splendour in Shehnai, issued in 1990 on the T-Series record label.\u000a
p4628
sg8
Vissue on
p4629
sa(dp4630
g2
Vshehnai
p4631
sg4
V1990
p4632
sg6
VLals own recordings include Splendour in Shehnai, issued in 1990 on the T-Series record label.\u000a
p4633
sg8
Vissue in
p4634
sa(dp4635
g2
Vgharana
p4636
sg4
Vlate pandit_krishnarao_pandit_of_gwalior
p4637
sg6
VRinge was the disciple of late Pandit Krishnarao Pandit of Gwalior gharana.\u000a
p4638
sg8
Vgharana 's
p4639
sa(dp4640
g2
Vektal
p4641
sg4
Vraga hemashri
p4642
sg6
VPt Ringe had Ektal composed a Raga Hemashri, which Ektal has Rendered in All India Radio Programme.\u000a
p4643
sg8
Vrender
p4644
sa(dp4645
g2
Vkirana gharana
p4646
sg4
Vkhyal gharana
p4647
sg6
VKirana Gharana is one of the most prolific Hindustani khyal gharanas.\u000a
p4648
sg8
Vof
p4649
sa(dp4650
g2
Vgovindrao tembe
p4651
sg4
Vadvisement
p4652
sg6
VGovindrao Tembe benefited from Bhaskar Raghunath Bakhale advisement in composing music for the stage play Sangeet Manapman.\u000a
p4653
sg8
Vbenefit from
p4654
sa(dp4655
g2
Vgayaki
p4656
sg4
Vone
p4657
sg6
VIt is difficult enough to learn and grasp the Gayaki of one Gharana.\u000a
p4658
sg8
Vof
p4659
sa(dp4660
g2
Vgayaki
p4661
sg4
Vsingle gharana
p4662
sg6
Vthe Gayaki of one Gharana takes many years may be a lifetime to master the Gayaki of a single Gharana.\u000a
p4663
sg8
Vof
p4664
sa(dp4665
g2
Vgayaki
p4666
sg4
Vgharana
p4667
sg6
VMastering the Gayaki of a given Gharana naturally involved mastering new Ragas and new compositions.\u000a
p4668
sg8
Vof
p4669
sa(dp4670
g2
Vraga
p4671
sg4
Vframework
p4672
sg6
VHe presented a given Raga in a well defined framework of a given Gharana.\u000a
p4673
sg8
Vraga in
p4674
sa(dp4675
g2
Vwasifuddin dagar
p4676
sg4
Vnorth_america
p4677
sg6
VWasifuddin Dagar has toured North America performing dhrupad solo since 2000.\u000a
p4678
sg8
Vtour
p4679
sa(dp4680
g2
Vbishnupur gharana
p4681
sg4
Vindia
p4682
sg6
VThe Bishnupur Gharana originated in Bishnupur, West Bengal, India in late 18th-century.\u000a
p4683
sg8
Voriginate
p4684
sa(dp4685
g2
Vbishnupur gharana
p4686
sg4
Vstrong link
p4687
sg6
VBishnupur Gharana therefore has a strong link to Betia Gharana through this unbroken relationship.\u000a
p4688
sg8
Vhave
p4689
sa(dp4690
g2
Vbishnupur gharana
p4691
sg4
Vgopeswar_bandyopadhyay
p4692
sg6
VThree of them were from Bishnupur Gharana : Gopeswar Bandyopadhyay, Satyakinkar Bandyopadhyay and Khetra Mohan Goswami.\u000a
p4693
sg8
V:
p4694
sa(dp4695
g2
Vrag lalit
p4696
sg4
Valbum
p4697
sg6
VRag Lalit is a studio album by Indian classical musician Ram Narayan, released in 1989.\u000a
p4698
sg8
S'is a'
p4699
sa(dp4700
g2
Vrag lalit
p4701
sg4
Vstudio album
p4702
sg6
VRag Lalit is a studio album by Indian classical musician Ram Narayan, released in 1989.\u000a
p4703
sg8
S'is a'
p4704
sa(dp4705
g2
Vrag lalit
p4706
sg4
Vmusician ram_narayan
p4707
sg6
VRag Lalit is a studio album by Indian classical musician Ram Narayan, released in 1989.\u000a
p4708
sg8
Valbum by
p4709
sa(dp4710
g2
Vrag lalit
p4711
sg4
V1989
p4712
sg6
VRag Lalit is a studio album by Indian classical musician Ram Narayan, released in 1989.\u000a
p4713
sg8
Vrelease in
p4714
sa(dp4715
g2
Vmadhup mudgal
p4716
sg4
Vfaculty
p4717
sg6
VMadhup Mudgal since 1995 . has over 1,200 students and a faculty of 60 teachers.\u000a
p4718
sg8
Vhave
p4719
sa(dp4720
g2
Vmadhup mudgal
p4721
sg4
Vstudent
p4722
sg6
VMadhup Mudgal since 1995 . has over 1,200 students and a faculty of 60 teachers.\u000a
p4723
sg8
g4719
sa(dp4724
g2
Vmadhup mudgal
p4725
sg4
V1995
p4726
sg6
VMadhup Mudgal since 1995 . has over 1,200 students and a faculty of 60 teachers.\u000a
p4727
sg8
Vsince
p4728
sa(dp4729
g2
Vamit arya
p4730
sg4
Vvancouver
p4731
sg6
VAmit Arya was born in Vancouver, British Columbia, Canada.\u000a
p4732
sg8
Vbear in
p4733
sa(dp4734
g2
Vamit arya
p4735
sg4
Vmedical doctor
p4736
sg6
VAmit Arya holds a medical Degree from the University of British Columbia and is a Medical Doctor by profession.\u000a
p4737
sg8
S'is a'
p4738
sa(dp4739
g2
Vamit arya
p4740
sg4
Vdoctor
p4741
sg6
VAmit Arya holds a medical Degree from the University of British Columbia and is a Medical Doctor by profession.\u000a
p4742
sg8
S'is a'
p4743
sa(dp4744
g2
Vamit arya
p4745
sg4
Vmedical degree
p4746
sg6
VAmit Arya holds a medical Degree from the University of British Columbia and is a Medical Doctor by profession.\u000a
p4747
sg8
Vhold
p4748
sa(dp4749
g2
Vamit arya
p4750
sg4
Vprofession
p4751
sg6
VAmit Arya holds a medical Degree from the University of British Columbia and is a Medical Doctor by profession.\u000a
p4752
sg8
Vdoctor by
p4753
sa(dp4754
g2
Vmani prasad
p4755
sg4
Vcareer
p4756
sg6
VMani Prasad started Pandit Mani Prasad Ji career early, being brought up in a musical family.\u000a
p4757
sg8
Vstart
p4758
sa(dp4759
g2
Vmani prasad
p4760
sg4
Vmusical family
p4761
sg6
VMani Prasad started Pandit Mani Prasad Ji career early, being brought up in a musical family.\u000a
p4762
sg8
Vbring in
p4763
sa(dp4764
g2
Vgharana
p4765
sg4
Vkirana
p4766
sg6
VJoshi occasionally employed the use of sargam and tihaais, and often sang traditional compositions of the Kirana gharana.\u000a
p4767
sg8
Vgharana 's
p4768
sa(dp4769
g2
Vbhurji khan
p4770
sg4
Vyoungest son
p4771
sg6
VBhurji Khan was the third and youngest son of Utd.\u000a
p4772
sg8
S'is a'
p4773
sa(dp4774
g2
Vbhurji khan
p4775
sg4
Vthird son
p4776
sg6
VBhurji Khan was the third and youngest son of Utd.\u000a
p4777
sg8
S'is a'
p4778
sa(dp4779
g2
Vbhurji khan
p4780
sg4
Vson
p4781
sg6
VBhurji Khan was the third and youngest son of Utd.\u000a
p4782
sg8
S'is a'
p4783
sa(dp4784
g2
Vbhurji khan
p4785
sg4
Vutd
p4786
sg6
VBhurji Khan was the third and youngest son of Utd.\u000a
p4787
sg8
Vson of
p4788
sa(dp4789
g2
Vbhurji khan
p4790
sg4
Vchild
p4791
sg6
VBhurji Khan was the most capable of Ustad Shamsuddin Bhurji Khan children.\u000a
p4792
sg8
Vcapable of
p4793
sa(dp4794
g2
Vbhurji khan
p4795
sg4
Vuniara
p4796
sg6
VBhurji Khan fell seriously ill with motzira while visiting Uniara.\u000a
p4797
sg8
Vvisit
p4798
sa(dp4799
g2
Vbhurji khan
p4800
sg4
Vmotzira
p4801
sg6
VBhurji Khan fell seriously ill with motzira while visiting Uniara.\u000a
p4802
sg8
Vill with
p4803
sa(dp4804
g2
Vbhurji khan
p4805
sg4
S'#unknown'
p4806
sg6
VBhurji Khan took to teaching that Ustad Shamsuddin Bhurji Khan memory solidified and Ustad Shamsuddin Bhurji Khan musical growth resumed.\u000a
p4807
sg8
Vtake to
p4808
sa(dp4809
g2
Vbhurji khan
p4810
sg4
Vpt
p4811
sg6
VBhurji Khan agreed to teach Pt.\u000a
p4812
sg8
Vteach
p4813
sa(dp4814
g2
Vbhurji khan
p4815
sg4
Vprolonged illness
p4816
sg6
VBhurji Khan died in 1950 after a prolonged illness.\u000a
p4817
sg8
Vdie after
p4818
sa(dp4819
g2
Vbhurji khan
p4820
sg4
V1950
p4821
sg6
VBhurji Khan died in 1950 after a prolonged illness.\u000a
p4822
sg8
Vdie in
p4823
sa(dp4824
g2
Vpatdeep
p4825
sg4
Vrendition
p4826
sg6
VThe record had Rut Basant in Raga Rageshri Bahar and Piya Pardes in Patdeep, famous renditions by the Ustad.\u000a
p4827
sg8
S'is a'
p4828
sa(dp4829
g2
Vpatdeep
p4830
sg4
Vfamous rendition
p4831
sg6
VThe record had Rut Basant in Raga Rageshri Bahar and Piya Pardes in Patdeep, famous renditions by the Ustad.\u000a
p4832
sg8
S'is a'
p4833
sa(dp4834
g2
Vpatdeep
p4835
sg4
Vustad
p4836
sg6
VThe record had Rut Basant in Raga Rageshri Bahar and Piya Pardes in Patdeep, famous renditions by the Ustad.\u000a
p4837
sg8
Vrendition by
p4838
sa(dp4839
g2
Vbandish
p4840
sg4
Vperformance
p4841
sg6
VHis choice of bandishes for performances were carefully selected for their sahityic value.\u000a
p4842
sg8
Vbandish for
p4843
sa(dp4844
g2
Vdhrupad
p4845
sg4
Vindia
p4846
sg6
VAfter having established Dhrupad in a pedestal of glory in India, they were invited to perform abroad.\u000a
p4847
sg8
Vhave in
p4848
sa(dp4849
g2
g4845
sg4
Vpedestal
p4850
sg6
VAfter having established Dhrupad in a pedestal of glory in India, they were invited to perform abroad.\u000a
p4851
sg8
Vhave in
p4852
sa(dp4853
g2
Vraga
p4854
sg4
Vshort duration
p4855
sg6
VHe was a master at presenting an attractive and comprehensive picture of a raga in a very short duration.\u000a
p4856
sg8
Vraga in
p4857
sa(dp4858
g2
Vgharana
p4859
sg4
Vimdadkhani
p4860
sg6
VBimalendu Mukherjee is world-renowned Hindustani classical sitar player, and a teacher of the Imdadkhani gharana,.\u000a
p4861
sg8
Vgharana 's
p4862
sa(dp4863
g2
Vbimalendu mukherjee
p4864
sg4
g4859
sg6
VBimalendu Mukherjee is world-renowned Hindustani classical sitar player, and a teacher of the Imdadkhani gharana,.\u000a
p4865
sg8
Vteacher of
p4866
sa(dp4867
g2
Vbimalendu mukherjee
p4868
sg4
Vworld-renowned hindustani
p4869
sg6
VBimalendu Mukherjee is world-renowned Hindustani classical sitar player, and a teacher of the Imdadkhani gharana,.\u000a
p4870
sg8
Vplayer 's
p4871
sa(dp4872
g2
Vbimalendu mukherjee
p4873
sg4
Vplayer
p4874
sg6
VBimalendu Mukherjee is world-renowned Hindustani classical sitar player, and a teacher of the Imdadkhani gharana,.\u000a
p4875
sg8
S'is a'
p4876
sa(dp4877
g2
Vbimalendu mukherjee
p4878
sg4
Vclassical player
p4879
sg6
VBimalendu Mukherjee is world-renowned Hindustani classical sitar player, and a teacher of the Imdadkhani gharana,.\u000a
p4880
sg8
S'is a'
p4881
sa(dp4882
g2
Vbimalendu mukherjee
p4883
sg4
Vsitar player
p4884
sg6
VBimalendu Mukherjee is world-renowned Hindustani classical sitar player, and a teacher of the Imdadkhani gharana,.\u000a
p4885
sg8
S'is a'
p4886
sa(dp4887
g2
Vbimalendu mukherjee
p4888
sg4
Vteacher
p4889
sg6
VBimalendu Mukherjee is world-renowned Hindustani classical sitar player, and a teacher of the Imdadkhani gharana,.\u000a
p4890
sg8
S'is a'
p4891
sa(dp4892
g2
Vudaka vadya
p4893
sg4
Vindian instrument
p4894
sg6
VUdaka Vadya is an Indian musical instrument.\u000a
p4895
sg8
S'is a'
p4896
sa(dp4897
g2
Vudaka vadya
p4898
sg4
Vmusical instrument
p4899
sg6
VUdaka Vadya is an Indian musical instrument.\u000a
p4900
sg8
S'is a'
p4901
sa(dp4902
g2
Vudaka vadya
p4903
sg4
Vinstrument
p4904
sg6
VUdaka Vadya is an Indian musical instrument.\u000a
p4905
sg8
S'is a'
p4906
sa(dp4907
g2
Vgharana
p4908
sg4
Vbhendibazaar
p4909
sg6
VAman Ali introduced rhythmic play and style of solfa singing to the Bhendibazaar gharana.\u000a
p4910
sg8
Vgharana 's
p4911
sa(dp4912
g2
Vtanmoy bose
p4913
sg4
Vvirtuoso
p4914
sg6
VTanmoy Bose is one of India 's best known Tabla virtuoso of this generation.\u000a
p4915
sg8
Vof
p4916
sa(dp4917
g2
Vtabla
p4918
sg4
Vindia
p4919
sg6
VTanmoy Bose is one of India 's best known Tabla virtuoso of this generation.\u000a
p4920
sg8
V's
p4921
sa(dp4922
g2
Vgajananrao joshi
p4923
sg4
Vfamily
p4924
sg6
VGajananrao Joshi graciously agreed to train Jayashri Patanekars family.\u000a
p4925
sg8
Vtrain
p4926
sa(dp4927
g2
Vwajahat khan
p4928
sg4
Vplayer
p4929
sg6
VWajahat Khan is an Indian sarod player who has earned international acclaim since 1977.\u000a
p4930
sg8
S'is a'
p4931
sa(dp4932
g2
Vwajahat khan
p4933
sg4
Vsarod player
p4934
sg6
VWajahat Khan is an Indian sarod player who has earned international acclaim since 1977.\u000a
p4935
sg8
S'is a'
p4936
sa(dp4937
g2
Vwajahat khan
p4938
sg4
Vindian player
p4939
sg6
VWajahat Khan is an Indian sarod player who has earned international acclaim since 1977.\u000a
p4940
sg8
S'is a'
p4941
sa(dp4942
g2
Vwajahat khan
p4943
sg4
Vinternational acclaim
p4944
sg6
VWajahat Khan is an Indian sarod player who has earned international acclaim since 1977.\u000a
p4945
sg8
Vearn
p4946
sa(dp4947
g2
Vwajahat khan
p4948
sg4
Vcalcutta
p4949
sg6
VWajahat Khan was born in Calcutta, India and now divides Wajahat Khan time between the London Sinfonietta and India.\u000a
p4950
sg8
Vbear in
p4951
sa(dp4952
g2
Vwajahat khan
p4953
sg4
Vindia
p4954
sg6
VWajahat Khan was born in Calcutta, India and now divides Wajahat Khan time between the London Sinfonietta and India.\u000a
p4955
sg8
Vbear in
p4956
sa(dp4957
g2
Vwajahat khan
p4958
sg4
Vwajahat_khan time
p4959
sg6
VWajahat Khan was born in Calcutta, India and now divides Wajahat Khan time between the London Sinfonietta and India.\u000a
p4960
sg8
Vdivide
p4961
sa(dp4962
g2
Vdadra
p4963
sg4
Vlucknow_radio_station
p4964
sg6
VBegum Akhtar sang three ghazals and a dadra at Lucknow Radio Station.\u000a
p4965
sg8
Vdadra at
p4966
sa(dp4967
g2
Vwamanrao sadolikar
p4968
sg4
Vfamily
p4969
sg6
VWamanrao Sadolikar was born into a family of music lovers in Kolhapur.\u000a
p4970
sg8
Vbear into
p4971
sa(dp4972
g2
Vwamanrao sadolikar
p4973
sg4
Vkolhapur
p4974
sg6
VWamanrao Sadolikar was born into a family of music lovers in Kolhapur.\u000a
p4975
sg8
Vbear in
p4976
sa(dp4977
g2
Vjhaptal
p4978
sg4
Vfamous tala
p4979
sg6
VJhaptal is one of the most famous talas of Hindustani music, after Teental.\u000a
p4980
sg8
Vof
p4981
sa(dp4982
g2
Vsugarless
p4983
sg4
Vsingle first
p4984
sg6
VSugarless is the first single from Swami s 2009 Greatest Hits compilation 53431.\u000a
p4985
sg8
S'is a'
p4986
sa(dp4987
g2
Vsugarless
p4988
sg4
Vswami
p4989
sg6
VSugarless is the first single from Swami s 2009 Greatest Hits compilation 53431.\u000a
p4990
sg8
Vfirst from
p4991
sa(dp4992
g2
Vreenat fauzia
p4993
sg4
Vyear course
p4994
sg6
VReenat Fauzia completed a five years certificate course on Sitar from ' Chhayanaut ', a music institute of Bangladesh.\u000a
p4995
sg8
Vcomplete
p4996
sa(dp4997
g2
Vreenat fauzia
p4998
sg4
Vappearance
p4999
sg6
VReenat Fauzia also makes appearance in stage for performing solo recital on Sitar.\u000a
p5000
sg8
Vmake
p5001
sa(dp5002
g2
Vreenat fauzia
p5003
sg4
Vaward
p5004
sg6
VReenat Fauzia has receivedAnanya Shirsho Dosh award in 2009.\u000a
p5005
sg8
Vhave
p5006
sa(dp5007
g2
Vsantoor
p5008
sg4
Vaccompaniment instrument
p5009
sg6
VIn India, the santoor was used as an accompaniment instrument to the folk music of Kashmir.\u000a
p5010
sg8
Vuse as
p5011
sa(dp5012
g2
g5008
sg4
Vindia
p5013
sg6
VIn India, the santoor was used as an accompaniment instrument to the folk music of Kashmir.\u000a
p5014
sg8
Vuse in
p5015
sa(dp5016
g2
Vsantoor
p5017
sg4
Vasana
p5018
sg6
VThe santoor is played while sitting in an asana called ardha-padmasana position and placing it on top of the lap.\u000a
p5019
sg8
Vsit in
p5020
sa(dp5021
g2
g5017
sg4
Vit
p5022
sg6
VThe santoor is played while sitting in an asana called ardha-padmasana position and placing it on top of the lap.\u000a
p5023
sg8
Vplace
p5024
sa(dp5025
g2
Vritesh das
p5026
sg4
Vtablum player
p5027
sg6
VRitesh Das is a tabla player who has been studying, teaching and composing since the early 1970s.\u000a
p5028
sg8
S'is a'
p5029
sa(dp5030
g2
Vritesh das
p5031
sg4
Vplayer
p5032
sg6
VRitesh Das is a tabla player who has been studying, teaching and composing since the early 1970s.\u000a
p5033
sg8
S'is a'
p5034
sa(dp5035
g2
Vritesh das
p5036
sg4
Vteaching
p5037
sg6
VRitesh Das is a tabla player who has been studying, teaching and composing since the early 1970s.\u000a
p5038
sg8
Vstudy
p5039
sa(dp5040
g2
Vritesh das
p5041
sg4
Vkolkata
p5042
sg6
VRitesh Das was born in Kolkata, West Bengal to parents Nrityacharya Prohlad Das and Smt.\u000a
p5043
sg8
Vbear in
p5044
sa(dp5045
g2
Vgharana
p5046
sg4
Vkirana
p5047
sg6
VC. R. Vyas had C. R. Vyas initial training from Govindrao Bhatambrekar of the Kirana gharana for a decade.\u000a
p5048
sg8
Vgharana 's
p5049
sa(dp5050
g2
g5046
sg4
Vdecade
p5051
sg6
VC. R. Vyas had C. R. Vyas initial training from Govindrao Bhatambrekar of the Kirana gharana for a decade.\u000a
p5052
sg8
Vgharana for
p5053
sa(dp5054
g2
Vgirija devi
p5055
sg4
Vsamar_saha
p5056
sg6
VGirija Devi performed with Samar Saha and Zakir Hussain performed with Dilshad Khan.\u000a
p5057
sg8
Vperform with
p5058
sa(dp5059
g2
Vrasika
p5060
sg4
Vaesthete
p5061
sg6
VA rasika is a term for an aesthete of Hindustani classical music.\u000a
p5062
sg8
Vterm for
p5063
sa(dp5064
g2
Vrais khan
p5065
sg4
Vpakistan
p5066
sg6
VRais Khan moved to Pakistan after marrying a Pakistani lady.\u000a
p5067
sg8
Vmove to
p5068
sa(dp5069
g2
Vrais khan
p5070
sg4
Vpakistani lady
p5071
sg6
VRais Khan moved to Pakistan after marrying a Pakistani lady.\u000a
p5072
sg8
Vmarry
p5073
sa(dp5074
g2
Vswarmandal
p5075
sg4
Vautoharp
p5076
sg6
VThe swarmandal is similar to the autoharp or zither in many respects.\u000a
p5077
sg8
Vsimilar to
p5078
sa(dp5079
g2
g5075
sg4
Vzither
p5080
sg6
VThe swarmandal is similar to the autoharp or zither in many respects.\u000a
p5081
sg8
Vsimilar to
p5082
sa(dp5083
g2
Vniladri kumar
p5084
sg4
Vindian classical
p5085
sg6
VNiladri Kumar is an Indian classical and fusion musician.\u000a
p5086
sg8
S'is a'
p5087
sa(dp5088
g2
Vniladri kumar
p5089
sg4
Vclassical
p5090
sg6
VNiladri Kumar is an Indian classical and fusion musician.\u000a
p5091
sg8
S'is a'
p5092
sa(dp5093
g2
Vniladri kumar
p5094
sg4
Vfusion musician
p5095
sg6
VNiladri Kumar is an Indian classical and fusion musician.\u000a
p5096
sg8
S'is a'
p5097
sa(dp5098
g2
Vniladri kumar
p5099
sg4
Vmusician
p5100
sg6
VNiladri Kumar is an Indian classical and fusion musician.\u000a
p5101
sg8
S'is a'
p5102
sa(dp5103
g2
Vniladri kumar
p5104
sg4
Vindian musician
p5105
sg6
VNiladri Kumar is an Indian classical and fusion musician.\u000a
p5106
sg8
S'is a'
p5107
sa(dp5108
g2
Vniladri kumar
p5109
sg4
Vhis career
p5110
sg6
VNiladri Kumar began his career with music directors Laxmikant-Pyarelal in the late 1980s.\u000a
p5111
sg8
Vbegin
p5112
sa(dp5113
g2
Vomkarnath thakur
p5114
sg4
Vindian educator
p5115
sg6
VOmkarnath Thakur was an influential Indian educator, musicologist, and Hindustani classical singer.\u000a
p5116
sg8
S'is a'
p5117
sa(dp5118
g2
Vomkarnath thakur
p5119
sg4
Vinfluential educator
p5120
sg6
VOmkarnath Thakur was an influential Indian educator, musicologist, and Hindustani classical singer.\u000a
p5121
sg8
S'is a'
p5122
sa(dp5123
g2
Vomkarnath thakur
p5124
sg4
Veducator
p5125
sg6
VOmkarnath Thakur was an influential Indian educator, musicologist, and Hindustani classical singer.\u000a
p5126
sg8
S'is a'
p5127
sa(dp5128
g2
Vprabha atre
p5129
sg4
Vclassical music
p5130
sg6
VListening to those lessons inspired Prabha Atre to learn classical music.\u000a
p5131
sg8
Vlearn
p5132
sa(dp5133
g2
Vprabha atre
p5134
sg4
Vschool
p5135
sg6
VPrabha Atre then learnt from Sureshbabu Mane and Hirabai Badodekar from the Kirana school for advanced training.\u000a
p5136
sg8
Vlearn from
p5137
sa(dp5138
g2
Vprabha atre
p5139
sg4
Vhirabai_badodekar
p5140
sg6
VPrabha Atre then learnt from Sureshbabu Mane and Hirabai Badodekar from the Kirana school for advanced training.\u000a
p5141
sg8
Vlearn from
p5142
sa(dp5143
g2
Vprabha atre
p5144
sg4
Vsureshbabu mane
p5145
sg6
VPrabha Atre then learnt from Sureshbabu Mane and Hirabai Badodekar from the Kirana school for advanced training.\u000a
p5146
sg8
Vlearn from
p5147
sa(dp5148
g2
Vprabha atre
p5149
sg4
Vsenior vocalist
p5150
sg6
VPrabha Atre is currently one of the senior vocalists in the country representing the Kirana Gharana.\u000a
p5151
sg8
Vof
p5152
sa(dp5153
g2
Vprabha atre
p5154
sg4
Vshort stint
p5155
sg6
VPrabha Atre had a short stint as a singing stage-actress in the early days of Prabha Atre career.\u000a
p5156
sg8
Vhave
p5157
sa(dp5158
g2
Vprabha atre
p5159
sg4
Vbook
p5160
sg6
VPrabha Atre has authored books on the various aspects of music that are especially relevant to the present day performance.\u000a
p5161
sg8
Vauthor
p5162
sa(dp5163
g2
Vprabha atre
p5164
sg4
Vprivate lesson
p5165
sg6
VPrabha Atre has been giving private lessons to students since 1969.\u000a
p5166
sg8
Vgive
p5167
sa(dp5168
g2
Vprabha atre
p5169
sg4
Vacharya_atre_award
p5170
sg6
VIn 1976, Prabha Atre received the Acharya Atre Award for music.\u000a
p5171
sg8
Vreceive
p5172
sa(dp5173
g2
Vbalakrishnabuwa ichalkaranjikar
p5174
sg4
Vkhayal
p5175
sg6
VBalakrishnabuwa Ichalkaranjikar was an Indian vocalist of Khayal - genre of Hindustani classical music.\u000a
p5176
sg8
Vvocalist of
p5177
sa(dp5178
g2
Vbalakrishnabuwa ichalkaranjikar
p5179
sg4
Vindian vocalist
p5180
sg6
VBalakrishnabuwa Ichalkaranjikar was an Indian vocalist of Khayal - genre of Hindustani classical music.\u000a
p5181
sg8
S'is a'
p5182
sa(dp5183
g2
Vbalakrishnabuwa ichalkaranjikar
p5184
sg4
Vvocalist
p5185
sg6
VBalakrishnabuwa Ichalkaranjikar was an Indian vocalist of Khayal - genre of Hindustani classical music.\u000a
p5186
sg8
S'is a'
p5187
sa(dp5188
g2
Vbalakrishnabuwa ichalkaranjikar
p5189
sg4
Vmaharashtra
p5190
sg6
VBalakrishnabuwa Ichalkaranjikar was born in Maharashtra.\u000a
p5191
sg8
Vbear in
p5192
sa(dp5193
g2
Vbalakrishnabuwa ichalkaranjikar
p5194
sg4
Vmaharashtra
p5195
sg6
VBalakrishnabuwa Ichalkaranjikar then returned to Maharashtra, and settled near Miraj because Maharashtra climate suited Balakrishnabuwa Ichalkaranjikar.\u000a
p5196
sg8
Vreturn to
p5197
sa(dp5198
g2
Vbalakrishnabuwa ichalkaranjikar
p5199
sg4
Vmiraj
p5200
sg6
VBalakrishnabuwa Ichalkaranjikar then returned to Maharashtra, and settled near Miraj because Maharashtra climate suited Balakrishnabuwa Ichalkaranjikar.\u000a
p5201
sg8
Vsettle near
p5202
sa(dp5203
g2
Vgharana
p5204
sg4
Vimdadkhani
p5205
sg6
VRajeev Janardan, is a Hindustani classical sitar player of the Imdadkhani gharana, taught by Bimalendu Mukherjee.\u000a
p5206
sg8
Vgharana 's
p5207
sa(dp5208
g2
Vsitar
p5209
sg4
Vbimalendu_mukherjee
p5210
sg6
VRajeev Janardan trained as a singer before switching to the sitar, studying with Bimalendu Mukherjee.\u000a
p5211
sg8
Vstudy with
p5212
sa(dp5213
g2
Vjohar ali khan
p5214
sg4
Vviolinist
p5215
sg6
VJohar Ali Khan is a Classical Indian violinist.\u000a
p5216
sg8
S'is a'
p5217
sa(dp5218
g2
Vjohar ali khan
p5219
sg4
Vindian violinist
p5220
sg6
VJohar Ali Khan is a Classical Indian violinist.\u000a
p5221
sg8
S'is a'
p5222
sa(dp5223
g2
Vjohar ali khan
p5224
sg4
Vclassical violinist
p5225
sg6
VJohar Ali Khan is a Classical Indian violinist.\u000a
p5226
sg8
S'is a'
p5227
sa(dp5228
g2
Vjohar ali khan
p5229
sg4
Vpatiala_gharana
p5230
sg6
VJohar Ali Khan belongs to the Patiala Gharana of Rampur.\u000a
p5231
sg8
Vbelong to
p5232
sa(dp5233
g2
Vjohar ali khan
p5234
sg4
Vindia
p5235
sg6
VJohar Ali Khan also represented India at the SAARC Summit in Bangladesh.\u000a
p5236
sg8
Vrepresent
p5237
sa(dp5238
g2
Vjohar ali khan
p5239
sg4
Vmusic
p5240
sg6
VJohar Ali Khan has composed music for the South Pacific Games on behalf of ICCR, New Delhi.\u000a
p5241
sg8
Vcompose
p5242
sa(dp5243
g2
Vjohar ali khan
p5244
sg4
Vnon-government organization
p5245
sg6
VJohar Ali Khan has performed for several government organizations and non-government organizations, including Radio & television.\u000a
p5246
sg8
Vperform for
p5247
sa(dp5248
g2
Vjohar ali khan
p5249
sg4
Vseveral organization
p5250
sg6
VJohar Ali Khan has performed for several government organizations and non-government organizations, including Radio & television.\u000a
p5251
sg8
Vperform for
p5252
sa(dp5253
g2
Vjohar ali khan
p5254
sg4
Vmember
p5255
sg6
VJohar Ali Khan was a member of advisory committee and general assembly of Indian Council for Cultural Relations.\u000a
p5256
sg8
S'is a'
p5257
sa(dp5258
g2
Vjohar ali khan
p5259
sg4
Vassembly
p5260
sg6
VJohar Ali Khan was a member of advisory committee and general assembly of Indian Council for Cultural Relations.\u000a
p5261
sg8
S'is a'
p5262
sa(dp5263
g2
Vjohar ali khan
p5264
sg4
Vgeneral assembly
p5265
sg6
VJohar Ali Khan was a member of advisory committee and general assembly of Indian Council for Cultural Relations.\u000a
p5266
sg8
S'is a'
p5267
sa(dp5268
g2
Vjohar ali khan
p5269
sg4
Vadvisory committee
p5270
sg6
VJohar Ali Khan was a member of advisory committee and general assembly of Indian Council for Cultural Relations.\u000a
p5271
sg8
Vmember of
p5272
sa(dp5273
g2
Vjohar ali khan
p5274
sg4
Vindian_council_for_cultural_relations
p5275
sg6
VJohar Ali Khan was a member of advisory committee and general assembly of Indian Council for Cultural Relations.\u000a
p5276
sg8
Vassembly of
p5277
sa(dp5278
g2
Vjohar ali khan
p5279
sg4
Vjohar band ali own khan sargam
p5280
sg6
VJohar Ali Khan has created Johar Ali Khan own band Sargam having members belonging to traditional musical families and Gharanas.\u000a
p5281
sg8
Vcreate
p5282
sa(dp5283
g2
Vjohar ali khan
p5284
sg4
Vmember
p5285
sg6
VJohar Ali Khan has created Johar Ali Khan own band Sargam having members belonging to traditional musical families and Gharanas.\u000a
p5286
sg8
Vhave
p5287
sa(dp5288
g2
Vsulochana brahaspati
p5289
sg4
Vvocalist
p5290
sg6
VSulochana Brahaspati is a vocalist and an exponent of the Rampur-Sahaswan gharana.\u000a
p5291
sg8
S'is a'
p5292
sa(dp5293
g2
Vsulochana brahaspati
p5294
sg4
Vexponent
p5295
sg6
VSulochana Brahaspati is a vocalist and an exponent of the Rampur-Sahaswan gharana.\u000a
p5296
sg8
S'is a'
p5297
sa(dp5298
g2
Vsulochana brahaspati
p5299
sg4
Vrampur-sahaswan gharana
p5300
sg6
VSulochana Brahaspati is a vocalist and an exponent of the Rampur-Sahaswan gharana.\u000a
p5301
sg8
Vexponent of
p5302
sa(dp5303
g2
Vgharana
p5304
sg4
Vbenares
p5305
sg6
VPandit Samta Prasad was an Indian classical musician and tabla player from the Benares gharana.\u000a
p5306
sg8
Vgharana 's
p5307
sa(dp5308
g2
Vkarsh kale
p5309
sg4
Vinterest
p5310
sg6
VKarsh Kale took an interest in drums and eventually became a tabla player.\u000a
p5311
sg8
Vtake
p5312
sa(dp5313
g2
Vkarsh kale
p5314
sg4
Vtablum player
p5315
sg6
VKarsh Kale took an interest in drums and eventually became a tabla player.\u000a
p5316
sg8
Vbecome
p5317
sa(dp5318
g2
Vgharana
p5319
sg4
Vetawah
p5320
sg6
VAbhik Mukherjee is an Indian classical sitar artist of the Etawah gharana.\u000a
p5321
sg8
Vgharana 's
p5322
sa(dp5323
g2
Vraga
p5324
sg4
Vtime
p5325
sg6
VThis raga may have originated in Maharashtra about the time of the major Muslim invasions.\u000a
p5326
sg8
Voriginate about
p5327
sa(dp5328
g2
g5324
sg4
Vmaharashtra
p5329
sg6
VThis raga may have originated in Maharashtra about the time of the major Muslim invasions.\u000a
p5330
sg8
Voriginate in
p5331
sa(dp5332
g2
Vdhrupad
p5333
sg4
Vmany overlap
p5334
sg6
VBoth Dhrupad and khyal singing evolved in The Gwalior Gharana and there are many overlaps.\u000a
p5335
sg8
Vbe
p5336
sa(dp5337
g2
Vraga
p5338
sg4
Vless tuning
p5339
sg6
VSome ragas require a less common tuning with shuddh NI, NI-sa-sa-SA.\u000a
p5340
sg8
Vrequire
p5341
sa(dp5342
g2
Vjaipur-atrauli gharana
p5343
sg4
Vhindustani music
p5344
sg6
VMallikarjun Bheemarayappa Mansur was an Indian classical singer of the khyal style in the Jaipur-Atrauli gharana of Hindustani classical music.\u000a
p5345
sg8
Vgharana of
p5346
sa.