(lp0
(lp1
Vvijay sardeshmukh
p2
aVbear in
p3
aVjune_1952
p4
aa(lp5
Valladiya khan
p6
aVknow as
p7
aVgaan samraat
p8
aa(lp9
Valladiya khan
p10
aS'is a'
p11
aVclassical singer
p12
aa(lp13
Valladiya khan
p14
aS'is a'
p15
aVsinger
p16
aa(lp17
Valladiya khan
p18
aS'is a'
p19
aVindian singer
p20
aa(lp21
Vgharana
p22
aVgharana 's
p23
aVagra
p24
aa(lp25
Vgharana
p26
aVbase on
p27
ag22
aa(lp28
g26
aVgharana 's
p29
aVagra
p30
aa(lp31
Valladiya khan
p32
aVserve include
p33
aS'#unknown'
p34
aa(lp35
Valladiya khan
p36
aVserve in
p37
aVcourt
p38
aa(lp39
Vsitar
p40
aS'a type of'
p41
aVmaestro
p42
aa(lp43
Vvilayat khan
p44
aVbear in
p45
aVbritish_india
p46
aa(lp47
Vvilayat khan
p48
aVbear in
p49
aVgauripur
p50
aa(lp51
Vsitar
p52
aS'a type of'
p53
aVmaestro
p54
aa(lp55
Vriyaz
p56
aVriyaz 's
p57
aVzinde uncle his hassan
p58
aa(lp59
Vbandish
p60
aS'a type of'
p61
aVcompose
p62
aa(lp63
Vvilayat khan
p64
aVspend
p65
aVmuch
p66
aa(lp67
Vsitar
p68
aS'a type of'
p69
aVlesson
p70
aa(lp71
V53431
p72
aS'is a'
p73
aVcompilation
p74
aa(lp75
V53431
p76
aVcompilation 's
p77
aVgreatest hits
p78
aa(lp79
V53431
p80
aVcompilation by
p81
aVelectro-pop band swami
p82
aa(lp83
Vgharana
p84
aVgharana 's
p85
aVbhendibazar
p86
aa(lp87
Vmerukhand
p88
aS'is a'
p89
aVpart
p90
aa(lp91
Vgharana
p92
aVgharana 's
p93
aVindore
p94
aa(lp95
Vmerukhand
p96
aVpart of
p97
aVimprovisational strategy
p98
aa(lp99
Vgulubhai jasdanwalla
p100
aVlearn from
p101
aVutd
p102
aa(lp103
Vmanji khan
p104
aVnotice
p105
aVpt
p106
aa(lp107
Vanoushka shankar
p108
aVrelease
p109
aVanoushka_shankar album
p110
aa(lp111
Vanoushka shankar
p112
ag109
aVanoushka
p113
aa(lp114
Vsitar
p115
aS'a type of'
p116
aVbeat
p117
aa(lp118
Vsitar
p119
aS'is a'
p120
aVworldwide
p121
aa(lp122
Vsitar
p123
aVworldwide 's
p124
aVorchestra
p125
aa(lp126
Vanoushka shankar
p127
aVopen
p128
aVshow
p129
aa(lp130
Vanoushka shankar
p131
aVplay
p132
aVsolo sitar
p133
aa(lp134
Vsitar
p135
aS'a type of'
p136
aVplayer
p137
aa(lp138
Vsarod
p139
aS'a type of'
p140
aVplayer
p141
aa(lp142
g139
aS'a type of'
p143
aVplaying
p144
aa(lp145
Vsarod
p146
aS'a type of'
p147
aVplayer
p148
aa(lp149
Vsarod
p150
aS'a type of'
p151
aVplayer
p152
aa(lp153
Vgharana
p154
aVgharana of
p155
aVhindustani music
p156
aa(lp157
g154
aVgharana 's
p158
aVmewati
p159
aa(lp160
Vgharana
p161
aS'a type of'
p162
aVstyle
p163
aa(lp164
Vgharana
p165
aVgharana 's
p166
aVpatiala
p167
aa(lp168
Vgharana
p169
aVgharana 's
p170
aVjaipur-atrauli
p171
aa(lp172
Vgharana
p173
aVgharana of
p174
aVmusic
p175
aa(lp176
Vsabir khan
p177
aVsikar
p178
ag173
aa(lp179
Vsabir khan
p180
aVperform alongside
p181
aVartist
p182
aa(lp183
Vkaushiki chakrabarty
p184
aS'is a'
p185
aVindian vocalist
p186
aa(lp187
Vkaushiki chakrabarty
p188
aS'is a'
p189
aVvocalist
p190
aa(lp191
Vkaushiki chakrabarty
p192
aS'is a'
p193
aVprominent vocalist
p194
aa(lp195
Vkaushiki chakrabarty
p196
aS'is a'
p197
aVclassical vocalist
p198
aa(lp199
Vkaushiki chakrabarty
p200
aVbear in
p201
aVindia
p202
aa(lp203
Vkaushiki chakrabarty
p204
aVbear in
p205
aVkolkata
p206
aa(lp207
Vkaushiki chakrabarty
p208
aVcomplete
p209
aVschooling
p210
aa(lp211
Vbhinnashadaja
p212
aVof
p213
aVhindustani_classical_music
p214
aa(lp215
Vlakshmi shankar
p216
aVpass on
p217
aV30
p218
aa(lp219
Vlakshmi shankar
p220
aVpass on
p221
aV30
p222
aa(lp223
Vlakshmi shankar
p224
aVpass in
p225
aVusa
p226
aa(lp227
Vraga
p228
aVname for
p229
aVgentle incarnation
p230
aa(lp231
Vraga
p232
aVrelate to
p233
aVraga asavari
p234
aa(lp235
Vraga
p236
aS'a type of'
p237
aVmalum
p238
aa(lp239
Vasavari
p240
aS'a type of'
p241
aVthat
p242
aa(lp243
Vthumri
p244
aVthumri from
p245
aVfeminist perspective
p246
aa(lp247
Vshamim ahmed khan
p248
aS'is a'
p249
aVstudent
p250
aa(lp251
Vshamim ahmed khan
p252
aVstudent of
p253
aVpandit ravi_shankar
p254
aa(lp255
Vraga
p256
aS'a type of'
p257
aVmusic
p258
aa(lp259
Vsarangi
p260
aS'a type of'
p261
aVplayer
p262
aa(lp263
Vgharana
p264
aVgharana of
p265
aVindian music
p266
aa(lp267
g264
aVgharana 's
p268
aVsufiana
p269
aa(lp270
Vabdul wahid khan
p271
aS'is a'
p272
aVclassical singer
p273
aa(lp274
Vabdul wahid khan
p275
aS'is a'
p276
aVsinger
p277
aa(lp278
Vabdul wahid khan
p279
aS'is a'
p280
aVindian singer
p281
aa(lp282
Vgharana
p283
aVgharana 's
p284
aVkirana
p285
aa(lp286
Vgharana
p287
aS'a type of'
p288
aVfamily
p289
aa(lp290
Vanand bhate
p291
aS'is a'
p292
aVclassical vocalist
p293
aa(lp294
Vanand bhate
p295
aS'is a'
p296
aVvocalist
p297
aa(lp298
Vanand bhate
p299
aVvocalist 's
p300
aVhindustani
p301
aa(lp302
Vanand bhate
p303
aVvocalist from
p304
aVkirana_gharana
p305
aa(lp306
Vanand bhate
p307
aVknow as
p308
aVanand_gandharva
p309
aa(lp310
Vanand bhate
p311
aVbear in
p312
aV1971
p313
aa(lp314
Vanand bhate
p315
aVbear in
p316
aVfamily active
p317
aa(lp318
Vanand bhate
p319
aVbear in
p320
aVindia
p321
aa(lp322
Vanand bhate
p323
aVbear in
p324
aVclassical music
p325
aa(lp326
Vanand bhate
p327
aVbear in
p328
aVpune
p329
aa(lp330
Vkhyal
p331
aS'is a'
p332
aVgenre
p333
aa(lp334
Vkhyal
p335
aS'is a'
p336
aVmodern genre
p337
aa(lp338
Vkhyal
p339
aVgenre of
p340
aVclassical singing
p341
aa(lp342
Vdrut
p343
aS'a type of'
p344
aVtempo
p345
aa(lp346
Vkhyal
p347
aS'a type of'
p348
aVperformance
p349
aa(lp350
Vindore gharana
p351
aVsinging from
p352
aVustad_amir khan
p353
aa(lp354
Vsitar
p355
aS'a type of'
p356
aVplayer
p357
aa(lp358
Vdhrupad
p359
aS'a type of'
p360
aVsinger
p361
aa(lp362
Vgharana
p363
aVgharana of
p364
aVvocal music
p365
aa(lp366
g363
aVgharana 's
p367
aVgwalior
p368
aa(lp369
Vmalabika kanan
p370
aS'is a'
p371
aVhindustani vocalist
p372
aa(lp373
Vmalabika kanan
p374
aS'is a'
p375
aVvocalist
p376
aa(lp377
Vmalabika kanan
p378
aS'is a'
p379
aVclassical vocalist
p380
aa(lp381
Vmalabika kanan
p382
aVbear to
p383
aVrabindralal_roy
p384
aa(lp385
Vmalabika kanan
p386
aVbear in
p387
aVlucknow
p388
aa(lp389
Vmalabika kanan
p390
aVdie
p391
aVfebruary_17_,_2009
p392
aa(lp393
Vdhrupad
p394
aS'a type of'
p395
aVstyle
p396
aa(lp397
Vdhrupad
p398
aS'a type of'
p399
aVstyle
p400
aa(lp401
Vvivadi
p402
aS'a type of'
p403
aVswaram
p404
aa(lp405
Vraga
p406
aVraga 's
p407
aVpopular vivadi
p408
aa(lp409
Vvivadi
p410
aS'a type of'
p411
aVswaram
p412
aa(lp413
Vsantoor
p414
aVof
p415
aVmaihar gharana
p416
aa(lp417
Vdebasis chakroborty
p418
aS'is a'
p419
aVclassical player
p420
aa(lp421
Vdebasis chakroborty
p422
aS'is a'
p423
aVslide player
p424
aa(lp425
Vdebasis chakroborty
p426
aS'is a'
p427
aVplayer
p428
aa(lp429
Vdebasis chakroborty
p430
aS'is a'
p431
aVindian player
p432
aa(lp433
Vdebasis chakroborty
p434
aS'is a'
p435
aVguitar player
p436
aa(lp437
Vdebasis chakroborty
p438
aVbelong to
p439
aVsenia-maihar gharana
p440
aa(lp441
Vdebasis chakroborty
p442
aVlearn
p443
aVguitar
p444
aa(lp445
Vrishab prasanna
p446
aS'is a'
p447
aVflute
p448
aa(lp449
Vrishab prasanna
p450
aS'is a'
p451
aVplayer
p452
aa(lp453
Vrishab prasanna
p454
aS'is a'
p455
aVindian player
p456
aa(lp457
Vrishab prasanna
p458
aS'is a'
p459
aVbansurus player
p460
aa(lp461
Vrishab prasanna
p462
aS'is a'
p463
aVindian flute
p464
aa(lp465
Vrishab prasanna
p466
aVbear in
p467
aVnew_delhi
p468
aa(lp469
Vrishab prasanna
p470
aVlearn
p471
aVindian music
p472
aa(lp473
Vtappa
p474
aS'is a'
p475
aVform
p476
aa(lp477
Vtappa
p478
aVform of
p479
aVindian music
p480
aa(lp481
Vtappa
p482
aVcall as
p483
aVnidhu_babus_tappa
p484
aa(lp485
g482
aVcall in
p486
aVbengal
p487
aa(lp488
g482
aVtappa 's
p489
aVbengali
p490
aa(lp491
Vtappa
p492
aVtappa 's
p493
aVbengali
p494
aa(lp495
Vsanam marvi
p496
aVdebut at
p497
aVprogramme
p498
aa(lp499
Vsanam marvi
p500
aVdebut at
p501
aVvirsa_heritage '
p502
aa(lp503
Vsanam marvi
p504
aVpopular after
p505
aVperformance
p506
aa(lp507
Vsanam marvi
p508
aVperform
p509
aVsufi concert
p510
aa(lp511
Vjahan-e-khusrau
p512
aS'is a'
p513
aVfestival
p514
aa(lp515
Vjahan-e-khusrau
p516
aS'is a'
p517
aVmusic festival
p518
aa(lp519
Vjahan-e-khusrau
p520
aVfestival 's
p521
aVsufi
p522
aa(lp523
Vsanam marvi
p524
aVmake
p525
aVdebut
p526
aa(lp527
Vrasoolan bai
p528
aS'is a'
p529
aVmusician
p530
aa(lp531
Vrasoolan bai
p532
aS'is a'
p533
aVvocal musician
p534
aa(lp535
Vrasoolan bai
p536
aS'is a'
p537
aVhindustani musician
p538
aa(lp539
Vrasoolan bai
p540
aS'is a'
p541
aVclassical musician
p542
aa(lp543
Vrasoolan bai
p544
aS'is a'
p545
aVlead musician
p546
aa(lp547
Vrasoolan bai
p548
aS'is a'
p549
aVindian musician
p550
aa(lp551
Vrasoolan bai
p552
aS'is a'
p553
aVmusic musician
p554
aa(lp555
Vgharana
p556
aVgharana 's
p557
aVpatiala
p558
aa(lp559
Vkeherwa
p560
aVhave
p561
aVmany variation
p562
aa(lp563
Vfaiyaz khan
p564
aVof
p565
aVagra gharana
p566
aa(lp567
Vdhrupad
p568
aS'is a'
p569
aVstyle
p570
aa(lp571
Vdhrupad
p572
aVstyle of
p573
aVagra gharana
p574
aa(lp575
Vdhrupad
p576
aVstyle 's
p577
aVkhayal
p578
aa(lp579
Vgharana
p580
aVgharana 's
p581
aVjaipur-atrauli
p582
aa(lp583
Vgharana
p584
aVgharana 's
p585
aVjaipur-atrauli
p586
aa(lp587
Vgharana
p588
aVgharana 's
p589
aVjaipur-atrauli
p590
aa(lp591
Vkumar gandharva
p592
aVstart
p593
aVshri ram sangeet mahavidyalaya
p594
aa(lp595
Vimrat khan
p596
aS'is a'
p597
aVsitar
p598
aa(lp599
Vimrat khan
p600
aS'is a'
p601
aVplayer
p602
aa(lp603
Vimrat khan
p604
aS'is a'
p605
aVlead sitar
p606
aa(lp607
Vimrat khan
p608
aS'is a'
p609
aVsurbahar player
p610
aa(lp611
Vsurbahar
p612
aS'a type of'
p613
aVplayer
p614
aa(lp615
Vimrat khan
p616
aVbrother of
p617
aVvilayat ustad maestro sitar khan
p618
aa(lp619
Vimrat khan
p620
aS'is a'
p621
aVyounger brother
p622
aa(lp623
Vimrat khan
p624
aS'is a'
p625
aVbrother
p626
aa(lp627
Vsurbahar
p628
aS'a type of'
p629
aVtradition
p630
aa(lp631
Vtappa
p632
aS'a type of'
p633
aVsinging
p634
aa(lp635
Vsitar
p636
aS'a type of'
p637
aVplayer
p638
aa(lp639
Vsurbahar
p640
aS'a type of'
p641
aVplayer
p642
aa(lp643
Vwahid khan
p644
aVserve
p645
aVpatiala_darbar
p646
aa(lp647
Vwahid khan
p648
aVperformer at
p649
aVall_india_radio
p650
aa(lp651
Vwahid khan
p652
aS'is a'
p653
aVperformer
p654
aa(lp655
Vwahid khan
p656
aS'is a'
p657
aVregular performer
p658
aa(lp659
Vbharatiya sangeet vadya
p660
aS'is a'
p661
aVbook
p662
aa(lp663
Vsitar
p664
aS'a type of'
p665
aVplayer
p666
aa(lp667
Vkumar bose
p668
aVcomposer of
p669
aVindian music
p670
aa(lp671
Vkumar bose
p672
aS'is a'
p673
aVindian composer
p674
aa(lp675
Vkumar bose
p676
aS'is a'
p677
aVtablum maestro
p678
aa(lp679
Vkumar bose
p680
aS'is a'
p681
aVindian maestro
p682
aa(lp683
Vkumar bose
p684
aS'is a'
p685
aVcomposer
p686
aa(lp687
Vkumar bose
p688
aS'is a'
p689
aVmaestro
p690
aa(lp691
Vequalize
p692
aValbum 's
p693
aVurban desi
p694
aa(lp695
Vequalize
p696
aS'is a'
p697
aValbum
p698
aa(lp699
Vtafo khan
p700
aVform in
p701
aVgharana
p702
aa(lp703
g702
aVgharana 's
p704
aVpunjab
p705
aa(lp706
Vnatya sangeet
p707
aS'is a'
p708
aVform
p709
aa(lp710
Vnatya sangeet
p711
aVform of
p712
aVindian music
p713
aa(lp714
Vnatya sangeet
p715
aVform of
p716
aVindian music
p717
aa(lp718
Vmogubai kurdikar
p719
aS'is a'
p720
aVmusic vocalist
p721
aa(lp722
Vmogubai kurdikar
p723
aS'is a'
p724
aVvocalist
p725
aa(lp726
Vmogubai kurdikar
p727
aS'is a'
p728
aVclassical vocalist
p729
aa(lp730
Vgharana
p731
aVgharana 's
p732
aVjaipur-atrauli
p733
aa(lp734
Vmogubai kurdikar
p735
aVvocalist of
p736
ag731
aa(lp737
Vmogubai kurdikar
p738
aVvocalist 's
p739
aVrenowned hindustani
p740
aa(lp741
Valladiya khan
p742
aVmove to
p743
aVbombay
p744
aa(lp745
Valladiya khan
p746
aVmove after
p747
aVmonth
p748
aa(lp749
Varup chattopadhyay
p750
aS'is a'
p751
aVtablum player
p752
aa(lp753
Varup chattopadhyay
p754
aS'is a'
p755
aVindian player
p756
aa(lp757
Varup chattopadhyay
p758
aS'is a'
p759
aVplayer
p760
aa(lp761
Varup chattopadhyay
p762
aVlearn
p763
aVtablum
p764
aa(lp765
Vanupam shobhakar
p766
aVrecord
p767
aValbum awakening
p768
aa(lp769
Vanupam shobhakar
p770
aVdescribe
p771
aVsound
p772
aa(lp773
Vgharana
p774
aVcombine
p775
aVmusical tradition
p776
aa(lp777
Vgharana
p778
aVhave
p779
aVnotable pupil
p780
aa(lp781
Vsarangi
p782
aS'a type of'
p783
aVplayer
p784
aa(lp785
g782
aS'a type of'
p786
aVcomposer
p787
aa(lp788
Vsurinder sandhu
p789
aS'is a'
p790
aVsarangi player
p791
aa(lp792
Vsurinder sandhu
p793
aS'is a'
p794
aVplayer
p795
aa(lp796
Vsurinder sandhu
p797
aS'is a'
p798
aVcomposer
p799
aa(lp800
Vsurinder sandhu
p801
aS'is a'
p802
aVsarangi composer
p803
aa(lp804
Vsurinder sandhu
p805
aS'is a'
p806
aVstudent
p807
aa(lp808
Vgharana
p809
aVgharana 's
p810
aVsenia_rampur_moradabad
p811
aa(lp812
Vsurinder sandhu
p813
aVstudent of
p814
aVsabri khan
p815
aa(lp816
Vsurinder sandhu
p817
aVstudent of
p818
ag809
aa(lp819
Vsurinder sandhu
p820
aVcompose in
p821
aVmultiple genre
p822
aa(lp823
Vhirabai barodekar
p824
aS'is a'
p825
aVclassical singer
p826
aa(lp827
Vhirabai barodekar
p828
aS'is a'
p829
aVsinger
p830
aa(lp831
Vhirabai barodekar
p832
aS'is a'
p833
aVmusic singer
p834
aa(lp835
Vhirabai barodekar
p836
aVsinger of
p837
aVkirana gharana
p838
aa(lp839
Vhirabai barodekar
p840
aVsinger 's
p841
aVindian renowned hindustani
p842
aa(lp843
Vhirabai barodekar
p844
aS'is a'
p845
aVexpert
p846
aa(lp847
Vhirabai barodekar
p848
aVexpert in
p849
aVkhyal
p850
aa(lp851
Vhirabai barodekar
p852
aS'is a'
p853
aVpioneer
p854
aa(lp855
Vhirabai barodekar
p856
aVpioneer of
p857
aVconcert
p858
aa(lp859
Vhirabai barodekar
p860
aVpopular on
p861
aVstage
p862
aa(lp863
Vhirabai barodekar
p864
aVmake
p865
aVkirana gharana
p866
aa(lp867
Vhirabai barodekar
p868
aVact include
p869
aVsuvarna_mandir
p870
aa(lp871
Vhirabai barodekar
p872
aVact in
p873
aVseveral movie
p874
aa(lp875
Vhirabai barodekar
p876
aVstart
p877
aVmusic school
p878
aa(lp879
Vhirabai barodekar
p880
ag877
aVnutan_sangeet_vidyalaya
p881
aa(lp882
Vhirabai barodekar
p883
aVteach
p884
aVmusic
p885
aa(lp886
Vhirabai barodekar
p887
aVbecome
p888
aVrecording artist
p889
aa(lp890
Vhirabai barodekar
p891
aVreceive
p892
aVseveral award
p893
aa(lp894
Vsumati mutatkar
p895
aVstudent of
p896
aVbhatkhande_music_institute
p897
aa(lp898
Vsumati mutatkar
p899
aVstudent at
p900
aVlucknow
p901
aa(lp902
Vsumati mutatkar
p903
aVstudent under
p904
aVs._n._ratanjankar
p905
aa(lp906
Vsumati mutatkar
p907
aS'is a'
p908
aVstudent
p909
aa(lp910
Valka yagnik
p911
aVbe amongst
p912
aVplayback singer
p913
aa(lp914
Valka yagnik
p915
aS'is a'
p916
aVleading singer
p917
aa(lp918
Valka yagnik
p919
aS'is a'
p920
aVsinger
p921
aa(lp922
Valka yagnik
p923
aS'is a'
p924
aVplayback singer
p925
aa(lp926
Valka yagnik
p927
aS'is a'
p928
aVonly singer
p929
aa(lp930
Valka yagnik
p931
aVbear on
p932
aV20
p933
aa(lp934
Valka yagnik
p935
aVbear in
p936
aVkolkata
p937
aa(lp938
Valka yagnik
p939
aVsing
p940
aVbhajan
p941
aa(lp942
Valka yagnik
p943
aVget
p944
aVbig break
p945
aa(lp946
Valka yagnik
p947
aVsing
p948
aVmany duet
p949
aa(lp950
Valka yagnik
p951
aVrender
p952
aVhanuman song
p953
aa(lp954
Vpakad
p955
aVpakad for
p956
aVyaman
p957
aa(lp958
g955
aVbe for
p959
aVexample
p960
aa(lp961
Vsitar
p962
aVleave on
p963
aVset
p964
aa(lp965
g962
aVleave as
p966
aS'#unknown'
p967
aa(lp968
g962
aVplay
p969
aVit
p970
aa(lp971
Vsitar
p972
aS'a type of'
p973
aValbum
p974
aa(lp975
Vsitar
p976
aS'a type of'
p977
aVplayer
p978
aa(lp979
Vkirit khan
p980
aVdie to
p981
aVkidney failure
p982
aa(lp983
Vkirit khan
p984
aVdie in
p985
aV2006
p986
aa(lp987
Vsitar
p988
aVsitar in
p989
aVindian_music_academy
p990
aa(lp991
Vraga
p992
aS'a type of'
p993
aVperformance
p994
aa(lp995
Vsarod
p996
aS'a type of'
p997
aVplayer
p998
aa(lp999
Vsarod
p1000
aS'a type of'
p1001
aVplaying
p1002
aa(lp1003
Vsudhirkumar saxena
p1004
aVperform
p1005
aVart
p1006
aa(lp1007
Vgharana
p1008
aVgharana 's
p1009
aVajrada
p1010
aa(lp1011
Vsudhirkumar saxena
p1012
aVlearn
p1013
aVtablum
p1014
aa(lp1015
Vtappa
p1016
aS'a type of'
p1017
aVtext
p1018
aa(lp1019
g1016
aS'a type of'
p1020
aVform
p1021
aa(lp1022
Vswara
p1023
aVword 's
p1024
aVsanskrit
p1025
aa(lp1026
Vswara
p1027
aS'is a'
p1028
aVword
p1029
aa(lp1030
Vswara
p1031
aVmean
p1032
aVnote
p1033
aa(lp1034
Vswara
p1035
aVswara in
p1036
aVmusic
p1037
aa(lp1038
Vswara
p1039
aVassociate with
p1040
aVone
p1041
aa(lp1042
Vraga
p1043
aS'a type of'
p1044
aV's
p1045
aa(lp1046
Vjugalbandi
p1047
aS'a type of'
p1048
aVstyle
p1049
aa(lp1050
Vayaan ali khan
p1051
aVrepresent
p1052
aVseventh generation
p1053
aa(lp1054
Vektal
p1055
aVuse in
p1056
aVclassical music
p1057
aa(lp1058
Vektal
p1059
aVuse in
p1060
aVsemiclassical form
p1061
aa(lp1062
Varvind parikh
p1063
aS'is a'
p1064
aVplayer
p1065
aa(lp1066
Varvind parikh
p1067
aS'is a'
p1068
aVclassical musician
p1069
aa(lp1070
Varvind parikh
p1071
aS'is a'
p1072
aVmusician
p1073
aa(lp1074
Varvind parikh
p1075
aS'is a'
p1076
aVsitar player
p1077
aa(lp1078
Vsitar
p1079
aS'a type of'
p1080
aVplayer
p1081
aa(lp1082
Varvind parikh
p1083
aVmusician 's
p1084
aVhindustani
p1085
aa(lp1086
Varvind parikh
p1087
aVget
p1088
aVadmission
p1089
aa(lp1090
Varvind parikh
p1091
aVhave
p1092
aVperform career
p1093
aa(lp1094
Varvind parikh
p1095
aVspan over
p1096
aVsix
p1097
aa(lp1098
Varvind parikh
p1099
aS'is a'
p1100
aVbroadcaster
p1101
aa(lp1102
Varvind parikh
p1103
aS'is a'
p1104
aVregular broadcaster
p1105
aa(lp1106
Varvind parikh
p1107
aVbroadcaster on
p1108
aVall_india_radio
p1109
aa(lp1110
Varvind parikh
p1111
aS'is a'
p1112
aVgrade artist
p1113
aa(lp1114
Varvind parikh
p1115
aS'is a'
p1116
aVartist
p1117
aa(lp1118
Varvind parikh
p1119
aS'is a'
p1120
aVbroadcaster
p1121
aa(lp1122
Varvind parikh
p1123
aS'is a'
p1124
aVtop artist
p1125
aa(lp1126
Varvind parikh
p1127
aS'is a'
p1128
aVregular broadcaster
p1129
aa(lp1130
Varvind parikh
p1131
aVbroadcaster of
p1132
aVall_india_radio
p1133
aa(lp1134
Varvind parikh
p1135
aVhandle
p1136
aVmusic
p1137
aa(lp1138
Varvind parikh
p1139
ag1136
aVpursuit
p1140
aa(lp1141
Vvichitra veena
p1142
aVveena from
p1143
aVkhan ustad_abdul_aziz beenkar
p1144
aa(lp1145
Vgharana
p1146
aVgharana of
p1147
aVsitar
p1148
aa(lp1149
Vsitar
p1150
aVsitar in
p1151
aVpakistan
p1152
aa(lp1153
Vvilayat khan
p1154
aS'is a'
p1155
aVadmiration
p1156
aa(lp1157
Vvilayat khan
p1158
aVadmiration 's
p1159
aVyoung jagannath
p1160
aa(lp1161
Vvilambit
p1162
aS'a type of'
p1163
aVgayakus
p1164
aa(lp1165
Vbansuri guru
p1166
aS'is a'
p1167
aVindian film
p1168
aa(lp1169
Vbansuri guru
p1170
aS'is a'
p1171
aVdocumentary film
p1172
aa(lp1173
Vbansuri guru
p1174
aS'is a'
p1175
aV2013 film
p1176
aa(lp1177
Vbansuri guru
p1178
aS'is a'
p1179
aVfilm
p1180
aa(lp1181
Vbansuri guru
p1182
aVfilm about
p1183
aVlife
p1184
aa(lp1185
Vbansuri
p1186
aS'a type of'
p1187
aVdebut
p1188
aa(lp1189
Vraga
p1190
aS'a type of'
p1191
aVform
p1192
aa(lp1193
Vgharana
p1194
aVgharana 's
p1195
aVjaipur-atrauli
p1196
aa(lp1197
Vsarod
p1198
aS'a type of'
p1199
aVplayer
p1200
aa(lp1201
Vsitar
p1202
aS'a type of'
p1203
aVplaying
p1204
aa(lp1205
Vkalyani bondre
p1206
aVbear into
p1207
aVmusical family
p1208
aa(lp1209
Vkalyani bondre
p1210
aVbear in
p1211
aVpune
p1212
aa(lp1213
Vkalyani bondre
p1214
aVbear in
p1215
aVindia
p1216
aa(lp1217
Vsurbahar
p1218
aS'a type of'
p1219
aVplayer
p1220
aa(lp1221
Vkhyal
p1222
aS'a type of'
p1223
aVsinging
p1224
aa(lp1225
Vsitar
p1226
aS'a type of'
p1227
aVplayer
p1228
aa(lp1229
Vsitar
p1230
aS'a type of'
p1231
aVquintet
p1232
aa(lp1233
Vsantoor
p1234
aS'is a'
p1235
aVinstrument
p1236
aa(lp1237
Vsantoor
p1238
aS'is a'
p1239
aVfolk instrument
p1240
aa(lp1241
Vsantoor
p1242
aVinstrument from
p1243
aVjammu
p1244
aa(lp1245
Vsantoor
p1246
aVinstrument from
p1247
aVkashmir
p1248
aa(lp1249
Vdildar hussain
p1250
aVtour with
p1251
aVnusrat_fateh_ali_khan
p1252
aa(lp1253
Vdildar hussain
p1254
aVlearn
p1255
aVtablum
p1256
aa(lp1257
Vveena sahasrabuddhe
p1258
aVcomposer of
p1259
aVhindustani music
p1260
aa(lp1261
Vveena sahasrabuddhe
p1262
aS'is a'
p1263
aVindian vocalist
p1264
aa(lp1265
Vveena sahasrabuddhe
p1266
aS'is a'
p1267
aVvocalist
p1268
aa(lp1269
Vveena sahasrabuddhe
p1270
aS'is a'
p1271
aVcomposer
p1272
aa(lp1273
Vveena sahasrabuddhe
p1274
aS'is a'
p1275
aVlead vocalist
p1276
aa(lp1277
Vveena sahasrabuddhe
p1278
aVknow as
p1279
aVsinger
p1280
aa(lp1281
Vveena sahasrabuddhe
p1282
aVknow as
p1283
aVbhajan
p1284
aa(lp1285
Vveena sahasrabuddhe
p1286
aVbear in
p1287
aVmusical family
p1288
aa(lp1289
Vveena sahasrabuddhe
p1290
aVlearn
p1291
aVdancing
p1292
aa(lp1293
Vveena sahasrabuddhe
p1294
aS'is a'
p1295
aVhead
p1296
aa(lp1297
Vveena sahasrabuddhe
p1298
aVhead of
p1299
aVdepartment_of_music
p1300
aa(lp1301
Vveena sahasrabuddhe
p1302
aVgive
p1303
aVmusical performance
p1304
aa(lp1305
Vsantoor
p1306
aVsantoor 's
p1307
aVshivkumar_sharma
p1308
aa(lp1309
Vdhrupad
p1310
aS'a type of'
p1311
aVgenre
p1312
aa(lp1313
Vsitar
p1314
aS'a type of'
p1315
aVplayer
p1316
aa(lp1317
Vsuphala
p1318
aS'is a'
p1319
aVtablum artist
p1320
aa(lp1321
Vsuphala
p1322
aS'is a'
p1323
aVartist
p1324
aa(lp1325
Vsuphala
p1326
aVstudy
p1327
aVmusic
p1328
aa(lp1329
Vsuphala
p1330
aS'is a'
p1331
aVfirst artist
p1332
aa(lp1333
Vsuphala
p1334
aS'is a'
p1335
aVartist
p1336
aa(lp1337
Vsuphala
p1338
aVperform after
p1339
aVfall
p1340
aa(lp1341
Vsuphala
p1342
aVperform in
p1343
aVafghanistan
p1344
aa(lp1345
Vsuphala
p1346
aS'a type of'
p1347
aValbum
p1348
aa(lp1349
Vsarod
p1350
aS'a type of'
p1351
aVplayer
p1352
aa(lp1353
Vnityanand haldipur
p1354
aS'is a'
p1355
aVperformer
p1356
aa(lp1357
Vnityanand haldipur
p1358
aS'is a'
p1359
aVteacher
p1360
aa(lp1361
Vnityanand haldipur
p1362
aVteacher of
p1363
aVbamboo flute
p1364
aa(lp1365
Vgharana
p1366
aVgharana 's
p1367
aVmaihar
p1368
aa(lp1369
Vgharana
p1370
aVgharana of
p1371
aVhindustani music
p1372
aa(lp1373
g1370
aVgharana of
p1374
aVmusicologist
p1375
aa(lp1376
g1370
aVgharana 's
p1377
aVfarukhabad
p1378
aa(lp1379
Vbadeji khan
p1380
aVchild of
p1381
aVutd
p1382
aa(lp1383
Vbadeji khan
p1384
aS'is a'
p1385
aVson
p1386
aa(lp1387
Vbadeji khan
p1388
aS'is a'
p1389
aVfirst child
p1390
aa(lp1391
Vbadeji khan
p1392
aS'is a'
p1393
aVfirst son
p1394
aa(lp1395
Vbadeji khan
p1396
aS'is a'
p1397
aVchild
p1398
aa(lp1399
Valladiya khan
p1400
aVbe
p1401
aVprospective student
p1402
aa(lp1403
Vbadeji khan
p1404
aVcomplete
p1405
aVustad_nasiruddin_badeji_khan tutelage
p1406
aa(lp1407
Vbadeji khan
p1408
aVlearn
p1409
aVmusic briefly
p1410
aa(lp1411
Vbadeji khan
p1412
aVnot produce
p1413
aVnotable disciple
p1414
aa(lp1415
Vsarod
p1416
aS'a type of'
p1417
aVmusic
p1418
aa(lp1419
Vraga
p1420
aS'a type of'
p1421
aVscale
p1422
aa(lp1423
Vgharana
p1424
aVgharana 's
p1425
aVagra
p1426
aa(lp1427
Vdayal thakur
p1428
aVprovide
p1429
aVvocal
p1430
aa(lp1431
Vdayal thakur
p1432
aVlive with
p1433
aVwife
p1434
aa(lp1435
Vdayal thakur
p1436
aVlive with
p1437
aVchild
p1438
aa(lp1439
Vdayal thakur
p1440
aVlive in
p1441
aVbombay
p1442
aa(lp1443
Vsitar
p1444
aS'a type of'
p1445
aVplayer
p1446
aa(lp1447
Virshad khan
p1448
aS'is a'
p1449
aVsurbahar
p1450
aa(lp1451
Virshad khan
p1452
aS'is a'
p1453
aVsitar player
p1454
aa(lp1455
Virshad khan
p1456
aS'is a'
p1457
aVplayer
p1458
aa(lp1459
Virshad khan
p1460
aVson of
p1461
aVustad imrat khan
p1462
aa(lp1463
Virshad khan
p1464
aS'is a'
p1465
aVsecond son
p1466
aa(lp1467
Virshad khan
p1468
aS'is a'
p1469
aVson
p1470
aa(lp1471
Virshad khan
p1472
aVperform
p1473
aVpure classical
p1474
aa(lp1475
Virshad khan
p1476
aVpresident of
p1477
aVuniversal_academy_for_musicians
p1478
aa(lp1479
Virshad khan
p1480
aS'is a'
p1481
aVfounder president
p1482
aa(lp1483
Virshad khan
p1484
aS'is a'
p1485
aV/ president
p1486
aa(lp1487
Virshad khan
p1488
aS'is a'
p1489
aVpresident
p1490
aa(lp1491
Virshad khan
p1492
aVhave
p1493
aVmany recording
p1494
aa(lp1495
Vgharana
p1496
aVgharana 's
p1497
aVgwalior
p1498
aa(lp1499
Vvidyadhar vyas
p1500
aVbear to
p1501
aVgayanacharya_pandit_narayanrao_vyas
p1502
aa(lp1503
Vvidyadhar vyas
p1504
aVbear in
p1505
aVmaharashtra
p1506
aa(lp1507
Vsitar
p1508
aS'a type of'
p1509
aVplayer
p1510
aa(lp1511
Vgharana
p1512
aVgharana 's
p1513
aVpatiala
p1514
aa(lp1515
g1512
aVfavor
p1516
aVpentatonic raga
p1517
aa(lp1518
Vsitar
p1519
aS'a type of'
p1520
aVmaker
p1521
aa(lp1522
Vhiren roy
p1523
aVmake
p1524
aVhiren_roy
p1525
aa(lp1526
Vhiren roy
p1527
ag1524
aVown sitar
p1528
aa(lp1529
Vhiren roy
p1530
aVdie in
p1531
aVdecember_1992
p1532
aa(lp1533
Vraju ananthaswamy
p1534
aVbe
p1535
aVtalented singer
p1536
aa(lp1537
Vbhaskar chandavarkar
p1538
aVstudy
p1539
aVpune
p1540
aa(lp1541
Vbhaskar chandavarkar
p1542
aVstudy
p1543
aVcontemporary music
p1544
aa(lp1545
Vbhaskar chandavarkar
p1546
ag1543
aVcontemporary music
p1547
aa(lp1548
Vbhaskar chandavarkar
p1549
aVreceive
p1550
aVacclaim
p1551
aa(lp1552
Vjugalbandi
p1553
aVjugalbandi with
p1554
aVlead instrumentalist
p1555
aa(lp1556
Vgayaki
p1557
aVdifferent from
p1558
aVother
p1559
aa(lp1560
Vgayaki
p1561
aVdifferent in
p1562
aVdilli_gharana
p1563
aa(lp1564
Vvilambit
p1565
aS'a type of'
p1566
aVkhayal
p1567
aa(lp1568
Vdrut
p1569
aS'a type of'
p1570
aVkhayal
p1571
aa(lp1572
Vraga
p1573
aVappear as
p1574
aVfirst raginus
p1575
aa(lp1576
g1573
aVappear in
p1577
aVragmala
p1578
aa(lp1579
Vraga
p1580
aVraga 's
p1581
aVsri
p1582
aa(lp1583
Vraga
p1584
aVperform during
p1585
aVevening
p1586
aa(lp1587
Vraga
p1588
aVraga from
p1589
aV719 page
p1590
aa(lp1591
Vbandish
p1592
aVprovide
p1593
aVliterature element
p1594
aa(lp1595
Vsriram parasuram
p1596
aS'is a'
p1597
aVhindustani vocalist
p1598
aa(lp1599
Vsriram parasuram
p1600
aS'is a'
p1601
aVvocalist
p1602
aa(lp1603
Vsriram parasuram
p1604
aS'is a'
p1605
aVclassical vocalist
p1606
aa(lp1607
Vsriram parasuram
p1608
aVplay
p1609
aVviolin
p1610
aa(lp1611
Vomkarnath thakur
p1612
aVteach
p1613
aVmusic producer
p1614
aa(lp1615
Vomkarnath thakur
p1616
aVplay
p1617
aVsarangus
p1618
aa(lp1619
Vomkarnath thakur
p1620
aVcontribute
p1621
aVvocal
p1622
aa(lp1623
Vomkarnath thakur
p1624
ag1621
aVsarangus
p1625
aa(lp1626
Vsitar
p1627
aS'a type of'
p1628
aVplayer
p1629
aa(lp1630
Vsarod
p1631
aS'a type of'
p1632
aVplayer
p1633
aa(lp1634
Vdhrupad
p1635
aS'a type of'
p1636
aVvocalist
p1637
aa(lp1638
Vraga
p1639
aVuse
p1640
aVseries
p1641
aa(lp1642
Vraga
p1643
aVraga 's
p1644
aVjanaka
p1645
aa(lp1646
Vraga
p1647
aVprescribe for
p1648
aVparticular time
p1649
aa(lp1650
g1647
aVraga 's
p1651
aVmany hindustani
p1652
aa(lp1653
Vraga
p1654
aVhave
p1655
aVits effect
p1656
aa(lp1657
Vraga
p1658
aVraga 's
p1659
aVjanaka
p1660
aa(lp1661
Vraga
p1662
aS'a type of'
p1663
aVpractice
p1664
aa(lp1665
Vraga
p1666
aVnot follow
p1667
aVdescend order
p1668
aa(lp1669
g1666
ag1667
aVstrict ascending
p1670
aa(lp1671
Vraga
p1672
aVraga 's
p1673
aVjanaka
p1674
aa(lp1675
Vraga
p1676
aS'a type of'
p1677
aVperformance
p1678
aa(lp1679
Vraga
p1680
aVraga 's
p1681
aVjanaka
p1682
aa(lp1683
Vraga
p1684
aVraga 's
p1685
aVjanaka
p1686
aa(lp1687
Vraga
p1688
aVclassify as
p1689
ag1680
aa(lp1690
g1688
aVclassify as
p1691
ag1684
aa(lp1692
g1688
aVclassify in
p1693
aVmusic
p1694
aa(lp1695
g1688
aVraga 's
p1696
aVjanaka
p1697
aa(lp1698
Vraga
p1699
aVraga 's
p1700
aVjanaka
p1701
aa(lp1702
Vraga
p1703
aVraga 's
p1704
aVjanaka
p1705
aa(lp1706
Vraga
p1707
aVuse
p1708
aVscheme
p1709
aa(lp1710
g1707
aVraga 's
p1711
aVjanaka
p1712
aa(lp1713
Vraga
p1714
aVraga 's
p1715
aVjanaka
p1716
aa(lp1717
g1707
aVorganise as
p1718
ag1714
aa(lp1719
Vraga
p1720
aVraga 's
p1721
aVmelakarta
p1722
aa(lp1723
Vraga
p1724
aVderive from
p1725
aVraga
p1726
aa(lp1727
g1726
aVraga 's
p1728
aVjanya
p1729
aa(lp1730
g1724
aVuse
p1731
aVcombination
p1732
aa(lp1733
g1724
aVraga 's
p1734
aVjanya
p1735
aa(lp1736
Vraga
p1737
aVhave
p1738
aVdefinite collection
p1739
aa(lp1740
g1737
ag1738
aVorder
p1741
aa(lp1742
Vgharana
p1743
aVgharana 's
p1744
aVsenia
p1745
aa(lp1746
Vdhrupad
p1747
aS'a type of'
p1748
aVlyric
p1749
aa(lp1750
Vthumri
p1751
aVexpression of
p1752
aVshringar rasa
p1753
aa(lp1754
Vthumri
p1755
aVexpression -
p1756
aVplayful utterance
p1757
aa(lp1758
Vthumri
p1759
aVexpression -
p1760
aVpassionate
p1761
aa(lp1762
Vthumri
p1763
aS'is a'
p1764
aVexpression
p1765
aa(lp1766
Vragini trivedi
p1767
aVperform on
p1768
aVvichitra veena
p1769
aa(lp1770
Vragini trivedi
p1771
aS'is a'
p1772
aVmusician
p1773
aa(lp1774
Vragini trivedi
p1775
aS'is a'
p1776
aVindian musician
p1777
aa(lp1778
Vragini trivedi
p1779
aS'is a'
p1780
aVclassical musician
p1781
aa(lp1782
Vragini trivedi
p1783
aVbear in
p1784
aVindia
p1785
aa(lp1786
Vragini trivedi
p1787
aVbear in
p1788
aVkanpur
p1789
aa(lp1790
Vomkarnath thakur
p1791
aVstay on
p1792
aVground floor
p1793
aa(lp1794
Vragini trivedi
p1795
aVlose
p1796
aVmother
p1797
aa(lp1798
Vragini trivedi
p1799
aVcontinue
p1800
aVpursuit
p1801
aa(lp1802
Vragini trivedi
p1803
aVget
p1804
aVgold medal
p1805
aa(lp1806
Vsitar
p1807
aS'a type of'
p1808
aVrecital
p1809
aa(lp1810
Vvichitra veena
p1811
aVpresent at
p1812
aVbhopal
p1813
aa(lp1814
Vvichitra veena
p1815
aVpresent at
p1816
aVbharat_bhawan
p1817
aa(lp1818
Vragini trivedi
p1819
aVconduct
p1820
aVvarious workshop
p1821
aa(lp1822
Vragini trivedi
p1823
aVdesign
p1824
ag1821
aa(lp1825
Vragini trivedi
p1826
aVdevelop
p1827
aVnotation system
p1828
aa(lp1829
Vragini trivedi
p1830
ag1827
aVome_swarlipi
p1831
aa(lp1832
Vragini trivedi
p1833
aVwrite on
p1834
aVtheory
p1835
aa(lp1836
Vragini trivedi
p1837
aVwrite in
p1838
aVmusic
p1839
aa(lp1840
Vragini trivedi
p1841
aVcollaborate in
p1842
aVcapacity
p1843
aa(lp1844
Vragini trivedi
p1845
aVcollaborate in
p1846
aVcreation
p1847
aa(lp1848
Vsitar
p1849
aS'a type of'
p1850
aVplayer
p1851
aa(lp1852
Vpurbayan chatterjee
p1853
aVperform with
p1854
aVartist tablum ustad_zakir_hussain
p1855
aa(lp1856
Vshankar jaikishan
p1857
aVuse
p1858
aVwestern classical
p1859
aa(lp1860
Vshankar jaikishan
p1861
aVmake
p1862
aVmajor contribution
p1863
aa(lp1864
Vraga
p1865
aVhave
p1866
aVits rule
p1867
aa(lp1868
Vdhrupad
p1869
aVdhrupad like
p1870
aVstructure
p1871
aa(lp1872
Vvishnu digambar paluskar
p1873
aVhave at
p1874
aV12 age
p1875
aa(lp1876
Vvishnu digambar paluskar
p1877
aVemerge as
p1878
aVtalented organizer
p1879
aa(lp1880
Vvishnu digambar paluskar
p1881
aVemerge as
p1882
aVtalented organizer
p1883
aa(lp1884
Vraga
p1885
aVraga 's
p1886
aVhindustani
p1887
aa(lp1888
Vdhrupad
p1889
aS'is a'
p1890
aVold style
p1891
aa(lp1892
Vdhrupad
p1893
aS'is a'
p1894
aVstyle
p1895
aa(lp1896
Vdhrupad
p1897
aVstyle of
p1898
aVsinging
p1899
aa(lp1900
Vdhrupad
p1901
aVperform with
p1902
aVtambura
p1903
aa(lp1904
Vdhrupad
p1905
aVperform with
p1906
aVpakhawaj
p1907
aa(lp1908
Valap
p1909
aVunfold into
p1910
aVjhalum section
p1911
aa(lp1912
Vkhyal
p1913
aVform of
p1914
aVvocal music
p1915
aa(lp1916
Vkhyal
p1917
aVbase on
p1918
aVdhrupad
p1919
aa(lp1920
Vkhyal
p1921
aS'is a'
p1922
aVhindustani form
p1923
aa(lp1924
Vkhyal
p1925
aS'is a'
p1926
aVform
p1927
aa(lp1928
Vkhyal
p1929
aVadopt from
p1930
aVpersian music
p1931
aa(lp1932
Vkhyal
p1933
aVto
p1934
aVeight-line lyric
p1935
aa(lp1936
Vkhyal
p1937
aVcontain
p1938
aVgreater embellishment
p1939
aa(lp1940
Vkhyal
p1941
ag1938
aVornamentation
p1942
aa(lp1943
Vraga
p1944
aVdepict
p1945
aVkhyal
p1946
aa(lp1947
Vraga
p1948
aVraga with
p1949
aVflash
p1950
aa(lp1951
Venayat khan
p1952
aVbear into
p1953
aVfamily
p1954
aa(lp1955
Venayat khan
p1956
aVbear in
p1957
aVuttar_pradesh
p1958
aa(lp1959
Venayat khan
p1960
aVdie with
p1961
aVfour
p1962
aa(lp1963
Vgayaki
p1964
aS'a type of'
p1965
aVbook
p1966
aa(lp1967
Vraga
p1968
aVraga in
p1969
aVlaya tempo
p1970
aa(lp1971
Vthumri
p1972
aS'a type of'
p1973
aVstyle
p1974
aa(lp1975
Vgharana
p1976
aVgharana 's
p1977
aVgwalior
p1978
aa(lp1979
Vgharana
p1980
aVgharana 's
p1981
aVbanaras
p1982
aa(lp1983
Vgirija devi
p1984
aVperform in
p1985
aV2009
p1986
aa(lp1987
Vsipra bose
p1988
aVsinger from
p1989
aVkolkata
p1990
aa(lp1991
Vsipra bose
p1992
aVsinger from
p1993
aVindia
p1994
aa(lp1995
Vsipra bose
p1996
aVsinger in
p1997
aVclassical tradition
p1998
aa(lp1999
Vsipra bose
p2000
aS'is a'
p2001
aVnoted singer
p2002
aa(lp2003
Vsipra bose
p2004
aS'is a'
p2005
aVsinger
p2006
aa(lp2007
Vsipra bose
p2008
aVnote for
p2009
aVrendering
p2010
aa(lp2011
Vsipra bose
p2012
aVwork with
p2013
aVnaina_devi
p2014
aa(lp2015
Vgharana
p2016
aVgharana 's
p2017
aVbenaras
p2018
aa(lp2019
Vsipra bose
p2020
aVdie on
p2021
aVapril_22_,_2008
p2022
aa(lp2023
Vsipra bose
p2024
aVdie from
p2025
aVheart attack
p2026
aa(lp2027
Vgharana
p2028
aS'a type of'
p2029
aVgeneration
p2030
aa(lp2031
Valladiya khan
p2032
aVbecome
p2033
aVcourt musician
p2034
aa(lp2035
Valladiya khan
p2036
aVmigrate to
p2037
aVcourt
p2038
aa(lp2039
Vmeend
p2040
aVmeend of
p2041
aVgayakus
p2042
aa(lp2043
g2040
aVtrace to
p2044
aVinfluence
p2045
aa(lp2046
Vmeend
p2047
aVmeend of
p2048
aVhis gayakus
p2049
aa(lp2050
Vmeend
p2051
aVin
p2052
aVaalap
p2053
aa(lp2054
Vmeend
p2055
aS'is a'
p2056
aVgamak
p2057
aa(lp2058
Vmeend
p2059
aS'is a'
p2060
aVhallmark
p2061
aa(lp2062
Vmeend
p2063
aVhallmark of
p2064
aVgayakus
p2065
aa(lp2066
Vmeend
p2067
aVgamak in
p2068
aVtaan
p2069
aa(lp2070
Vgharana
p2071
aVgharana 's
p2072
aVjaipur-atrauli
p2073
aa(lp2074
Vkhyal
p2075
aS'a type of'
p2076
aVstyle
p2077
aa(lp2078
Vwamanrao sadolikar
p2079
aVperform for
p2080
aVindian movie
p2081
aa(lp2082
Vwamanrao sadolikar
p2083
aVwork as
p2084
aVvice chancellor
p2085
aa(lp2086
Vbhajan sopori
p2087
aS'is a'
p2088
aVindian instrumentalist
p2089
aa(lp2090
Vbhajan sopori
p2091
aS'is a'
p2092
aVinstrumentalist
p2093
aa(lp2094
Vgharana
p2095
aVgharana of
p2096
aVindian music
p2097
aa(lp2098
g2095
aVgharana 's
p2099
aVsufiana
p2100
aa(lp2101
Vsangeetha katti
p2102
aS'is a'
p2103
aVclassical vocalist
p2104
aa(lp2105
Vsangeetha katti
p2106
aS'is a'
p2107
aVvocalist
p2108
aa(lp2109
Vsangeetha katti
p2110
aVknow as
p2111
aVsangeetha_katti
p2112
aa(lp2113
Vsangeetha katti
p2114
aVvocalist 's
p2115
aVhindustani
p2116
aa(lp2117
Vsangeetha katti
p2118
aVvocalist in
p2119
aVindia
p2120
aa(lp2121
Vakhtar sadmani
p2122
aVsuffer
p2123
aVsevere heart-attack
p2124
aa(lp2125
Vakhtar sadmani
p2126
aVdie on
p2127
aV30_december_2003
p2128
aa(lp2129
Vraga
p2130
aS'a type of'
p2131
aVemergence
p2132
aa(lp2133
Vraga
p2134
aVs
p2135
aVthat
p2136
aa(lp2137
Vraga
p2138
aS'a type of'
p2139
aVname
p2140
aa(lp2141
Vraga
p2142
aVhave
p2143
aVvarious name
p2144
aa(lp2145
Vraga
p2146
aVcall in
p2147
aVcarnatic music
p2148
aa(lp2149
Vraga
p2150
aS'is a'
p2151
aVraga
p2152
aa(lp2153
Vraga
p2154
aS'is a'
p2155
aVmorning raga
p2156
aa(lp2157
Vgharana
p2158
aVgharana 's
p2159
aVagra
p2160
aa(lp2161
Vrupak
p2162
aS'a type of'
p2163
aVprakar
p2164
aa(lp2165
Vusha parkhi
p2166
aVhave
p2167
aVdoctorate
p2168
aa(lp2169
Vnico
p2170
aS'a type of'
p2171
aVimage
p2172
aa(lp2173
Vnico
p2174
aVquote
p2175
aVinfluence
p2176
aa(lp2177
Vnico
p2178
aVname
p2179
aVeeko
p2180
aa(lp2181
Vdildar hussain
p2182
aVlearn
p2183
aVtablum
p2184
aa(lp2185
Vgharana
p2186
aVgharana of
p2187
aVindian music
p2188
aa(lp2189
Vraga
p2190
aVascribe to
p2191
aVnight
p2192
aa(lp2193
g2190
aVascribe to
p2194
aVcertain period
p2195
aa(lp2196
Vgharana
p2197
aVgharana 's
p2198
aVgwalior
p2199
aa(lp2200
g2197
aVgharana with
p2201
aVbalakrishnabuwa ichalkaranjikar
p2202
aa(lp2203
Vsarangi
p2204
aS'a type of'
p2205
aVplaying
p2206
aa(lp2207
Vzeelaf
p2208
aS'is a'
p2209
aVraga
p2210
aa(lp2211
Vzeelaf
p2212
aVraga in
p2213
aVhindustani music
p2214
aa(lp2215
Vraga
p2216
aS'a type of'
p2217
aVmelody
p2218
aa(lp2219
Vraga
p2220
aVinvolve
p2221
aVnote
p2222
aa(lp2223
Vbudhaditya mukherjee
p2224
aS'is a'
p2225
aVsitar
p2226
aa(lp2227
Vbudhaditya mukherjee
p2228
aS'is a'
p2229
aVplayer
p2230
aa(lp2231
Vbudhaditya mukherjee
p2232
aS'is a'
p2233
aVclassical sitar
p2234
aa(lp2235
Vbudhaditya mukherjee
p2236
aS'is a'
p2237
aVsurbahar player
p2238
aa(lp2239
Vbudhaditya mukherjee
p2240
aVplayer 's
p2241
aVhindustani
p2242
aa(lp2243
Vsurbahar
p2244
aS'a type of'
p2245
aVplayer
p2246
aa(lp2247
Vbudhaditya mukherjee
p2248
aVsitar of
p2249
aVimdadkhani gharana
p2250
aa(lp2251
Vbudhaditya mukherjee
p2252
aVhold
p2253
aVdoctorate
p2254
aa(lp2255
Vjugalbandi
p2256
aS'a type of'
p2257
aVperform
p2258
aa(lp2259
Vraga
p2260
aVcorrespond to
p2261
aVmayamalavagowla
p2262
aa(lp2263
g2260
aVcorrespond in
p2264
aVmusic
p2265
aa(lp2266
Vektara
p2267
aS'is a'
p2268
aVinstrument
p2269
aa(lp2270
Vektara
p2271
aS'is a'
p2272
aVone-string instrument
p2273
aa(lp2274
Vektara
p2275
aVuse in
p2276
aVtraditional music
p2277
aa(lp2278
Vektara
p2279
aVuse in
p2280
aVpakistan
p2281
aa(lp2282
Vektara
p2283
aVaccompany
p2284
aVsinger
p2285
aa(lp2286
g2283
ag2284
aVdhol
p2287
aa(lp2288
Velectric sitar
p2289
aVdrone
p2290
aVstring
p2291
aa(lp2292
Vajrara gharana
p2293
aVgharana 's
p2294
aVajrada
p2295
aa(lp2296
Vajrara gharana
p2297
aS'is a'
p2298
aVgharana
p2299
aa(lp2300
Vgharana
p2301
aVoffshoot of
p2302
aVdelhi_gharana
p2303
aa(lp2304
Vgharana
p2305
aS'is a'
p2306
aVoffshoot
p2307
aa(lp2308
Vgharana
p2309
aS'a type of'
p2310
aVcomposition
p2311
aa(lp2312
Vjugalbandi
p2313
aS'a type of'
p2314
aVperform
p2315
aa(lp2316
Vvichitra veena
p2317
aS'is a'
p2318
aVform
p2319
aa(lp2320
Vvichitra veena
p2321
aS'is a'
p2322
aVmodern form
p2323
aa(lp2324
Vvichitra veena
p2325
aVform of
p2326
aVancient ektantri_veena
p2327
aa(lp2328
Vvilayat khan
p2329
aVplay
p2330
aVunique gat
p2331
aa(lp2332
Vfarukhabad gharana
p2333
aS'is a'
p2334
aVgharana
p2335
aa(lp2336
Vfarukhabad gharana
p2337
aS'is a'
p2338
aVoldest gharana
p2339
aa(lp2340
Vfarukhabad gharana
p2341
aVgharana of
p2342
aVtabla
p2343
aa(lp2344
Vgharana
p2345
aVgharana 's
p2346
aVfarukhabad
p2347
aa(lp2348
Vshahid parvez
p2349
aVsupport
p2350
aVsabha
p2351
aa(lp2352
Vshubhendra shankar
p2353
aVhave
p2354
aVrigorous training
p2355
aa(lp2356
Vraga
p2357
aVhave
p2358
aVswara
p2359
aa(lp2360
g2359
aVswara in
p2361
aVtheir scale
p2362
aa(lp2363
g2357
aVraga 's
p2364
aVsampurna
p2365
aa(lp2366
Vswara
p2367
aVswara in
p2368
aVavarohana
p2369
aa(lp2370
g2367
aVswara in
p2371
aVarohana
p2372
aa(lp2373
g2367
aVfollow
p2374
aVdescend scale
p2375
aa(lp2376
g2367
ag2374
aVascending
p2377
aa(lp2378
Vswara
p2379
aVnot vakra
p2380
aVswara phrase
p2381
aa(lp2382
g2379
aVswara in
p2383
aVavarohana
p2384
aa(lp2385
g2379
aVswara in
p2386
aVarohana
p2387
aa(lp2388
g2379
aS'a type of'
p2389
aVphrase
p2390
aa(lp2391
Vraga
p2392
aVraga 's
p2393
aVmelakarta
p2394
aa(lp2395
Vpannalal ghosh
p2396
aVelevate
p2397
aVbansuri
p2398
aa(lp2399
Vjayateerth mevundi
p2400
aVbear in
p2401
aV1972
p2402
aa(lp2403
Vjayateerth mevundi
p2404
aVvocalist of
p2405
aVkirana_gharana
p2406
aa(lp2407
Vjayateerth mevundi
p2408
aS'is a'
p2409
aVhindustani vocalist
p2410
aa(lp2411
Vjayateerth mevundi
p2412
aS'is a'
p2413
aVvocalist
p2414
aa(lp2415
Vjayateerth mevundi
p2416
aS'is a'
p2417
aVclassical vocalist
p2418
aa(lp2419
Vjayateerth mevundi
p2420
aVbear in
p2421
aV1972
p2422
aa(lp2423
Vjayateerth mevundi
p2424
aVrecognize as
p2425
aVone
p2426
aa(lp2427
Vjayateerth mevundi
p2428
aVhail from
p2429
aVhubli
p2430
aa(lp2431
Vjayateerth mevundi
p2432
aVhail in
p2433
aVnorth_karnataka
p2434
aa(lp2435
Vgharana
p2436
aVgharana 's
p2437
aVbenares
p2438
aa(lp2439
Vsanjoy bandopadhyay
p2440
aS'is a'
p2441
aVplayer
p2442
aa(lp2443
Vsanjoy bandopadhyay
p2444
aS'is a'
p2445
aVsitar player
p2446
aa(lp2447
Vsanjoy bandopadhyay
p2448
aS'is a'
p2449
aVclassical player
p2450
aa(lp2451
Vsitar
p2452
aS'a type of'
p2453
aVplayer
p2454
aa(lp2455
Vsanjoy bandopadhyay
p2456
aVplayer 's
p2457
aVbengali hindustani
p2458
aa(lp2459
Vesraj
p2460
aVuse as
p2461
aVaccompanying instrument
p2462
aa(lp2463
Vesraj
p2464
aVdecline for
p2465
aVmany decade
p2466
aa(lp2467
g2464
aVdecline in
p2468
aVpopularity
p2469
aa(lp2470
Vshivaranjani
p2471
aS'a type of'
p2472
aVscale
p2473
aa(lp2474
Vswara
p2475
aVuse in
p2476
aVmusic notation
p2477
aa(lp2478
Vshivaranjani
p2479
aS'a type of'
p2480
aVstart
p2481
aa(lp2482
Vshivaranjani
p2483
aVvakra
p2484
aVscale
p2485
aa(lp2486
Vshivaranjani
p2487
ag2484
aVprayoga
p2488
aa(lp2489
Vshivaranjani
p2490
ag2484
aVscale
p2491
aa(lp2492
Vrampur-sahaswan gharana
p2493
aVgharana of
p2494
aVhindustani music
p2495
aa(lp2496
Vshubha mudgal
p2497
aVclose to
p2498
aVmovement
p2499
aa(lp2500
Vshubha mudgal
p2501
aVmove to
p2502
aVnew_delhi
p2503
aa(lp2504
Vshubha mudgal
p2505
aVenrol at
p2506
aVdelhi_university
p2507
aa(lp2508
Vshubha mudgal
p2509
aVcontinue
p2510
aVmusical education
p2511
aa(lp2512
Vshubha mudgal
p2513
aVexperiment with
p2514
aVother form
p2515
aa(lp2516
Vshubha mudgal
p2517
aVexperiment in
p2518
aV1990
p2519
aa(lp2520
Vshubha mudgal
p2521
aVdivorce from
p2522
aVmarried aneesh pradhan
p2523
aa(lp2524
Vshubha mudgal
p2525
aVdivorce from
p2526
aVhe
p2527
aa(lp2528
Vbhopali
p2529
aS'is a'
p2530
aVclassical raga
p2531
aa(lp2532
Vbhopali
p2533
aS'is a'
p2534
aVraga
p2535
aa(lp2536
Vbhopali
p2537
aVknow as
p2538
aVbhoop
p2539
aa(lp2540
Vbhopali
p2541
aVraga 's
p2542
aVhindustani
p2543
aa(lp2544
Vswara
p2545
aVindicate
p2546
aVmandra saptak
p2547
aa(lp2548
g2545
aVindicate
p2549
aVtaar saptak
p2550
aa(lp2551
Vsitar
p2552
aS'a type of'
p2553
aVplayer
p2554
aa(lp2555
Vpremadasa hegoda
p2556
aS'is a'
p2557
aVsri_lankan sitarist
p2558
aa(lp2559
Vpremadasa hegoda
p2560
aS'is a'
p2561
aVsitarist
p2562
aa(lp2563
Vpremadasa hegoda
p2564
aVlive since
p2565
aV1974
p2566
aa(lp2567
Vpremadasa hegoda
p2568
aVlive in
p2569
aVjapan
p2570
aa(lp2571
Vkhyal
p2572
aS'a type of'
p2573
aVbandish
p2574
aa(lp2575
Vthumri
p2576
aS'a type of'
p2577
aVbandish
p2578
aa(lp2579
Vtabla
p2580
aS'a type of'
p2581
aVplayer
p2582
aa(lp2583
Vgharana
p2584
aVgharana 's
p2585
aVjaipur-atrauli
p2586
aa(lp2587
Vraga
p2588
aVraga on
p2589
aVfour
p2590
aa(lp2591
g2588
aVraga 's
p2592
aV74
p2593
aa(lp2594
Vdilshad khan
p2595
aS'is a'
p2596
aVclassical singer
p2597
aa(lp2598
Vdilshad khan
p2599
aS'is a'
p2600
aVsinger
p2601
aa(lp2602
Vdilshad khan
p2603
aS'is a'
p2604
aVbengali singer
p2605
aa(lp2606
Vdilshad khan
p2607
aS'is a'
p2608
aVhindustani singer
p2609
aa(lp2610
Vdilshad khan
p2611
aVsinger of
p2612
aVpatiala_gharana
p2613
aa(lp2614
Vdilshad khan
p2615
aVname as
p2616
aVarabinda_dasgupta
p2617
aa(lp2618
Vdilshad khan
p2619
aVmarry to
p2620
aVclassical vocalist
p2621
aa(lp2622
Vdilshad khan
p2623
aVmarry to
p2624
aVparveen_sultana
p2625
aa(lp2626
Vgharana
p2627
aVgharana 's
p2628
aVpatiala
p2629
aa(lp2630
Vsitar
p2631
aVplay at
p2632
aVage
p2633
aa(lp2634
Vsitar
p2635
aVsitar in
p2636
aVjazz
p2637
aa(lp2638
Vsitar
p2639
aS'a type of'
p2640
aVtechnique
p2641
aa(lp2642
Vsitar
p2643
aVsitar within
p2644
aVjazz context
p2645
aa(lp2646
Vkhyal
p2647
aS'is a'
p2648
aVforte
p2649
aa(lp2650
Vkhyal
p2651
aS'is a'
p2652
aVhis forte
p2653
aa(lp2654
Vsanhita nandi
p2655
aS'is a'
p2656
aVvocalist
p2657
aa(lp2658
Vsanhita nandi
p2659
aS'is a'
p2660
aVclassical vocalist
p2661
aa(lp2662
Vsanhita nandi
p2663
aVvocalist of
p2664
aVkirana_gharana
p2665
aa(lp2666
Vsanhita nandi
p2667
aVvocalist 's
p2668
aVprominent hindustani
p2669
aa(lp2670
Vraga
p2671
aS'a type of'
p2672
aVdevelopment
p2673
aa(lp2674
Vsanhita nandi
p2675
aVtravel
p2676
aVindia
p2677
aa(lp2678
Vhaveli sangeet
p2679
aS'is a'
p2680
aVsemi form
p2681
aa(lp2682
Vhaveli sangeet
p2683
aS'is a'
p2684
aVform
p2685
aa(lp2686
Vhaveli sangeet
p2687
aS'is a'
p2688
aVclassical form
p2689
aa(lp2690
Vhaveli sangeet
p2691
aVform of
p2692
aVmusic sung
p2693
aa(lp2694
Vgangubai hangal
p2695
aVbelong to
p2696
aVgharana
p2697
aa(lp2698
g2697
aVgharana 's
p2699
aVkirana
p2700
aa(lp2701
Vgangubai hangal
p2702
aVbear to
p2703
aVchikkurao nadiger
p2704
aa(lp2705
Vgangubai hangal
p2706
aVbear in
p2707
aVdharwad
p2708
aa(lp2709
Vgangubai hangal
p2710
aVlearn from
p2711
aVdattopant_desai
p2712
aa(lp2713
Vgangubai hangal
p2714
aVstudy under
p2715
aVsawai_gandharva
p2716
aa(lp2717
Vgangubai hangal
p2718
aVreceive
p2719
aVnumber
p2720
aa(lp2721
Vpantula rama
p2722
aVbear into
p2723
aVfamily
p2724
aa(lp2725
Vpantula rama
p2726
aVbear with
p2727
aVlineage
p2728
aa(lp2729
Vpantula rama
p2730
aVperform since
p2731
aVeight
p2732
aa(lp2733
Vharihar rao
p2734
aS'is a'
p2735
aVmusician
p2736
aa(lp2737
Vharihar rao
p2738
aVmusician 's
p2739
aVnoted hindustani
p2740
aa(lp2741
Vchatur lal
p2742
aS'is a'
p2743
aVmusician
p2744
aa(lp2745
Vchatur lal
p2746
aS'is a'
p2747
aVsupport musician
p2748
aa(lp2749
Vsurbahar
p2750
aS'a type of'
p2751
aVplayer
p2752
aa(lp2753
Vgirish panchwadkar
p2754
aVdirector from
p2755
aVindia
p2756
aa(lp2757
Vgirish panchwadkar
p2758
aS'is a'
p2759
aVdirector
p2760
aa(lp2761
Vgirish panchwadkar
p2762
aS'is a'
p2763
aVsinger
p2764
aa(lp2765
Vgirish panchwadkar
p2766
aS'is a'
p2767
aVmusic director
p2768
aa(lp2769
Vgirish panchwadkar
p2770
aVsinger 's
p2771
aVaccomplished marathi
p2772
aa(lp2773
Vgirish panchwadkar
p2774
aVform
p2775
aVmusic group
p2776
aa(lp2777
Vgirish panchwadkar
p2778
aVstart
p2779
aVperformance
p2780
aa(lp2781
Vgirish panchwadkar
p2782
aVperform on
p2783
aVstage
p2784
aa(lp2785
Vgirish panchwadkar
p2786
aVperform since
p2787
aVlast_21_years
p2788
aa(lp2789
Vsawani
p2790
aS'is a'
p2791
aVgenre
p2792
aa(lp2793
Vsawani
p2794
aVgenre of
p2795
aVsemi-classical singing
p2796
aa(lp2797
Vpandit sudhir
p2798
aS'is a'
p2799
aVplayer
p2800
aa(lp2801
Vpandit sudhir
p2802
aS'is a'
p2803
aVsitar player
p2804
aa(lp2805
Vpandit sudhir
p2806
aS'is a'
p2807
aVindian player
p2808
aa(lp2809
Vpandit sudhir
p2810
aVplayer of
p2811
aVhindustani music
p2812
aa(lp2813
Vsitar
p2814
aS'a type of'
p2815
aVplayer
p2816
aa(lp2817
Vraga
p2818
aS'a type of'
p2819
aVimprovisation
p2820
aa(lp2821
Vhariprasad chaurasia
p2822
aVbear in
p2823
aVallahabad
p2824
aa(lp2825
Vhariprasad chaurasia
p2826
aVbear in
p2827
aVindian state
p2828
aa(lp2829
Vhariprasad chaurasia
p2830
aVlearn
p2831
aVvocal music
p2832
aa(lp2833
Vswara
p2834
aVswara 's
p2835
aVvadi
p2836
aa(lp2837
g2834
aVswara in
p2838
aVraga
p2839
aa(lp2840
g2834
aVbe like
p2841
aVking
p2842
aa(lp2843
Vswara
p2844
aVswara 's
p2845
aVvadi
p2846
aa(lp2847
g2844
aVidentify
p2848
aVtime
p2849
aa(lp2850
Vmc yogi
p2851
aVname of
p2852
aVnicholas_giacomini
p2853
aa(lp2854
Vmc yogi
p2855
aS'is a'
p2856
aVstage name
p2857
aa(lp2858
Vmc yogi
p2859
aS'is a'
p2860
aVname
p2861
aa(lp2862
Vraga
p2863
aVshringara
p2864
aVrasa
p2865
aa(lp2866
Vchaiti
p2867
aS'is a'
p2868
aVsemi-classical song
p2869
aa(lp2870
Vchaiti
p2871
aS'is a'
p2872
aVsong
p2873
aa(lp2874
Vchaiti
p2875
aVsing in
p2876
aVcalendar month
p2877
aa(lp2878
Vajay pohankar
p2879
aVbear in
p2880
aVmadhya_pradesh
p2881
aa(lp2882
Vajay pohankar
p2883
aVbear in
p2884
aVjabalpur
p2885
aa(lp2886
Vajay pohankar
p2887
aVknow for
p2888
aVpiya_bawari
p2889
aa(lp2890
Vajay pohankar
p2891
aVknow for
p2892
aVmusical video
p2893
aa(lp2894
Vajay pohankar
p2895
aVmarry to
p2896
aVanjali_pohankar
p2897
aa(lp2898
Vabhogi
p2899
aVraga in
p2900
aVmusic
p2901
aa(lp2902
Vabhogi
p2903
aVadapt to
p2904
aVmusic
p2905
aa(lp2906
Vabhogi
p2907
aS'is a'
p2908
aVraga
p2909
aa(lp2910
Vabhogi
p2911
aS'is a'
p2912
aVpentatonic scale
p2913
aa(lp2914
Vabhogi
p2915
aS'is a'
p2916
aVscale
p2917
aa(lp2918
Vabhogi
p2919
aVborrow from
p2920
aVmusic
p2921
aa(lp2922
Vabhogi
p2923
aS'is a'
p2924
aVsymmetric scale
p2925
aa(lp2926
Vabhogi
p2927
aS'is a'
p2928
aVpentatonic scale
p2929
aa(lp2930
Vabhogi
p2931
aS'is a'
p2932
aVscale
p2933
aa(lp2934
Vabhogi
p2935
aVnot contain
p2936
aVpanchamam
p2937
aa(lp2938
Vabhogi
p2939
ag2936
aVnishadam
p2940
aa(lp2941
Vabhogi
p2942
aS'is a'
p2943
aVscale
p2944
aa(lp2945
Vabhogi
p2946
aVuse for
p2947
aVcomposition
p2948
aa(lp2949
Vabhogi
p2950
aVuse in
p2951
aVmedium
p2952
aa(lp2953
Vabhogi
p2954
aVuse to
p2955
aVfilm music
p2956
aa(lp2957
Vraga
p2958
aVraga of
p2959
aVabhogus
p2960
aa(lp2961
Vabhogi
p2962
aS'a type of'
p2963
aVraga
p2964
aa(lp2965
Vtintal
p2966
aVof
p2967
aVfamous tala
p2968
aa(lp2969
Vtintal
p2970
aVsixteen
p2971
aVbeat
p2972
aa(lp2973
Valankara
p2974
aVgive in
p2975
aVaddition
p2976
aa(lp2977
Vraga
p2978
aS'a type of'
p2979
aVlegend
p2980
aa(lp2981
Vgharana
p2982
aVindicate
p2983
aVcomprehensive ideology
p2984
aa(lp2985
Vgharana
p2986
aS'a type of'
p2987
aVsystem
p2988
aa(lp2989
Vkhyal
p2990
aS'a type of'
p2991
aVgharana
p2992
aa(lp2993
Vgharana
p2994
aVgharana 's
p2995
aVpatiala
p2996
aa(lp2997
Vtappa
p2998
aVtappa from
p2999
aVregion
p3000
aa(lp3001
Vtarana
p3002
aVsimilar to
p3003
aVform
p3004
aa(lp3005
Vtabla
p3006
aVuse in
p3007
aVmusic
p3008
aa(lp3009
Vtabla
p3010
aVbecome
p3011
aVpart
p3012
aa(lp3013
Vgharana
p3014
aVhave
p3015
aVbol technique
p3016
aa(lp3017
g3014
ag3015
aVtablum positioning
p3018
aa(lp3019
Vulhas kashalkar
p3020
aVwork as
p3021
aVprogramme executive
p3022
aa(lp3023
Vanant lal
p3024
aS'is a'
p3025
aVfirst person
p3026
aa(lp3027
Vanant lal
p3028
aS'is a'
p3029
aVperson
p3030
aa(lp3031
Vanant lal
p3032
aVperson in
p3033
aVindia
p3034
aa(lp3035
Vanant lal
p3036
aVintroduce
p3037
aVfolk instrument
p3038
aa(lp3039
Vdadra
p3040
aVrefer to
p3041
aVtwo
p3042
aa(lp3043
Vdadra
p3044
aS'a type of'
p3045
aVtalum
p3046
aa(lp3047
g3044
aS'a type of'
p3048
aVcomposition
p3049
aa(lp3050
Vsarpada
p3051
aS'is a'
p3052
aVraga
p3053
aa(lp3054
Vsarpada
p3055
aVraga in
p3056
aVhindustani music
p3057
aa(lp3058
Vraga
p3059
aS'a type of'
p3060
aVsung
p3061
aa(lp3062
Vbenares gharana
p3063
aVof
p3064
aVcommon style
p3065
aa(lp3066
Vgharana
p3067
aVcategorize into
p3068
aVbaj
p3069
aa(lp3070
Vsitar
p3071
aS'a type of'
p3072
aVplayer
p3073
aa(lp3074
g3071
aS'a type of'
p3075
aVmusician
p3076
aa(lp3077
Vrimpa siva
p3078
aS'is a'
p3079
aVmusician
p3080
aa(lp3081
Vrimpa siva
p3082
aS'is a'
p3083
aVindian musician
p3084
aa(lp3085
Vgharana
p3086
aS'a type of'
p3087
aVstyle
p3088
aa(lp3089
Vgharana
p3090
aVgharana 's
p3091
aVdelhi
p3092
aa(lp3093
Vsitar
p3094
aS'a type of'
p3095
aVplaying
p3096
aa(lp3097
Vchatur lal
p3098
aVaccompany
p3099
aVravi_shankar
p3100
aa(lp3101
Vchatur lal
p3102
ag3099
aVkbe
p3103
aa(lp3104
Vsitar
p3105
aVrecord
p3106
aVwood song
p3107
aa(lp3108
Vraga
p3109
aS'a type of'
p3110
aVtrend
p3111
aa(lp3112
Vmehfil
p3113
aS'a type of'
p3114
aVperformance
p3115
aa(lp3116
Vgauhar jaan
p3117
aS'is a'
p3118
aVsinger
p3119
aa(lp3120
Vgauhar jaan
p3121
aS'is a'
p3122
aVdancer
p3123
aa(lp3124
Vgauhar jaan
p3125
aS'is a'
p3126
aVindian singer
p3127
aa(lp3128
Vgauhar jaan
p3129
aVbear on
p3130
aV26
p3131
aa(lp3132
Vgauhar jaan
p3133
aVbear as
p3134
aVangelina yeoward
p3135
aa(lp3136
Vgauhar jaan
p3137
aVbear in
p3138
aVazamgarh
p3139
aa(lp3140
Vgauhar jaan
p3141
aVdo
p3142
aVrecording session
p3143
aa(lp3144
Vpakhavaj
p3145
aVhave
p3146
aVlow tone
p3147
aa(lp3148
Vpakhavaj
p3149
aS'a type of'
p3150
aVrhythm
p3151
aa(lp3152
Vpakhavaj
p3153
aS'a type of'
p3154
aVstyle
p3155
aa(lp3156
Vpakhavaj
p3157
aS'a type of'
p3158
aVcomposition
p3159
aa(lp3160
Vraga
p3161
aS'a type of'
p3162
aVstructure
p3163
aa(lp3164
Vprem joshua
p3165
aS'is a'
p3166
aVmusician
p3167
aa(lp3168
Vprem joshua
p3169
aS'is a'
p3170
aVgerman musician
p3171
aa(lp3172
Vthumri
p3173
aVgenre of
p3174
aVsemus
p3175
aa(lp3176
Vthumri
p3177
aS'is a'
p3178
aVgenre
p3179
aa(lp3180
Vthumri
p3181
aS'is a'
p3182
aVcommon genre
p3183
aa(lp3184
Vthumri
p3185
aVarise during
p3186
aVth century
p3187
aa(lp3188
Vthumri
p3189
aVarise in
p3190
aVpopularity
p3191
aa(lp3192
Vthumri
p3193
aVarise in
p3194
aVcourt
p3195
aa(lp3196
Vbandish
p3197
aS'a type of'
p3198
aVthumrus
p3199
aa(lp3200
Vkhyal
p3201
aS'a type of'
p3202
aVconcert
p3203
aa(lp3204
Vindore gharana
p3205
aVof
p3206
aVvocal gharana
p3207
aa(lp3208
Vmerukhand
p3209
aS'a type of'
p3210
aVstructure
p3211
aa(lp3212
Vgharana
p3213
aVgharana 's
p3214
aVbhendibazaar
p3215
aa(lp3216
Vgharana
p3217
aVgharana 's
p3218
aVindore
p3219
aa(lp3220
Vmohanrao palekar
p3221
aVbear in
p3222
aVmiddle family
p3223
aa(lp3224
Vmohanrao palekar
p3225
aVjoin
p3226
aVbharat_natak_mandali
p3227
aa(lp3228
Vmohanrao palekar
p3229
aVget
p3230
aVample opportunity
p3231
aa(lp3232
Vsitar
p3233
aS'a type of'
p3234
aVplayer
p3235
aa(lp3236
Vsitar
p3237
aS'a type of'
p3238
aVplaying
p3239
aa(lp3240
Vgharana
p3241
aVgharana of
p3242
aVsitar playing
p3243
aa(lp3244
g3241
aVgharana 's
p3245
aVsenia
p3246
aa(lp3247
Vsitar
p3248
aS'a type of'
p3249
aVtechnique
p3250
aa(lp3251
Vsitar
p3252
aS'a type of'
p3253
aVplayer
p3254
aa(lp3255
Vsurbahar
p3256
aS'a type of'
p3257
aVplay
p3258
aa(lp3259
Vsurbahar
p3260
aVfelicitate
p3261
aVplaying
p3262
aa(lp3263
Valap
p3264
aS'a type of'
p3265
aVday
p3266
aa(lp3267
Vsurbahar
p3268
aVtechnique with
p3269
aVthree
p3270
aa(lp3271
Vsurbahar
p3272
aS'is a'
p3273
aVtechnique
p3274
aa(lp3275
Vchaturprahar
p3276
aVperform
p3277
aVart
p3278
aa(lp3279
Vchaturprahar
p3280
aVhold at
p3281
aVnational_centre
p3282
aa(lp3283
Vchaturprahar
p3284
aS'is a'
p3285
aVfestival
p3286
aa(lp3287
Vchaturprahar
p3288
aS'is a'
p3289
aVannual festival
p3290
aa(lp3291
Vchaturprahar
p3292
aS'is a'
p3293
aVclassical festival
p3294
aa(lp3295
Vchaturprahar
p3296
aS'is a'
p3297
aVmusic festival
p3298
aa(lp3299
Vchaturprahar
p3300
aS'is a'
p3301
aVindian festival
p3302
aa(lp3303
Vchaturprahar
p3304
aVbase on
p3305
aVconcept
p3306
aa(lp3307
Vchaturprahar
p3308
aVexplore
p3309
aVvarious raga
p3310
aa(lp3311
Vraga
p3312
aVsing at
p3313
aVparticular time
p3314
aa(lp3315
Vkaushiki chakrabarty
p3316
aVperform in
p3317
aVmorning session
p3318
aa(lp3319
Vsitar
p3320
aVhave
p3321
aVstring
p3322
aa(lp3323
Vsitar
p3324
aVhave
p3325
aVsecondary resonator
p3326
aa(lp3327
g3324
ag3325
aVtumbaa
p3328
aa(lp3329
Vgayaki
p3330
aS'a type of'
p3331
aVstyle
p3332
aa(lp3333
Vsitar
p3334
aS'a type of'
p3335
aVstyle
p3336
aa(lp3337
Vgayaki
p3338
aS'a type of'
p3339
aVstyle
p3340
aa(lp3341
Vsitar
p3342
aS'a type of'
p3343
aVstyle
p3344
aa(lp3345
Vsitar
p3346
aVfetch
p3347
aVcollectible price
p3348
aa(lp3349
g3346
aVsitar by
p3350
aVcertain manufacturer
p3351
aa(lp3352
Vsitar
p3353
aVsitar 's
p3354
aVolder hiren_roy
p3355
aa(lp3356
Vsitar
p3357
aS'a type of'
p3358
aVinfluence
p3359
aa(lp3360
Vgharana
p3361
aVgain
p3362
aVvisibility
p3363
aa(lp3364
Vdhrupad
p3365
aS'a type of'
p3366
aVrendition
p3367
aa(lp3368
Vdhrupad
p3369
aS'a type of'
p3370
aVclassical
p3371
aa(lp3372
Vgharana
p3373
aVgharana 's
p3374
aVdharbhanga
p3375
aa(lp3376
Vgharana
p3377
aVgharana of
p3378
aVtablum playing
p3379
aa(lp3380
g3377
aVgharana 's
p3381
aVpunjab
p3382
aa(lp3383
Vriyaz
p3384
aVof
p3385
aVsong
p3386
aa(lp3387
Vgharana
p3388
aS'a type of'
p3389
aVtradition
p3390
aa(lp3391
Vvichitra veena
p3392
aVfind
p3393
aVwider fame
p3394
aa(lp3395
Vgharana
p3396
aVgharana of
p3397
aVhindustani music
p3398
aa(lp3399
g3396
aVgharana 's
p3400
aVfarukhabad
p3401
aa(lp3402
Vgharana
p3403
aVgharana 's
p3404
aVpatiala
p3405
aa(lp3406
Vsitar
p3407
aS'a type of'
p3408
aVplayer
p3409
aa(lp3410
Vsheema mukherjee
p3411
aS'is a'
p3412
aVbritish player
p3413
aa(lp3414
Vsheema mukherjee
p3415
aS'is a'
p3416
aVplayer
p3417
aa(lp3418
Vsheema mukherjee
p3419
aS'is a'
p3420
aVsitar player
p3421
aa(lp3422
Vsheema mukherjee
p3423
aS'is a'
p3424
aVbritish composer
p3425
aa(lp3426
Vsheema mukherjee
p3427
aS'is a'
p3428
aVcomposer
p3429
aa(lp3430
Vsitar
p3431
aS'a type of'
p3432
aVprodigy
p3433
aa(lp3434
Vtabla
p3435
aVtabla as
p3436
aVchild
p3437
aa(lp3438
Vsitar
p3439
aS'a type of'
p3440
aVravi_shankar
p3441
aa(lp3442
Vmalini rajurkar
p3443
aVsinger of
p3444
aVgwalior_gharana
p3445
aa(lp3446
Vmalini rajurkar
p3447
aVsinger 's
p3448
aVnoted hindustani
p3449
aa(lp3450
Vmalini rajurkar
p3451
aS'is a'
p3452
aVclassical singer
p3453
aa(lp3454
Vmalini rajurkar
p3455
aS'is a'
p3456
aVsinger
p3457
aa(lp3458
Vmalini rajurkar
p3459
aVgrow in
p3460
aVindia
p3461
aa(lp3462
Vmalini rajurkar
p3463
aVgrow in
p3464
aVstate
p3465
aa(lp3466
Vmalini rajurkar
p3467
aVnote for
p3468
aVcommand
p3469
aa(lp3470
Vmalini rajurkar
p3471
aVsing
p3472
aVlighter music
p3473
aa(lp3474
Vdhondutai kulkarni
p3475
aVknow
p3476
aVcreation
p3477
aa(lp3478
Valladiya khan
p3479
aVnot make
p3480
aVkesarbai_kerkar
p3481
aa(lp3482
Vsitar
p3483
aS'a type of'
p3484
aVplayer
p3485
aa(lp3486
Vraga
p3487
aVraga in
p3488
aVindian music
p3489
aa(lp3490
Vgharana
p3491
aVgharana 's
p3492
aVjaipur-atrauli
p3493
aa(lp3494
Vgeeta javadekar
p3495
aVstand at
p3496
aVtime
p3497
aa(lp3498
Vgeeta javadekar
p3499
aVstand in
p3500
aVexamination
p3501
aa(lp3502
Vgeeta javadekar
p3503
aVcontinue
p3504
aVtutelage
p3505
aa(lp3506
Vamar nath
p3507
aVbear in
p3508
aVpakistan
p3509
aa(lp3510
Vamar nath
p3511
aVbear in
p3512
aV1924
p3513
aa(lp3514
Vamar nath
p3515
aVbear in
p3516
aVjhang
p3517
aa(lp3518
Vamar nath
p3519
aVbear in
p3520
aVpunjab
p3521
aa(lp3522
Vgharana
p3523
aVgharana 's
p3524
aVmodern maihar
p3525
aa(lp3526
Vgharana
p3527
aVgharana 's
p3528
aVsenia
p3529
aa(lp3530
Vgharana
p3531
aVgharana of
p3532
aVindian music
p3533
aa(lp3534
g3531
aVgharana 's
p3535
aVmaihar
p3536
aa(lp3537
Vdevaki pandit
p3538
aVbear to
p3539
aVusha_pandit
p3540
aa(lp3541
Vdevaki pandit
p3542
aVbear in
p3543
aVindia
p3544
aa(lp3545
Vdevaki pandit
p3546
aVbear in
p3547
aVmaharashtra
p3548
aa(lp3549
Vdevaki pandit
p3550
aVsing
p3551
aVram_raksha_stotra
p3552
aa(lp3553
Vraga
p3554
aVraga with
p3555
aVhigh sa
p3556
aa(lp3557
Vgharana
p3558
aVfound in
p3559
aVth century
p3560
aa(lp3561
Vdhrupad
p3562
aS'a type of'
p3563
aVform
p3564
aa(lp3565
Vdhrupad
p3566
aS'a type of'
p3567
aVsinger
p3568
aa(lp3569
Vbaiju bawra
p3570
aS'is a'
p3571
aVhindi film
p3572
aa(lp3573
Vbaiju bawra
p3574
aS'is a'
p3575
aVmusician
p3576
aa(lp3577
Vbaiju bawra
p3578
aS'is a'
p3579
aVlanguage film
p3580
aa(lp3581
Vbaiju bawra
p3582
aS'is a'
p3583
aVfilm
p3584
aa(lp3585
Vgeet ramayan
p3586
aVconsider as
p3587
aVcrescendo
p3588
aa(lp3589
Vraga
p3590
aVraga of
p3591
aVhindustani music
p3592
aa(lp3593
g3590
aVcompose
p3594
aVsong
p3595
aa(lp3596
Vgeet ramayan
p3597
aVconceptualize in
p3598
aV1955
p3599
aa(lp3600
Vraga
p3601
aVtalum of
p3602
aVsong
p3603
aa(lp3604
g3601
aVsuit
p3605
aVtime
p3606
aa(lp3607
Vgeet ramayan
p3608
aVtranslate into
p3609
aVnine
p3610
aa(lp3611
Vgeet ramayan
p3612
aVtransliterate into
p3613
aVbraille
p3614
aa(lp3615
Vanjanibai malpekar
p3616
aS'is a'
p3617
aVnoted singer
p3618
aa(lp3619
Vanjanibai malpekar
p3620
aS'is a'
p3621
aVclassical singer
p3622
aa(lp3623
Vanjanibai malpekar
p3624
aS'is a'
p3625
aVsinger
p3626
aa(lp3627
Vanjanibai malpekar
p3628
aS'is a'
p3629
aVindian singer
p3630
aa(lp3631
Vgharana
p3632
aVgharana of
p3633
aVhindustani music
p3634
aa(lp3635
g3632
aVgharana 's
p3636
aVbhendibazaar
p3637
aa(lp3638
Vanjanibai malpekar
p3639
aVbelong to
p3640
ag3632
aa(lp3641
Vanjanibai malpekar
p3642
aVgive
p3643
aVdebut performance
p3644
aa(lp3645
Vsitar
p3646
aVsitar to
p3647
aVtune
p3648
aa(lp3649
g3646
aVsitar 's
p3650
aVchala
p3651
aa(lp3652
Vsitar
p3653
aVsitar 's
p3654
aVchala
p3655
aa(lp3656
g3653
aVsitar by
p3657
aVpramana sruti
p3658
aa(lp3659
Vmadhup mudgal
p3660
aS'is a'
p3661
aVmusic vocalist
p3662
aa(lp3663
Vmadhup mudgal
p3664
aS'is a'
p3665
aVvocalist
p3666
aa(lp3667
Vmadhup mudgal
p3668
aS'is a'
p3669
aVclassical vocalist
p3670
aa(lp3671
Vmadhup mudgal
p3672
aVvocalist 's
p3673
aVindian hindustani
p3674
aa(lp3675
Vmadhup mudgal
p3676
aVtravel across
p3677
aVworld
p3678
aa(lp3679
Vmadhup mudgal
p3680
aVtravel for
p3681
aVperformance
p3682
aa(lp3683
Vmadhup mudgal
p3684
aVremain
p3685
aVconductor
p3686
aa(lp3687
Vmadhuvanti
p3688
aS'is a'
p3689
aVname
p3690
aa(lp3691
Vmadhuvanti
p3692
aVname of
p3693
aVraga
p3694
aa(lp3695
g3694
aVuse in
p3696
aVindian music
p3697
aa(lp3698
Vmadhuvanti
p3699
aVthaat
p3700
aVtodi
p3701
aa(lp3702
Vmadhuvanti
p3703
aVexpress
p3704
aVloving sentiment
p3705
aa(lp3706
Vmadhuvanti
p3707
aS'is a'
p3708
aVraga
p3709
aa(lp3710
Vmadhuvanti
p3711
aS'is a'
p3712
aVjanya raga
p3713
aa(lp3714
Vmadhuvanti
p3715
aVraga of
p3716
aVdharmavati
p3717
aa(lp3718
Vmadhuvanti
p3719
aVraga of
p3720
aVth melakarta_of_carnatic_music
p3721
aa(lp3722
Vmadhuvanti
p3723
aS'is a'
p3724
aVmelodious raga
p3725
aa(lp3726
Vmadhuvanti
p3727
aS'is a'
p3728
aVraga
p3729
aa(lp3730
Vraga
p3731
aVcompose
p3732
aVmany tukada
p3733
aa(lp3734
Vsarod
p3735
aS'a type of'
p3736
aVmaestro
p3737
aa(lp3738
Vgharana
p3739
aVgharana of
p3740
aVhindustani music
p3741
aa(lp3742
g3739
aVgharana 's
p3743
aVbenares
p3744
aa(lp3745
Vsarod
p3746
aS'a type of'
p3747
aVplayer
p3748
aa(lp3749
Vsarod
p3750
aS'a type of'
p3751
aVplayer
p3752
aa(lp3753
Vdhrupad
p3754
aS'a type of'
p3755
aVmusic
p3756
aa(lp3757
Vdhrupad
p3758
aS'a type of'
p3759
aVaesthetics
p3760
aa(lp3761
Vdhrupad
p3762
aS'is a'
p3763
aVvocal tradition
p3764
aa(lp3765
Vdhrupad
p3766
aS'is a'
p3767
aVtradition
p3768
aa(lp3769
Vdhrupad
p3770
aS'a type of'
p3771
aVsinger
p3772
aa(lp3773
Vdhrupad
p3774
aS'a type of'
p3775
aVsinging
p3776
aa(lp3777
Vraga
p3778
aVhave
p3779
aVmodal frame
p3780
aa(lp3781
Valap
p3782
aVprecede
p3783
aVtext
p3784
aa(lp3785
Vdhrupad
p3786
aS'a type of'
p3787
aVgharana
p3788
aa(lp3789
Vgharana
p3790
aVgharana 's
p3791
aVdarbhanga
p3792
aa(lp3793
Vdhrupad
p3794
aS'a type of'
p3795
aVvocalist
p3796
aa(lp3797
Vgharana
p3798
aVflourish under
p3799
aVpatronage
p3800
aa(lp3801
Vgharana
p3802
aVgharana 's
p3803
aVbettiah
p3804
aa(lp3805
Vdhrupad
p3806
aS'a type of'
p3807
aVprevalent
p3808
aa(lp3809
Vgharana
p3810
aVgharana of
p3811
aVpandit_chhannulal_mishra
p3812
aa(lp3813
g3810
aVgharana 's
p3814
aVbanaras
p3815
aa(lp3816
Vgharana
p3817
aVgharana 's
p3818
aVpatiala
p3819
aa(lp3820
Vsadarang
p3821
aVname of
p3822
aVmusical composer
p3823
aa(lp3824
Vsadarang
p3825
aVname of
p3826
aVartist niyamat khan
p3827
aa(lp3828
Vsadarang
p3829
aS'is a'
p3830
aVname
p3831
aa(lp3832
Vsadarang
p3833
aS'is a'
p3834
aVpen name
p3835
aa(lp3836
Vsadarang
p3837
aVserve in
p3838
aVcourt
p3839
aa(lp3840
Vsadarang
p3841
aVcomposition 's
p3842
aVadarang
p3843
aa(lp3844
Vsadarang
p3845
aS'is a'
p3846
aVcomposition
p3847
aa(lp3848
Vmanjusha kulkarni-patil
p3849
aS'is a'
p3850
aVhindustani vocalist
p3851
aa(lp3852
Vmanjusha kulkarni-patil
p3853
aS'is a'
p3854
aVmusic vocalist
p3855
aa(lp3856
Vmanjusha kulkarni-patil
p3857
aS'is a'
p3858
aVvocalist
p3859
aa(lp3860
Vmanjusha kulkarni-patil
p3861
aS'is a'
p3862
aVclassical vocalist
p3863
aa(lp3864
Vmanjusha kulkarni-patil
p3865
aVbelong to
p3866
aVgharana
p3867
aa(lp3868
g3867
aVgharana 's
p3869
aVgwalior
p3870
aa(lp3871
Vmanjusha kulkarni-patil
p3872
aVbear on
p3873
aV2 nov
p3874
aa(lp3875
Vmanjusha kulkarni-patil
p3876
aVbear in
p3877
aVsangli
p3878
aa(lp3879
Vmanjusha kulkarni-patil
p3880
aVbear in
p3881
aVfamily
p3882
aa(lp3883
Vmanjusha kulkarni-patil
p3884
aVlearn at
p3885
aVage
p3886
aa(lp3887
Vmanjusha kulkarni-patil
p3888
aS'is a'
p3889
aVdisciple
p3890
aa(lp3891
Vmanjusha kulkarni-patil
p3892
aVdisciple of
p3893
aVpandit_kanebua
p3894
aa(lp3895
Vmanjusha kulkarni-patil
p3896
aVdisciple of
p3897
aVulhas_kashalkar
p3898
aa(lp3899
Vmanjusha kulkarni-patil
p3900
aVknow for
p3901
aVmanjusha_kulkarni-patil_khayal form
p3902
aa(lp3903
Vmanjusha kulkarni-patil
p3904
aVperform at
p3905
aVclassical festival
p3906
aa(lp3907
Vrupak
p3908
aS'a type of'
p3909
aVtala
p3910
aa(lp3911
Vsitar
p3912
aS'a type of'
p3913
aVplaying
p3914
aa(lp3915
Vomkarnath thakur
p3916
aVintroduce
p3917
aVimproved version
p3918
aa(lp3919
Vmilind date
p3920
aS'is a'
p3921
aVmusic composer
p3922
aa(lp3923
Vmilind date
p3924
aS'is a'
p3925
aVindian composer
p3926
aa(lp3927
Vmilind date
p3928
aS'is a'
p3929
aVflutist
p3930
aa(lp3931
Vmilind date
p3932
aS'is a'
p3933
aVindian flutist
p3934
aa(lp3935
Vmilind date
p3936
aS'is a'
p3937
aVcomposer
p3938
aa(lp3939
Vmilind date
p3940
aVplay
p3941
aVbansurus
p3942
aa(lp3943
Vmilind date
p3944
aVexperiment with
p3945
aVseveral music
p3946
aa(lp3947
Vmilind date
p3948
aVexperiment with
p3949
aVseveral music
p3950
aa(lp3951
Vmilind date
p3952
aVexperiment through
p3953
aVrecording
p3954
aa(lp3955
Vmilind date
p3956
aVexperiment through
p3957
aVperformance
p3958
aa(lp3959
Vgulubhai jasdanwalla
p3960
aVproduce
p3961
aVsuccessful disciple
p3962
aa(lp3963
Vdhrupad
p3964
aS'a type of'
p3965
aVgenre
p3966
aa(lp3967
Vpadma talwalkar
p3968
aS'is a'
p3969
aVindian vocalist
p3970
aa(lp3971
Vpadma talwalkar
p3972
aS'is a'
p3973
aVvocalist
p3974
aa(lp3975
Vpadma talwalkar
p3976
aS'is a'
p3977
aVclassical vocalist
p3978
aa(lp3979
Vpadma talwalkar
p3980
aVbear in
p3981
aVmumbai
p3982
aa(lp3983
Vpadma talwalkar
p3984
aVbear in
p3985
aVindia
p3986
aa(lp3987
Vpadma talwalkar
p3988
aVreceive
p3989
aVgharana
p3990
aa(lp3991
Vpadma talwalkar
p3992
ag3989
aVtraining
p3993
aa(lp3994
Vpadma talwalkar
p3995
aVmarry to
p3996
aVtablum maestro pt
p3997
aa(lp3998
Vtabla
p3999
aS'a type of'
p4000
aVplayer
p4001
aa(lp4002
Vgharana
p4003
aVgharana 's
p4004
aVimdadkhani
p4005
aa(lp4006
Vsitar
p4007
aS'a type of'
p4008
aVplayer
p4009
aa(lp4010
Vsitar
p4011
aS'a type of'
p4012
aVplaying
p4013
aa(lp4014
Vgayaki
p4015
aS'a type of'
p4016
aVang
p4017
aa(lp4018
Vgharana
p4019
aVgharana 's
p4020
aVmewati
p4021
aa(lp4022
Vsureshbabu mane
p4023
aVsinger of
p4024
aVkirana_gharana
p4025
aa(lp4026
Vsureshbabu mane
p4027
aVsinger 's
p4028
aVprominent hindustani
p4029
aa(lp4030
Vsureshbabu mane
p4031
aS'is a'
p4032
aVclassical singer
p4033
aa(lp4034
Vsureshbabu mane
p4035
aS'is a'
p4036
aVsinger
p4037
aa(lp4038
Vsureshbabu mane
p4039
aS'is a'
p4040
aVmusic singer
p4041
aa(lp4042
Vsureshbabu mane
p4043
aVson of
p4044
aVdoyen
p4045
aa(lp4046
Vsureshbabu mane
p4047
aS'is a'
p4048
aVson
p4049
aa(lp4050
Vprabhakar karekar
p4051
aS'is a'
p4052
aVartist
p4053
aa(lp4054
Vprabhakar karekar
p4055
aVartist 's
p4056
aVall_india_radio
p4057
aa(lp4058
Vprabhakar karekar
p4059
aS'is a'
p4060
aVartiste
p4061
aa(lp4062
Vprabhakar karekar
p4063
aVartiste 's
p4064
aVall_india_radio
p4065
aa(lp4066
Vprabhakar karekar
p4067
aVparticipate at
p4068
aVvarious center
p4069
aa(lp4070
Vprabhakar karekar
p4071
aVparticipate in
p4072
aVradio sangeet many sammelans
p4073
aa(lp4074
Vprabhakar karekar
p4075
aVreceive
p4076
aVone
p4077
aa(lp4078
Vprabhakar karekar
p4079
ag4076
aVseveral award
p4080
aa(lp4081
Vprabhakar karekar
p4082
aVparticipate in
p4083
aVinternational festival
p4084
aa(lp4085
Vprabhakar karekar
p4086
aVparticipate in
p4087
aVitaly
p4088
aa(lp4089
Vprabhakar karekar
p4090
aS'is a'
p4091
aVchairman
p4092
aa(lp4093
Vprabhakar karekar
p4094
aS'is a'
p4095
aVfounder
p4096
aa(lp4097
Vprabhakar karekar
p4098
aVchairman of
p4099
aVswaraprabha_trust
p4100
aa(lp4101
Vsitar
p4102
aS'a type of'
p4103
aVplayer
p4104
aa(lp4105
Vbismillah khan
p4106
aVbear on
p4107
aV21_march_1913
p4108
aa(lp4109
Vbismillah khan
p4110
aVbear in
p4111
aVbihar
p4112
aa(lp4113
Vbismillah khan
p4114
aVbear in
p4115
aVdumraon
p4116
aa(lp4117
Vbismillah khan
p4118
aVbear in
p4119
aVnorthern india
p4120
aa(lp4121
Vdeenanath mangeshkar
p4122
aVtake
p4123
aVsinging lesson
p4124
aa(lp4125
Vshrutinandan
p4126
aS'is a'
p4127
aVacademy
p4128
aa(lp4129
Vshrutinandan
p4130
aS'is a'
p4131
aVclassical academy
p4132
aa(lp4133
Vshrutinandan
p4134
aS'is a'
p4135
aVmusic academy
p4136
aa(lp4137
Vshrutinandan
p4138
aS'is a'
p4139
aVindian academy
p4140
aa(lp4141
Vshrutinandan
p4142
aVlocate in
p4143
aVkolkata
p4144
aa(lp4145
Vshrutinandan
p4146
aVlocate in
p4147
aVindia
p4148
aa(lp4149
Vshrutinandan
p4150
aVinaugurate on
p4151
aVjuly_1997
p4152
aa(lp4153
Vsitar
p4154
aS'a type of'
p4155
aVplayer
p4156
aa(lp4157
Vvikas kashalkar
p4158
aVwork as
p4159
aVproducer
p4160
aa(lp4161
Vvikas kashalkar
p4162
aS'is a'
p4163
aV dr
p4164
aa(lp4165
Vvikas kashalkar
p4166
aVperform on
p4167
aVdoordarshan_&_all_india_radio
p4168
aa(lp4169
Vvikas kashalkar
p4170
aVhave
p4171
aVmelodious voice
p4172
aa(lp4173
Vraga
p4174
aVraga in
p4175
aVits avarohana
p4176
aa(lp4177
g4174
aVhave
p4178
aVnote
p4179
aa(lp4180
Vgharana
p4181
aVgharana 's
p4182
aVdarbhanga
p4183
aa(lp4184
Vtappa
p4185
aS'is a'
p4186
aVbhajan
p4187
aa(lp4188
Vvijay koparkar
p4189
aVtake
p4190
aVsing lesson
p4191
aa(lp4192
Vvijay koparkar
p4193
aVperform at
p4194
aVsawai_gandharva_music_festival '
p4195
aa(lp4196
Vvijay koparkar
p4197
aVimpart
p4198
aVmusic lesson
p4199
aa(lp4200
Vbandish projekt
p4201
aS'is a'
p4202
aVmusical act
p4203
aa(lp4204
Vbandish projekt
p4205
aS'is a'
p4206
aVact
p4207
aa(lp4208
Vbandish projekt
p4209
aVfeature
p4210
aVblend
p4211
aa(lp4212
Vbandish projekt
p4213
aVrelease
p4214
aVtwo
p4215
aa(lp4216
Vahir bhairav
p4217
aS'is a'
p4218
aVclassical raga
p4219
aa(lp4220
Vahir bhairav
p4221
aS'is a'
p4222
aVraga
p4223
aa(lp4224
Vahir bhairav
p4225
aVraga 's
p4226
aVhindustani
p4227
aa(lp4228
Vahir bhairav
p4229
aS'is a'
p4230
aVraga
p4231
aa(lp4232
Vahir bhairav
p4233
aS'is a'
p4234
aVuttarang raga
p4235
aa(lp4236
Vahir bhairav
p4237
aS'is a'
p4238
aVtypical raga
p4239
aa(lp4240
Vkhyal
p4241
aS'a type of'
p4242
aVsinger
p4243
aa(lp4244
Vgharana
p4245
aVgharana 's
p4246
aVgwalior
p4247
aa(lp4248
g4245
aVgharana from
p4249
aVodisha
p4250
aa(lp4251
Vsunanda patnaik
p4252
aVsing at
p4253
aVall_india_radio
p4254
aa(lp4255
Vsunanda patnaik
p4256
aVsing at
p4257
aVage
p4258
aa(lp4259
Vsunanda patnaik
p4260
aVsing in
p4261
aV1948
p4262
aa(lp4263
Vsunanda patnaik
p4264
aVsing in
p4265
aVcuttack
p4266
aa(lp4267
Vsunanda patnaik
p4268
aVreceive
p4269
aVaward
p4270
aa(lp4271
Vasad qizilbash
p4272
aVlearn
p4273
aVviolin
p4274
aa(lp4275
Vasad qizilbash
p4276
aVbecome
p4277
aVperform member
p4278
aa(lp4279
Vasad qizilbash
p4280
aVrepresent
p4281
aVpakistan
p4282
aa(lp4283
Vasad qizilbash
p4284
aVperform at
p4285
aVmarcus_mingus_jazz_club
p4286
aa(lp4287
Vsurbahar
p4288
aVrelate to
p4289
aVsitar
p4290
aa(lp4291
Vsurbahar
p4292
aVhave
p4293
aVlower tone
p4294
aa(lp4295
Vsurbahar
p4296
aVbe over
p4297
aV130
p4298
aa(lp4299
Vsurbahar
p4300
aVhave
p4301
aVfour
p4302
aa(lp4303
Vdhrupad
p4304
aS'a type of'
p4305
aVstyle
p4306
aa(lp4307
Vsurbahar
p4308
aVinvent around
p4309
aV1825
p4310
aa(lp4311
Vthumri
p4312
aS'a type of'
p4313
aVpandit_mahadev_prasad_mishra
p4314
aa(lp4315
Vshehnai
p4316
aVissue on
p4317
aVt-sery label
p4318
aa(lp4319
Vshehnai
p4320
aVissue in
p4321
aV1990
p4322
aa(lp4323
Vshehnai
p4324
aS'a type of'
p4325
aVashok_kumar
p4326
aa(lp4327
Vgharana
p4328
aVgharana 's
p4329
aVlate pandit_krishnarao_pandit_of_gwalior
p4330
aa(lp4331
Vektal
p4332
aVrender
p4333
aVraga hemashri
p4334
aa(lp4335
Vektal
p4336
aS'a type of'
p4337
aVcompose
p4338
aa(lp4339
Vkirana gharana
p4340
aVof
p4341
aVkhyal gharana
p4342
aa(lp4343
Vkhyal
p4344
aS'a type of'
p4345
aVgharana
p4346
aa(lp4347
Vgovindrao tembe
p4348
aVbenefit from
p4349
aVadvisement
p4350
aa(lp4351
Vgharana
p4352
aS'a type of'
p4353
aVsystem
p4354
aa(lp4355
Vgayaki
p4356
aVof
p4357
aVone
p4358
aa(lp4359
Vgayaki
p4360
aVof
p4361
aVsingle gharana
p4362
aa(lp4363
Vgayaki
p4364
aVof
p4365
aVgharana
p4366
aa(lp4367
Vkhyal
p4368
aS'a type of'
p4369
aVsing
p4370
aa(lp4371
Vraga
p4372
aVraga in
p4373
aVframework
p4374
aa(lp4375
Vdhrupad
p4376
aS'a type of'
p4377
aVsolo
p4378
aa(lp4379
Vwasifuddin dagar
p4380
aVtour
p4381
aVnorth_america
p4382
aa(lp4383
Vbishnupur gharana
p4384
aVoriginate
p4385
aVindia
p4386
aa(lp4387
Vbishnupur gharana
p4388
aVhave
p4389
aVstrong link
p4390
aa(lp4391
Vbishnupur gharana
p4392
aV:
p4393
aVgopeswar_bandyopadhyay
p4394
aa(lp4395
Vrag lalit
p4396
aS'is a'
p4397
aValbum
p4398
aa(lp4399
Vrag lalit
p4400
aS'is a'
p4401
aVstudio album
p4402
aa(lp4403
Vrag lalit
p4404
aValbum by
p4405
aVmusician ram_narayan
p4406
aa(lp4407
Vrag lalit
p4408
aVrelease in
p4409
aV1989
p4410
aa(lp4411
Vraga
p4412
aS'a type of'
p4413
aVlalit
p4414
aa(lp4415
Vraga
p4416
aS'a type of'
p4417
aVlalit
p4418
aa(lp4419
Vmadhup mudgal
p4420
aVhave
p4421
aVfaculty
p4422
aa(lp4423
Vmadhup mudgal
p4424
ag4421
aVstudent
p4425
aa(lp4426
Vmadhup mudgal
p4427
aVsince
p4428
aV1995
p4429
aa(lp4430
Vamit arya
p4431
aVbear in
p4432
aVvancouver
p4433
aa(lp4434
Vamit arya
p4435
aS'is a'
p4436
aVmedical doctor
p4437
aa(lp4438
Vamit arya
p4439
aS'is a'
p4440
aVdoctor
p4441
aa(lp4442
Vamit arya
p4443
aVhold
p4444
aVmedical degree
p4445
aa(lp4446
Vamit arya
p4447
aVdoctor by
p4448
aVprofession
p4449
aa(lp4450
Vmani prasad
p4451
aVstart
p4452
aVcareer
p4453
aa(lp4454
Vmani prasad
p4455
aVbring in
p4456
aVmusical family
p4457
aa(lp4458
Vgharana
p4459
aVgharana 's
p4460
aVkirana
p4461
aa(lp4462
Vbhurji khan
p4463
aS'is a'
p4464
aVyoungest son
p4465
aa(lp4466
Vbhurji khan
p4467
aS'is a'
p4468
aVthird son
p4469
aa(lp4470
Vbhurji khan
p4471
aS'is a'
p4472
aVson
p4473
aa(lp4474
Vbhurji khan
p4475
aVson of
p4476
aVutd
p4477
aa(lp4478
Vbhurji khan
p4479
aVcapable of
p4480
aVchild
p4481
aa(lp4482
Vbhurji khan
p4483
aVvisit
p4484
aVuniara
p4485
aa(lp4486
Vbhurji khan
p4487
aVill with
p4488
aVmotzira
p4489
aa(lp4490
Vbhurji khan
p4491
aVtake to
p4492
aS'#unknown'
p4493
aa(lp4494
Vbhurji khan
p4495
aVteach
p4496
aVpt
p4497
aa(lp4498
Vbhurji khan
p4499
aVdie after
p4500
aVprolonged illness
p4501
aa(lp4502
Vbhurji khan
p4503
aVdie in
p4504
aV1950
p4505
aa(lp4506
Vpatdeep
p4507
aS'is a'
p4508
aVrendition
p4509
aa(lp4510
Vpatdeep
p4511
aS'is a'
p4512
aVfamous rendition
p4513
aa(lp4514
Vpatdeep
p4515
aVrendition by
p4516
aVustad
p4517
aa(lp4518
Vbandish
p4519
aVbandish for
p4520
aVperformance
p4521
aa(lp4522
Vdhrupad
p4523
aS'a type of'
p4524
aVsinger
p4525
aa(lp4526
Vdhrupad
p4527
aVhave in
p4528
aVindia
p4529
aa(lp4530
g4527
aVhave in
p4531
aVpedestal
p4532
aa(lp4533
Vraga
p4534
aVraga in
p4535
aVshort duration
p4536
aa(lp4537
Vbimalendu mukherjee
p4538
aVplayer 's
p4539
aVworld-renowned hindustani
p4540
aa(lp4541
Vgharana
p4542
aVgharana 's
p4543
aVimdadkhani
p4544
aa(lp4545
Vbimalendu mukherjee
p4546
aVteacher of
p4547
ag4542
aa(lp4548
Vsitar
p4549
aS'a type of'
p4550
aVplayer
p4551
aa(lp4552
Vbimalendu mukherjee
p4553
aS'is a'
p4554
aVplayer
p4555
aa(lp4556
Vbimalendu mukherjee
p4557
aS'is a'
p4558
aVclassical player
p4559
aa(lp4560
Vbimalendu mukherjee
p4561
aS'is a'
p4562
aVsitar player
p4563
aa(lp4564
Vbimalendu mukherjee
p4565
aS'is a'
p4566
aVteacher
p4567
aa(lp4568
Vsitar
p4569
aS'a type of'
p4570
aVplayer
p4571
aa(lp4572
Vudaka vadya
p4573
aS'is a'
p4574
aVindian instrument
p4575
aa(lp4576
Vudaka vadya
p4577
aS'is a'
p4578
aVmusical instrument
p4579
aa(lp4580
Vudaka vadya
p4581
aS'is a'
p4582
aVinstrument
p4583
aa(lp4584
Vgharana
p4585
aVgharana 's
p4586
aVbhendibazaar
p4587
aa(lp4588
Vtanmoy bose
p4589
aVof
p4590
aVvirtuoso
p4591
aa(lp4592
Vtabla
p4593
aV's
p4594
aVindia
p4595
aa(lp4596
Vgharana
p4597
aS'a type of'
p4598
aVgurujus
p4599
aa(lp4600
Vgajananrao joshi
p4601
aVtrain
p4602
aVfamily
p4603
aa(lp4604
Vsarod
p4605
aS'a type of'
p4606
aVplayer
p4607
aa(lp4608
Vwajahat khan
p4609
aS'is a'
p4610
aVplayer
p4611
aa(lp4612
Vwajahat khan
p4613
aS'is a'
p4614
aVsarod player
p4615
aa(lp4616
Vwajahat khan
p4617
aS'is a'
p4618
aVindian player
p4619
aa(lp4620
Vwajahat khan
p4621
aVearn
p4622
aVinternational acclaim
p4623
aa(lp4624
Vwajahat khan
p4625
aVbear in
p4626
aVcalcutta
p4627
aa(lp4628
Vwajahat khan
p4629
aVbear in
p4630
aVindia
p4631
aa(lp4632
Vwajahat khan
p4633
aVdivide
p4634
aVwajahat_khan time
p4635
aa(lp4636
Vdadra
p4637
aVdadra at
p4638
aVlucknow_radio_station
p4639
aa(lp4640
Vgharana
p4641
aS'a type of'
p4642
aVstyle
p4643
aa(lp4644
Vtarana
p4645
aS'a type of'
p4646
aVsinging
p4647
aa(lp4648
Vwamanrao sadolikar
p4649
aVbear into
p4650
aVfamily
p4651
aa(lp4652
Vwamanrao sadolikar
p4653
aVbear in
p4654
aVkolhapur
p4655
aa(lp4656
Vjhaptal
p4657
aVof
p4658
aVfamous tala
p4659
aa(lp4660
Vraga
p4661
aS'a type of'
p4662
aVexposition
p4663
aa(lp4664
Vsugarless
p4665
aVfirst from
p4666
aVswami
p4667
aa(lp4668
Vsugarless
p4669
aS'is a'
p4670
aVsingle first
p4671
aa(lp4672
V53431
p4673
aS'a type of'
p4674
aV's
p4675
aa(lp4676
Vreenat fauzia
p4677
aVcomplete
p4678
aVyear course
p4679
aa(lp4680
Vreenat fauzia
p4681
aVmake
p4682
aVappearance
p4683
aa(lp4684
Vreenat fauzia
p4685
aVhave
p4686
aVaward
p4687
aa(lp4688
Vsantoor
p4689
aVuse as
p4690
aVaccompaniment instrument
p4691
aa(lp4692
g4689
aVuse in
p4693
aVindia
p4694
aa(lp4695
Vsantoor
p4696
aVsit in
p4697
aVasana
p4698
aa(lp4699
g4696
aVplace
p4700
aVit
p4701
aa(lp4702
Vritesh das
p4703
aS'is a'
p4704
aVtablum player
p4705
aa(lp4706
Vritesh das
p4707
aS'is a'
p4708
aVplayer
p4709
aa(lp4710
Vritesh das
p4711
aVstudy
p4712
aVteaching
p4713
aa(lp4714
Vritesh das
p4715
aVbear in
p4716
aVkolkata
p4717
aa(lp4718
Vkhyal
p4719
aS'a type of'
p4720
aVstyle
p4721
aa(lp4722
Vgharana
p4723
aVgharana 's
p4724
aVkirana
p4725
aa(lp4726
g4723
aVgharana for
p4727
aVdecade
p4728
aa(lp4729
Vgirija devi
p4730
aVperform with
p4731
aVsamar_saha
p4732
aa(lp4733
Vrasika
p4734
aVterm for
p4735
aVaesthete
p4736
aa(lp4737
Vrais khan
p4738
aVmove to
p4739
aVpakistan
p4740
aa(lp4741
Vrais khan
p4742
aVmarry
p4743
aVpakistani lady
p4744
aa(lp4745
Vswarmandal
p4746
aVsimilar to
p4747
aVautoharp
p4748
aa(lp4749
g4746
aVsimilar to
p4750
aVzither
p4751
aa(lp4752
Vniladri kumar
p4753
aS'is a'
p4754
aVindian classical
p4755
aa(lp4756
Vniladri kumar
p4757
aS'is a'
p4758
aVclassical
p4759
aa(lp4760
Vniladri kumar
p4761
aS'is a'
p4762
aVfusion musician
p4763
aa(lp4764
Vniladri kumar
p4765
aS'is a'
p4766
aVmusician
p4767
aa(lp4768
Vniladri kumar
p4769
aS'is a'
p4770
aVindian musician
p4771
aa(lp4772
Vniladri kumar
p4773
aVbegin
p4774
aVhis career
p4775
aa(lp4776
Vomkarnath thakur
p4777
aS'is a'
p4778
aVindian educator
p4779
aa(lp4780
Vomkarnath thakur
p4781
aS'is a'
p4782
aVinfluential educator
p4783
aa(lp4784
Vomkarnath thakur
p4785
aS'is a'
p4786
aVeducator
p4787
aa(lp4788
Vsarod
p4789
aS'a type of'
p4790
aVplayer
p4791
aa(lp4792
Vprabha atre
p4793
aVlearn
p4794
aVclassical music
p4795
aa(lp4796
Vprabha atre
p4797
aVlearn from
p4798
aVschool
p4799
aa(lp4800
Vprabha atre
p4801
aVlearn from
p4802
aVhirabai_badodekar
p4803
aa(lp4804
Vprabha atre
p4805
aVlearn from
p4806
aVsureshbabu mane
p4807
aa(lp4808
Vprabha atre
p4809
aVof
p4810
aVsenior vocalist
p4811
aa(lp4812
Vprabha atre
p4813
aVhave
p4814
aVshort stint
p4815
aa(lp4816
Vprabha atre
p4817
aVauthor
p4818
aVbook
p4819
aa(lp4820
Vprabha atre
p4821
aVgive
p4822
aVprivate lesson
p4823
aa(lp4824
Vprabha atre
p4825
aVreceive
p4826
aVacharya_atre_award
p4827
aa(lp4828
Vbalakrishnabuwa ichalkaranjikar
p4829
aVvocalist of
p4830
aVkhayal
p4831
aa(lp4832
Vbalakrishnabuwa ichalkaranjikar
p4833
aS'is a'
p4834
aVindian vocalist
p4835
aa(lp4836
Vbalakrishnabuwa ichalkaranjikar
p4837
aS'is a'
p4838
aVvocalist
p4839
aa(lp4840
Vbalakrishnabuwa ichalkaranjikar
p4841
aVbear in
p4842
aVmaharashtra
p4843
aa(lp4844
Vbalakrishnabuwa ichalkaranjikar
p4845
aVreturn to
p4846
aVmaharashtra
p4847
aa(lp4848
Vbalakrishnabuwa ichalkaranjikar
p4849
aVsettle near
p4850
aVmiraj
p4851
aa(lp4852
Vdhrupad
p4853
aS'a type of'
p4854
aVsinger
p4855
aa(lp4856
Vsitar
p4857
aS'a type of'
p4858
aVplayer
p4859
aa(lp4860
Vgharana
p4861
aVgharana 's
p4862
aVimdadkhani
p4863
aa(lp4864
Vsitar
p4865
aVstudy with
p4866
aVbimalendu_mukherjee
p4867
aa(lp4868
Vgayaki
p4869
aS'a type of'
p4870
aVang
p4871
aa(lp4872
Vjohar ali khan
p4873
aS'is a'
p4874
aVviolinist
p4875
aa(lp4876
Vjohar ali khan
p4877
aS'is a'
p4878
aVindian violinist
p4879
aa(lp4880
Vjohar ali khan
p4881
aS'is a'
p4882
aVclassical violinist
p4883
aa(lp4884
Vjohar ali khan
p4885
aVbelong to
p4886
aVpatiala_gharana
p4887
aa(lp4888
Vjohar ali khan
p4889
aVrepresent
p4890
aVindia
p4891
aa(lp4892
Vjohar ali khan
p4893
aVcompose
p4894
aVmusic
p4895
aa(lp4896
Vjohar ali khan
p4897
aVperform for
p4898
aVnon-government organization
p4899
aa(lp4900
Vjohar ali khan
p4901
aVperform for
p4902
aVseveral organization
p4903
aa(lp4904
Vjohar ali khan
p4905
aS'is a'
p4906
aVmember
p4907
aa(lp4908
Vjohar ali khan
p4909
aS'is a'
p4910
aVassembly
p4911
aa(lp4912
Vjohar ali khan
p4913
aS'is a'
p4914
aVgeneral assembly
p4915
aa(lp4916
Vjohar ali khan
p4917
aVmember of
p4918
aVadvisory committee
p4919
aa(lp4920
Vjohar ali khan
p4921
aVassembly of
p4922
aVindian_council_for_cultural_relations
p4923
aa(lp4924
Vjohar ali khan
p4925
aVcreate
p4926
aVjohar band ali own khan sargam
p4927
aa(lp4928
Vjohar ali khan
p4929
aVhave
p4930
aVmember
p4931
aa(lp4932
Vsulochana brahaspati
p4933
aS'is a'
p4934
aVvocalist
p4935
aa(lp4936
Vsulochana brahaspati
p4937
aS'is a'
p4938
aVexponent
p4939
aa(lp4940
Vsulochana brahaspati
p4941
aVexponent of
p4942
aVrampur-sahaswan gharana
p4943
aa(lp4944
Vgharana
p4945
aVgharana 's
p4946
aVbenares
p4947
aa(lp4948
Vkarsh kale
p4949
aVtake
p4950
aVinterest
p4951
aa(lp4952
Vkarsh kale
p4953
aVbecome
p4954
aVtablum player
p4955
aa(lp4956
Vsitar
p4957
aS'a type of'
p4958
aVartist
p4959
aa(lp4960
Vgharana
p4961
aVgharana 's
p4962
aVetawah
p4963
aa(lp4964
Vsitar
p4965
aS'a type of'
p4966
aVtraining
p4967
aa(lp4968
Vshehnai
p4969
aS'a type of'
p4970
aVorigin
p4971
aa(lp4972
Vraga
p4973
aVoriginate about
p4974
aVtime
p4975
aa(lp4976
g4973
aVoriginate in
p4977
aVmaharashtra
p4978
aa(lp4979
Vdhrupad
p4980
aVbe
p4981
aVmany overlap
p4982
aa(lp4983
Vkhyal
p4984
aS'a type of'
p4985
aVsing
p4986
aa(lp4987
Vraga
p4988
aVrequire
p4989
aVless tuning
p4990
aa(lp4991
Vkhyal
p4992
aS'a type of'
p4993
aVstyle
p4994
aa(lp4995
Vjaipur-atrauli gharana
p4996
aVgharana of
p4997
aVhindustani music
p4998
aa.