(dp1
Vheadline
p2
VWeekend music
p3
sVnews
p4
VThe event will feature a vocal concert by Kaushiki Chakrabarty with Kushal Das on sitar on November 16. The second day S.C.R. Bhat will be felicitated after which Hariprasad Chaurasia will perform along with Yogesh Samsi on tabla, Vyasmurti Katti on harmonium and Gurumurthy Vaidya on tabla.The concert is open to all and for details contact 080 23341611.
p5
sVdate
p6
V2007/11/16
p7
sVurl
p8
Vhttp://www.hindu.com/thehindu/fr/2007/11/16/stories/2007111651130400.htm
p9
sVphoto
p10
(dp11
g8
V
sVcaption
p12
V
ss.