(dp1
Vheadline
p2
VEngaging recital
p3
sVnews
p4
VNada Bharathi, a music sabha being run by a set of young musicians, organised this time a vocal concert of veteran scholar and musician and violinist Komanduri Seshadri. The programme was held at Karnataka Sahitya Mandir, last week. On the occasion Seshadri had his son Venkata Krishna accompanying him on violin, with P.S.Gopalan on mridangam and T.P.Balasubramanyan on ghatam. Singing with his usual composure and clarity of diction, Seshadri was at his best in the mainragaAbheriforNagumomu. He displayed sense of proportion in presenting each composition, giving it right kind of treatment, right from the openingThodi varnam.A .Purandara Dasa compositionJaya JayainNatapreceded the firstragaelaboration of the evening,Amrrutha Varshini.Anandamritavarshiniof Deekshitar, was his natural choice in this because of the on set of monsoon.Mayammaof Shyama Sastry inAahirithat came next was a fine rendition with a devotional appeal.The main attraction wasAbherithat made lasting impression more because of the attention he gave not only to theragapresentation in the three octaves but also the style of rendition of popularkriti Nagumomu.Theswara kalpanawas another pleasure that had a couple ofragasextending  intoRagamalika, Kedara GowlaandSaveri. Thyagaraja'sNagumomuwas a delight to listen too. Thetani avartanambetween Srinivasa Gopalan and Balasubramanyan was quite balanced and soothing too, keeping up with the mood of the composition.JagadoddharanainKapiof Purandara Dasa was quite engaging.Venkata Krishna's violin support proved quite complementary to his father's vocal recital.GUDIPOODI SRIHARIBottom Template Starts
p5
sVdate
p6
V2005/07/01
p7
sVurl
p8
Vhttp://www.hindu.com/thehindu/fr/2005/07/01/stories/2005070101560300.htm
p9
sVphoto
p10
(dp11
g8
V
sVcaption
p12
V
ss.