(dp1
Vheadline
p2
VTrue classicist
p3
sVnews
p4
VThe Visakha Music Academy featured a vocal recital by the Sangeetha Kalanidhi award recipient, B. Rajam Iyer of Chennai in Kalabharathi.  While his prime disciple V. Subrahmanyam excellently sang in tandem, Akashvani staffers N.C. Madhav on the violin and V.V. Ramana Murthy on themridangamalong with young but well accomplished M. Sridhar on theghatamlent exquisite support.The 82-year-old Rajam seems  to be still going strong.  From the word go starting with theAnanda Bhairavi varnamtill he concluded on a scintillating note with athillanainKhamas, he literally cast a spell. After evocatively renderingEkadantamof Dikshitar (Bilahari), he expansively elaboratedParipoornakamaof Thyagaraja (Poorvikalyani),Yevarikai Avataaramethithivoof the same composer. The prefix ofaalapanawas a reflection of his scholarly grip onmanodharma. He took upPasupatheeswaram(Subhapantuvarali)  and created an ecstatic mood all around. Rendition ofPadavi Neesadbhakthi(Salagabhairavi) next and an adeptragam, taanam, pallavi(Khanda Jhampe) that followed,  further transported  the mood deep into realms of sublime ecstasy.TheswarakalpanainRagamalikacomprisingAthana, DharmavathiandBehagwas a special attraction. Then followed aslokaminDhanyasiand a soul soothingalapanaofMohanaforNarasimhaagatchabefore the conclusion with theKhamas thillana.A.R.S.Bottom Template Starts
p5
sVdate
p6
V2005/04/29
p7
sVurl
p8
Vhttp://www.hindu.com/thehindu/fr/2005/04/29/stories/2005042901390200.htm
p9
sVphoto
p10
(dp11
g8
Vhttp://www.hindu.com/fr/2005/04/29/images/2005042901390201.jpg
p12
sVcaption
p13
VVOCAL MAGIC Rajam Iyer at his vocal concert.
p14
ss.