(dp1
Vheadline
p2
VMusical remedies
p3
sVnews
p4
V
sVdate
p5
V2007/09/28
p6
sVurl
p7
Vhttp://www.hindu.com/thehindu/fr/2007/09/28/stories/2007092850100300.htm
p8
sVphoto
p9
(dp10
g7
V
sVcaption
p11
V
ss.