(dp1
Vheadline
p2
VVeteran vocalist honoured
p3
sVnews
p4
V
sVdate
p5
V2007/12/21
p6
sVurl
p7
Vhttp://www.hindu.com/thehindu/fr/2007/12/21/stories/2007122150620300.htm
p8
sVphoto
p9
(dp10
g7
V
sVcaption
p11
V
ss.