(dp1
Vheadline
p2
VMelody with promise
p3
sVnews
p4
VSri Karthikeya Gana Sabha, a newly-firmed sabha by Dudduganapathi who hails from a music family from Tarnaka, featured a vocal recital by upcoming artiste Dharani Sandya Sree. The concert was the second monthly recital and was held at Teachers Education auditorium, Andhra Mahila Sabha.Sandya, a disciple of noted violinist Akella Mallikarjuna Sharma, showed a lot of promise in her performance. With a rich melodious voice and good understanding of manodharma, Sandhya began her recital with a balanced Khambhoji atatala varnamSarasijhanabha.Gananayakamin Rudrapriya of Deekshitar was next to come with a brief swaram.Sandhya has the habit of selecting at least one rare krithi in her concerts andRakshimpa vein Mayamalavagowla was one which was neatly presented with good bhavam. Chandra Jyothi was essayed for a neat alap and Thyagaraja&#8217;sBhagayanayyawas the krithi with mathematical swaraprastaramin it.Sree Rama namamein Atana of Ramadasu was another catchy item. Thodi was taken for a detailed expansion and here the artiste presented knowledgeable ragam with good phrases of the ragam.Swathi Thirunal&#8217;sSarasijhanabha murarein Misrachapu was well-executed and with well-planned calculations in the swarakalpanai. This was followed by a brief Ragam Tanam Pallavi in the ragam Nagaswaravali. This is a complex raga for expansion and Sandya did well in ragam and tanam, for which she has done her homework very well. The pallaviSada Na Moralimparadhaset to Adi talam with three akshara eduppu was presented neatly with ragamalika swarakalpana.Rajeshakar on the violin, who also hails from Akella School, did well with his accompaniment and his thodi and nagaswaravali improvised the concert. The young mridangist Mehar Srinivas also lent neat support.The final attractions of the concert includedSrinivasa Thiruvenkata mudayam, followed byRamududhbhavinchinadauin Yadukula Khambhoji andManave mantralayamin suddha saranga, which were elegantly presented.On the whole Sandya&#8217;s concert showed lot of promise with good teamwork.
p5
sVdate
p6
V2009/11/06
p7
sVurl
p8
Vhttp://www.hindu.com/thehindu/fr/2009/11/06/stories/2009110650640300.htm
p9
sVphoto
p10
(dp11
g8
Vhttp://www.hindu.com/fr/2009/11/06/images/2009110650640301.jpg
p12
sVcaption
p13
VWell sungSandya Sree
p14
ss.