(dp1
Vheadline
p2
VPurity of tradition
p3
sVnews
p4
VP. SURYA RAOTuneful voice, elegant style and commanding musical depth marked the concert of Master Balamuralikrishna of Chennai who sang for Sri Sadguru Sangeeta Sabha of Vijayawada at Sri Sivaramakrishna Kshetram. Master Balamurali has  earned considerable reputation as a vocalist to watch in Chennai music seasonsabhasand he has also performed in all the importantsabhasin the Country.He began the concert withKambhoji Ata tala varnamand followed it withSidhivinayakaminShanmukhapriyafinishing it with fluentkalpana swaras. After rendering the Pancharatna keertanaSadhincheneinArabhi,Balamuralikrishna took upPantuvaraliand unveiled the raga portrait magnificently preceeding thekeertanaSambho Mahadevaof Thyagaraja. Theneravalandswarasamply showed his musical depth. However,RakshabettareinBhairavi,which was taken for the main item of the concert was rendered with great aesthetic sense and sahitya bhava. The kalpana swaras in this item amply proved Master Balamurali's laya precision. B.V. Durgabhavani and M. Lakshminarayana Raju, both staff artistes of Vijayawada Akashvani lent fine support on violin and mridangam.Bhavani'sBhairaviversion and Raju'stanialso stood as highlights in the concert. S. Hanumanta Rao combined well on ghatam with the mridangam player  and both percussionists presented a thrillingtani. The vocalist gave a good finish to the concert with singing an Annamacharya keertana and Swathi Thirunal's famousthillanainDhanasri.Bottom Template Starts
p5
sVdate
p6
V2006/02/03
p7
sVurl
p8
Vhttp://www.hindu.com/thehindu/fr/2006/02/03/stories/2006020301410200.htm
p9
sVphoto
p10
(dp11
g8
Vhttp://www.hindu.com/fr/2006/02/03/images/2006020301410201.jpg
p12
sVcaption
p13
VVOCAL PEAK Balamuralikrishna takes up the chords.
p14
ss.