(dp1
Vheadline
p2
VCultural meeting point
p3
sVnews
p4
VThe evening kicked off with the resonant voice of versatile vocalist Sangeeta Katti Kulkarni from Bangalore. A disciple of Kishori Amonkar, Sangeeta, has assimilated in her singing style the best of the threegharanas- Kirana, Gwalior and Jaipur- in which she has been trained. Singing with spontaneity, the gifted vocalist regaled the audience with restrained recital of raga Purya Dhanashri followed by a popular Meera bhajanmharo pranamset to raga Yaman Kalyan. Her concluding number, a Marathiabhangof Vithal Das and composed by her guru Amonkar, was a beautiful blending of ragas Bibhas and Todi.The Odissi dance recital was presented by New Delhi-based Reela Hota followed by two budding and brilliant male dancers of Bhubaneswar-based Rudrakshya dance centre - Laingaraj Pradhan and Amulya Balbantray - who presented &#8217;Sanjog&#8217;, a classic choreographic composition of their guru Bichitrananda Swain in which elements of folk and music of Orissa have brilliantly been blended.Striking nice chemistry between them, Kathak dancer couple Abhimanyu Lal and Vidha Lal, commenced with &#8221;Vo Sambhu&#8217;, an invocation to Lord Shiva, followed by the traditional repertoire in which Abhimanyu excelled in intricate footwork while Vidha impressed with her intense emoting.
p5
sVdate
p6
V2007/11/30
p7
sVurl
p8
Vhttp://www.hindu.com/thehindu/fr/2007/11/30/stories/2007113050890200.htm
p9
sVphoto
p10
(dp11
g8
V
sVcaption
p12
V
ss.