(dp1
Vheadline
p2
VPleasing vocals
p3
sVnews
p4
VBhargava (24) hails from a family of musicians and had the initial training from his grandfather Thadepalli Srikantha Sastry, a noted name of those times. Later, he was under the tutelage of Malladi Suribabu.A post graduate in music, Bhargava is presently doing M.Phil on the compositions of Swathi Tirunal. Hyderabad Music Circle arranged his vocal concert last week at the mini theatre of Thyagaraya Gana Sabha. He was accompanied by young musicians Peri Thyagaraju on violin and Burra Sriram on Mridangam.Bhargava displayed good vocal culture and imagination. He began with AbhogiVarnamEvari Bodhanathat gave him time to set himself well and also his voice. Then he rendered the popular invocationVatapiin Hamsadhwani withswaras. He took up a rare compositionGopalaka Pahimamof Swathi Tirunal in Revagupti. The rendition was interesting and theswarakalpanastrengthened its appeal further. This was in Misrachapu Talam.The firstragaessay of the evening was Poorvi Kalyani which he detailed with a leisurely approach.The choice wasa Gjnanamosagaradain thisragaand enriched it further with the presentation ofnerevalandswaramat the lineParamatmudu, Jeevatmudu. However the major attraction of his concert was the essaying of Bhairavi forLalithasri Pravrutthe.His intonation is sharp, clear and disciplined which was experienced in thisragadelineation.Young Thyagaraju on violin gave a matured support to the vocalist while mridangam player Burra Sriram displayed his skill in theTani Avartanam. The final chunk of the concert was notable for a Ramadasukirtana Ramajogi Mandu Gonarein Khamas.G.S
p5
sVdate
p6
V2008/06/20
p7
sVurl
p8
Vhttp://www.hindu.com/thehindu/fr/2008/06/20/stories/2008062050600300.htm
p9
sVphoto
p10
(dp11
g8
V
sVcaption
p12
V
ss.