(dp1
Vheadline
p2
VA grand recital
p3
sVnews
p4
V
sVdate
p5
V2008/04/25
p6
sVurl
p7
Vhttp://www.hindu.com/thehindu/fr/2008/04/25/stories/2008042550740300.htm
p8
sVphoto
p9
(dp10
g7
V
sVcaption
p11
V
ss.