(dp1
Vheadline
p2
VBefitting beginning  to a valedictory
p3
sVnews
p4
VA short vocal recital by Kasturi Kamala Deepti, AIR artiste (veena and vocal) marked the beginning of the valedictory of the year-long diamond jubilee celebration of Sri Vijaya Thyagaraja Sangeetha Sabha last Tuesday in Kalabharathi. Accompanied on violin by M. Neeladri Rao and mridangam by M. Yedukondalu , she evolved a thrilling tempo renderingSri Vighnarajambhaje(Gambhira Nata),Mariveredikkevarayya(Shanmukhapriya) withswaram, elaboration ofNeevera Kuladhanamu(Begada) and a composition of PurandharadasainSuddhadhanyasi.Then after presentation of the valedictory address young musicians were felicitated. Mridangam artiste K. Sadguru Charan is also known for his talent of layafeat Panchamukhiwas the first to be honoured with the award of the diamond jubilee gold medal. While Kasturi Kamaladeepti and M. Neeladri Rao (violinist) followed suit receiving the annual awards (gold medals) of the sabha instituted in memory of its past presidents Alahari Singari and Durvasula Bhagavanulu, A. Ananda Srihari who stood first in the national competitions in mridangam conducted by AIR this year was also felicitated.Recital by noted vocalist Pantula M. Rama in the company of her husband M. Srinivasa Narasimha Murty (AIR staffer) on violin and Sadguru Charan on mridangam proved to be the grand finale of the evening.Evolving a gripping tenor and tempo from the word go with the rendering ofRamabhaktisaamrajyam(Suddhabangala), she sustained it renderingNannu vidachi(Reethigoula) withaalapanaandBantureethikoluvu(Hamsanaadam) withneravuandswaramtill she concluded with an elaboration ofNaajeevaadhara(Bilhari) and she enthralled all alike in the auditorium.A. R. S.Bottom Template Starts
p5
sVdate
p6
V2007/01/05
p7
sVurl
p8
Vhttp://www.hindu.com/thehindu/fr/2007/01/05/stories/2007010500050200.htm
p9
sVphoto
p10
(dp11
g8
V
sVcaption
p12
V
ss.