(dp1
Vheadline
p2
VA treat of ragas
p3
sVnews
p4
VLater, Sowmya, accompanied on violin by Vishnubhatla Krishnaveni, Dandamudi Sumathi Rammohana Rao on mridangam (both from Vijayawada) and Sukkanya Ramagopal of Bangalore on ghatam, rendered a sedate but reposeful recital. The highlight was the expansive elaboration ofJanakipathiof Papanasam Sivam inKharaharapriya. Excellent following and erudite responses in their turns by all accompanists contributed splendour. The next evening started with the ceremonial function of conferring the title Sangeetha Kalaasagara on the renowned vocalist T.V. Sankaranarayanan who later treated the audience with scholarly exposition of carnatic music. His choice for the evening in the expert company of Nagai R. Sriram on violin andNeyveli Skanda Subrahmanyamon mridangam was mainly constituted of exquisite elaboration ofHimadrisuthe (Kalyani), Sarasasamadana (Kapinarayana), Marakathavalli (Kambhoji)andBrindavani Raagamandtaanamfollowed by apallaviinKhandatriputa.Thanion mridangam was liltingly a scholarly exercise.A Jugalbandi of the South and North Indian traditions of exposition of vocal music rendered eruditely with an import of elated mood and soulful purport of creating soul stirring impact sans any ado marked not only the third evening but also the climax of the fete. Starting on a scintillating note with theAbhogi varnam(Carnatic) with a brief but beautifulaalapana, the artistes of the evening Sriram Parasuram and Anooradha Sriram of Chennai in the expert company of VV Srinivasa Rao on violin and P. Satishkumar on mridangam, the couple went on with the elaborateaalapanaof comparable ragasNaataandJogalternately in evenly distributed bits and renderedSwamynathaand a Hindustani composition in succession in the two traditions with elaborateswaraklpanaandSargam. They gave a similar treat ofMarvaandHamsanandifor select compositions in both the styles.
p5
sVdate
p6
V2007/11/30
p7
sVurl
p8
Vhttp://www.hindu.com/thehindu/fr/2007/11/30/stories/2007113050870200.htm
p9
sVphoto
p10
(dp11
g8
V
sVcaption
p12
V
ss.