(dp1
Vheadline
p2
VNew releases
p3
sVnews
p4
VSa Re Ga MaCarnatic (vocal)DVD (Rs. 175)Listen to M.S. Subbulakshmi, D.K. Pattammal, MLV and Vedavalli in this album.Sangita Kalanidhis Laya PravahamSa Re Ga MaCarnatic (instrumental)DVD (Rs. 175)This album has two items, representing the accompaniment on the mridangam, presented by Palghat Mani Iyer, T.K. Murthy, Umayalpuram Sivaraman and Vellore G. Ramabhadran.Sangita Kalanidhis Sahitya PravahamSa Re Ga maCarnatic (vocal)DVD (Rs. 175)Listen to the compositions of stalwarts such as Tiger Varadachari, Muthaiah Bhagavatar, Ponniah Pillai, Mysore Vasudevachar and Papanasam Sivan, rendered by eminent musicians.Sangita Kalanidhis Vaadya PravahamSa Re Ga MaCarnatic (instrumental)DVD (Rs. 175)This album presents select instrumental performances by Dwaram Venkataswamy Naidu, T. Chowdiah, T.N. Krishnan, V. Doreswamy Iyengar, N. Ramani, M.S. Gopalakrishnan, Sheikh Chinnamoulana and Sikkil Sisters.Abhayaamba Vibhakti KritisSa Re Ga MaCarnatic (Vocal)DVD (Rs. 150)2This album features the compositions of composer Muthuswamy Dikshitar.
p5
sVdate
p6
V2009/01/02
p7
sVurl
p8
Vhttp://www.hindu.com/thehindu/fr/2009/01/02/stories/2009010251060600.htm
p9
sVphoto
p10
(dp11
g8
Vhttp://www.hindu.com/fr/2009/01/02/images/2009010251060605.jpg
p12
sVcaption
p13
V
ss.