(dp1
Vheadline
p2
VNew releases
p3
sVnews
p4
VThe December Season 2008 marked the 82nd year of the music and dance festival that has an important place in the city&#8217;s cultural calendar.Charsur has released albums of concerts recorded live at different venues.  There&#8217;s Amritha Murali&#8217;s performance at Naada Inbam, Sikkil Gurucharan&#8217;s recital for Sarvani Sangeetha Sabha at The Music Academy, and Kunnakudi Balamuralikrishna&#8217;s and Nisha Rajagopal&#8217;s concerts at Vinnyasa Premier Art Gallery. A treat for music lovers!Two-CD pack;Charsur Digital Work Station; Rs. 375
p5
sVdate
p6
V2009/08/28
p7
sVurl
p8
Vhttp://www.hindu.com/thehindu/fr/2009/08/28/stories/2009082850630300.htm
p9
sVphoto
p10
(dp11
g8
Vhttp://www.hindu.com/fr/2009/08/28/images/2009082850630301.jpg
p12
sVcaption
p13
V
ss.