(dp1
Vheadline
p2
VThyagaraja jayanthi celebrations
p3
sVnews
p4
VCommemorating the 241st birth anniversary of Thyagaraja on May 3, coinciding with Vaisakha Suddha Sashti, Thyagaraja Aaradhana Trust organisedSangeetha Sodaaharana Prasangamby V. Lalitha Chandrasekhar in Kalabharathi last week.Though a novice in undertaking such exercises, Lalitha did well in narrating the life history of the legendaryvaaggeyakaarain detail, interspersing it with the rendering of select compositions out of the fivekritisonTripurasundariat Tiruvayur, theKovurandSrirangam pancharatna kritisbesides thekritiscomposed at Tapasteertham (Lalgudi) and other places like Tirupathi and so on. She also made an effort explaining how Thyagaraja derived and expoundedragabhavacomposingkritisandkeerthansnot only in all the 72melakarthascales but also hundreds ofApuroopascales besides structuring more than a hundred scales himself.Lalitha was accompanied by violinist K.V.S. Prasad and mridangist G. Venkata Rao, who lent excellent support.Devotional musicThe week also witnessed a recital of devotional music by AIR artiste P. Sita from Mumbai in the Shirdi Sai Baba temple complex in Sitammadhara. It was organised by Shirdi Sai Baba Spiritual Centre.Range and melody coupled with evocative expression marked her rendering which comprisedJayadev Ashtapadis, a couple of them from feature films, and select compositions of Kabir, Surdas, Meera and Tulsidas. A.S. John on keyboard and flute, well supported on another keyboard by Manohar Prasad, violin by Vijayasri, guitar by Md. Parveej and scintillating tabla by D. Dhanunjay, put up a good show. P.V.K.S. Nalinikanth and M.G. Sankaran compered the programme. A.R.S.A.R.S.Bottom Template Starts
p5
sVdate
p6
V2006/05/12
p7
sVurl
p8
Vhttp://www.hindu.com/thehindu/fr/2006/05/12/stories/2006051201140200.htm
p9
sVphoto
p10
(dp11
g8
Vhttp://www.hindu.com/fr/2006/05/12/images/2006051201140201.jpg
p12
sVcaption
p13
VVERITABLE FARE V.Lalitha Chandrasekhar's `Sangeetha Sodaaharana Prasangam' recital.
p14
ss.