(dp1
Vheadline
p2
VYoung and promising
p3
sVnews
p4
VAbly accompanied by almost the same age group of artistes - P. Gnanadev on violin and P.V. Mehersagar on mridangam - Lakshmi, a disciple of noted vocalist Jalajakshi, got off to an engaging start renderingSriragavarnamin the two tempos. Then, after fluently renderingMahaganapatim (Naata), Gourisukumaariof N.Ch. Krishnamacharyulu (Vasantha), Sarasijanaabha (Naagagandhari)andBantureethi Koluvu (Hamsanaadam), she rendered a short but neatly structuredaalapanaforRaagaratnamalikache (Reethigoula) concluded withswaram.Then, after renderingSogasuchoodataramaevocatively (Kannadagoula), she expansively elaboratedSundari Needivya (Kalyani). Theaalapana, neravuandswaramrendered with spontaneity in expression in the two tempos were replete with phraseology that relevantly represented the characteristic attributes of the raga andsahitya bhavas.Thus, not only revealing the artiste in the making in her but also holding a bright promise for the future, she concluded her recital after renderingRaminchuvaarevarura (Suposhini), devotional songs likeNarayanathe Namonamo, Adigoalladigoand Balamurali&#8217;sThilanainBrindavanion a brisk note.Both Gnanadev and Meher Sagar proved to be well accomplished artistes and contributed grandeur to the performance.
p5
sVdate
p6
V2007/12/21
p7
sVurl
p8
Vhttp://www.hindu.com/thehindu/fr/2007/12/21/stories/2007122150530200.htm
p9
sVphoto
p10
(dp11
g8
V
sVcaption
p12
V
ss.