(dp1
Vheadline
p2
VJalatarangini jazzes up nite
p3
sVnews
p4
VRendering of recitals of Carnatic music by striking the edges of porcelain cups of graded sizes (21 to cover 3 or 15 to cover 2 octaves from the Mandra to the Taara Panchamam) with sticks, summum bonum to be called as Jalatarangini though is of a rare occurrence, is not an entirely unknown phenomenon in the South.Sri Vijaya Tyagaraja Sangeetha Sabhaorganised a Jalatarangini recital by Anayampatti S. Ganesh of Chennai, a name to reckon with among the very few exponents of Carnatic music on it at present. It was held last Wednesday in Kalabharathi.Though it was delayed , lovers of music, especially those who had not even heard of the name of such an eventwaited patiently. At last, at 7.30 p.m. Ganesh started tuning the cups and got off to a start half-an-hour later playingVaataapi(Hamsadhvani) adorned withaalapanaandswaramin the two speeds.Then he played theSriraga Pancharatna kritiof TyagarajaEndaromahanubhavuluevocatively and followed it with a brief but beautiful elaboration ofSudhamayi(Amritavarshini).Then figured a scintillating version ofSarasa Saama Daana(Kapi Narayana),Nagumomuganaleniembellished withragamandswaramand expansive exposition ofBhavanutha(Mohana). G. Sinu on the violin and Tanjore Subrahmanyam on mridangam (both from Chennai) and local artiste Y. P. S. Madhu Babu on ghatam lent excellent support. Subrahmanyam and Madhu Babu as well rendered a knowledgeable Tani. Ganesh concluded the recital with a Magudi (folk item).A.R.S.Bottom Template Starts
p5
sVdate
p6
V2006/03/17
p7
sVurl
p8
Vhttp://www.hindu.com/thehindu/fr/2006/03/17/stories/2006031702100200.htm
p9
sVphoto
p10
(dp11
g8
V
sVcaption
p12
V
ss.