(dp1
Vheadline
p2
VA delightful jugalbandi
p3
sVnews
p4
VGoodwill Communications in aid of its Chennai-based NGO, Good Life organised a Hindustani and Carnaticjugalbandiin Kalabharathi last Sunday.Singers Shubha Mudgal in the company of Sudhir Nayak on harmonium and Anish Padhan on tabla and Bombay Jayashree with Embar Kannan on violin and P. Subrahmanyam on mridangam representing the two genres of Indian classical music featured in the programme.The eventgot off to a mellifluous start with the rendering ofaalapanaof Dharmavathiby Jayashree for Vasudevachar&#8217;sBhajanaseyaradaand Madhuvanthiby Shubha for the compositionMaine Maanaayi Naahi. Both concluded with racyswaramin both the tempos.A similar exercise in delineating Khamas on violin and Khamaj on harmonium followed.In response to Shubha&#8217;s composition in Khamaj, Jayashree rendered the popular JavaliMarubaarikoorvalenurain Khamas.Jayashree sang the lullabyKannammainterspersed with ajhoolasong by Shubha in Peelu. The programme overall enchanted the music lovers.
p5
sVdate
p6
V2008/08/01
p7
sVurl
p8
Vhttp://www.hindu.com/thehindu/fr/2008/08/01/stories/2008080150520200.htm
p9
sVphoto
p10
(dp11
g8
Vhttp://www.hindu.com/fr/2008/08/01/images/2008080150520201.jpg
p12
sVcaption
p13
V
ss.