(dp1
Vheadline
p2
VAn evening of  mandolin
p3
sVnews
p4
VStrangely, some of the most well knownmandolin players hail from West Godavari district, in particular Palakol. U. P. Raju and Nagamani, husband and wife team presented a scintillating mandolin duet for the monthly sabha Swarajhari at Sri Sivaramakrishna Kshetram, Vijayawada.Raju received his musical training initially from late vidwan Rudraraju Subbaraju and gradually rose to eminence. His wife Nagamani was trained by her husband and both of them have given innumerable concerts in the country and abroad.They received many prestigious awards and also produced a large number of CDs and cassettes that have been lapped up listeners.The concert was sponsored by Lakshmana Siva Sarma and his wife Syamalamba.Raju and Nagamani handled their instruments with great efficiency. They started the concert with `Viriboni'(Bhairavi)varnamand followed with `Sidhi Vinayakam' inShanmukhapriyawith fine raga delineation andkalpana swaras. This was followed by a Tamil tradition item called Mallari that is usually played in Tamil Nadu during religious processions. Nagamani played an attractive version ofPoorvikalyanibefore the couple played `Ananda Natana' a Tamilkeertana. The main item of the concert was a sumptuousragam tanam pallaviinGowrimanohariand set toKhanda triputa talam.The pallavi was excellently executed by Raju and Nagamani and thekalpanaswaraswere played as a melodiousragamalika. Superb mridangam support was given by Patri Satish Kumar whose touch on the mridangam was soothing to the ear.Satish and ghatam artiste Tiruchi Murali presented a thrilling rhythmic treat at the end of thepallavi.P.SURYA RAOBottom Template Starts
p5
sVdate
p6
V2006/10/27
p7
sVurl
p8
Vhttp://www.hindu.com/thehindu/fr/2006/10/27/stories/2006102701070200.htm
p9
sVphoto
p10
(dp11
g8
V
sVcaption
p12
V
ss.