(dp1
Vheadline
p2
VYoung musicians
p3
sVnews
p4
VThe Devnanadan Ubhayaker Yuva Sangeet Utsav as part of its 23rd year celebrations presents promising students of famous gurus at the Chowdiah Memorial Hall, Bangalore on August 29 and 30.The festival opens with Vinayak Devadiga on the shehnai, student of Shadakshari Gavayi, 6.15 p.m.There will be a dhrupad recital by Pallab Das, a disciple of Rahim Fahimuddin Khan Dagar 7.45 p.m.Student of Pandit Vinayak Torvi, Dattatreya Velankar&#8217;s vocal performance and Shakir Khan, son and student of Ustad Shahid Parvez Khan is on August 30, in the morning session that begins at 10 a.m.  Srivani Jade, student of PanditPandit Parameshwar Hegde and Sangeeta Shankar, student and daughter of the illustrious N. Rajam will perform in the evening session that begins at 6 p.m.The accompanists are Madhusoodan Bhat, Sukhad Munde, Ravindra Yavagal, Mihir Kalianpur, Madhu G. Kudalkar, and Jagannath Brothers.Entry is free.
p5
sVdate
p6
V2009/08/28
p7
sVurl
p8
Vhttp://www.hindu.com/thehindu/fr/2009/08/28/stories/2009082850900300.htm
p9
sVphoto
p10
(dp11
g8
Vhttp://www.hindu.com/fr/2009/08/28/images/2009082850900301.jpg
p12
sVcaption
p13
VON STAGESrivani and Sangeetha Shankar
p14
ss.