(dp1
Vheadline
p2
VKnowledgeable exposition
p3
sVnews
p4
VDaughter-disciple of Narasingarao Naidu, Manorama, starting with the Kharaharapriya Varnam, reflected the Dwaram&#8217;s technique of playing the violin with dexterity till the end. She concluded with a folk tuneMokkajonnathotalo. The other items she played wereVandeham Siddhivinayakam(Hamsadhvani) with brief aalapana and swaram,Enthamuddo Enthasogaso(Bindumaalini),Endaromahanubhavulu(Pancharathbakriti of Saint Tyagaraja in Sri) andSank/ara(Hamsanandi composition of Swathi Tirunal) and an expansive expatiation ofJanani(Reethigoula). Her former colleague, Ivaturi Saradachalam on violin and Mandapaka Nagalakshmi on mridangam  lent excellent support contributed to the grandeur.Following the routine of organising the staging of either two short plays or one full play every first Friday, Visakha Music and Dance Academy featuredAthanipere NarasimhamandKasturi Ranga Rangain its auditorium last week. Both were directed by M.K. Nagabhushana Rao for Nataraja Arts Creations.The first, script by noted dramatist Kasi Viswanadh, depicted a story of a widow whose parents want her to get married again. However, they don&#8217;t agree with her choice. To the surprise of everybody in the family, her aged grandfather Narasimham (played by the director himself) supports her and everything settles well in her life. . The second playKasturi Ranga Rangascripted by Y. Saibaba did not sustain enough interest in the audience.
p5
sVdate
p6
V2007/12/14
p7
sVurl
p8
Vhttp://www.hindu.com/thehindu/fr/2007/12/14/stories/2007121451230200.htm
p9
sVphoto
p10
(dp11
g8
V
sVcaption
p12
V
ss.