(dp1
Vheadline
p2
VAural treat
p3
sVnews
p4
VNaadha TaranginiM. Chandrasekhar and G. Bharathi; Carnatic- instrumentalMoserbaer; DVD - Price Rs. 99Listen to the classic collection of kritis as Moserbaer brings out the DVD titled, &#8216;Naadha Tarangini,' featuring violinists M. Chandrasekhar and G. Bharathi. The collection comprises kritis of Dikshitar, Tyagaraja, Purandaradasa and Bharati.
p5
sVdate
p6
V2010/08/27
p7
sVurl
p8
Vhttp://www.hindu.com/thehindu/fr/2010/08/27/stories/2010082750540400.htm
p9
sVphoto
p10
(dp11
g8
Vhttp://www.hindu.com/fr/2010/08/27/images/2010082750540401.jpg
p12
sVcaption
p13
V
ss.