(dp1
Vheadline
p2
VReverberating with bhakti
p3
sVnews
p4
VConcerts by leading musicians marked the annual Sri Ramanavami Sangeetha Mahotsavam organised by the Sri Sringeri Sankara Mutt at Srirangam, Tiruchi, recently.The nine-day festival commenced with Carnatica Brothers' vocal concert. They started with the brilliant varnam of GNB in Andholika. The duo took up Swati Tirunal's &#8216;Bhavayami' as the main piece. After the short and crisp thani by Koviladi Madhwaprasadh and ghatam Krishna, the Brothers rendered &#8216;Lakshmi Kalyanam' of Ravikiran and Dasar's Mangalam. The alapana of Anandhabhairavi and the ragamalika were excellent. The kalpanaswaras for Nattai, Dhenuka, Kapinarayani and for &#8216;Bhavayami' were brisk and well-conceived.Delightful concertOn the second day, Bharathi Ramasubban gave a delightful concert. She started with &#8216;Jutha Murare' of Tyagaraja, &#8216;Sankari Samkuru' of Syama Sastri followed by Sri Acharyal's &#8216;Bhajare Loka Gurum' in Khamas, &#8216;Sri Bhargavi' of Dikshitar in Mangala Kaishiki, Chandrasekara Bharati's &#8216;Sharade Karunanidhe' in Hamirkalyani and &#8216;Sharadamba Sharadindu' in Bhairavi as the main piece. After rendering &#8216;Sharada Bhujangam' of Adi Sankara she sang Vallalar's Arutpa &#8216;Arampazhukkum.'Bharathi concluded the concert with the mangalam composed by Chandrasekara Bharati in Surutti. She was accompanied by T.H. Vasantha on the violin and Koppu Nagarajan on the mridangam.The vocal concert of Anupama Srimali came up next. She started with Nattakurinji varnam followed by &#8216;Siddhi Vinayakam' of Muthaiah Bhagavatar in Mohanakalyani. She took up Oothukadu's &#8216;Kalyanarama' in Hamsanadham as the second main in which she proved her mettle.The main piece was &#8216;O, Rangasayee' in Khambodi and her niraval in &#8216;Booloka Vaikundam' was superb and the kalpanaswaram was splendid. The accompanists were Nellai Ravindran on the violin, Koppu Nagarajan on the mridangam and Vishnupuram Raghu on the morsing.Day four was marked by the vocal recital of Maharajapuram Srinivasan with vocal support by his son Ganesh Viswanathan. He started with Kanada varnam, &#8216;Gajavadhana' in Hamsadhwani, of M.D. Ramanathan, with amazing kalpanaswaras followed by &#8216;Ganamoorthe' (stamp of his father Maharajapuram Sri Santhanam) and &#8216;Srivenkatesam' of Dikshitar. Srinivasan proved his worthiness in Mohanam and took this up as the main raga with Tyagaraja's &#8216;Nannupalimpa.' He concluded the concert with &#8216;Ragathil Sirandha Ragam' of Kadalur Subramaniam and &#8216;Bho Sambho' of Swami Dayananda. N.C. Madhav and Tiruchi Rangarajan gave good support.On the next day, Koviladi Madhwaprasad started the concert with the Kalyani varnam, followed by Dikshitar's &#8216;Mahaganapatim' in Nattai.Prasad took up Chakravaham as the sub-main in which he sang the rare composition &#8216;Neranammiti.' He took up Shanmukhapriya as the main raga and sang &#8216;Mariverathi' of Patnam Subramania Iyer.The accompanists were N.C. Madhav (violin), Salem Srinivasan (mridangam), Tiruchi Krishna (ghatam), Srimushnam Rangarajan (ganjira) and Malaikottai Deenadayalu (morsing).Scintillating performancesThe Jalatarangam recital by Anayampatti Ganesan took place on the sixth day. He started with &#8216;Ragunayaka' in Hamsadhwani and followed it up with &#8216;Sadhinchane' in Arabhi. His rendition included &#8216;Thathvameruka' in Garudadhwani and &#8216;Manavyla' in Nalinakanti, the raga rendition of which and the kalpanaswaras were superb. He took up Kharaharapriya as the main piece and concluded the concert with &#8216;Bagyadha Lakshmi Barama' in Madhyamavathi. He was accompanied by his son Anayampatti Venkatasubramanian on the violin, B. Sivaraman on the mridangam, Tiruchi Murali on the ghatam and Alathur T. Rajaganesh on the ganjira.Amritha Murali started with Saveri varnam. She also presented &#8216;Ramaneepai' in Kedaram, &#8216;Marivera' in Anandhabhairavi, &#8216;Vinaradha' in Devagandari and &#8216;Jampupathe' in Yamunakalyani. Amritha took up &#8216;Sriraguvara' in Khambodi as the main piece of the concert. She concluded the concert with &#8216;Sri Sri Chandrasekara Bharathi Mangalam.' Karaikkal Venkatasubramanian (violin), B. Sivaraman (mridangam), and Tiruchi Murali (ghatam) were the accompanists.On the penultimate day, T.M. Krishna began with &#8216;Terateeyagaradha' in Gowlibandhu of Tyagaraja followed by &#8216;Evarikai' in Devamanohari, &#8216;Ra Ra Rajeeva' in Mohanam and &#8216;Deva Deva' in Mayamalavagowla in which his rendition of kalpanaswaras was splendid. The main piece was &#8216;Evarimata' in Khambodi. Krishna concluded the concert with &#8216;Ramajogi' in Khamas. He was accompanied by T.K.V. Ramanujacharlu on the violin, Bharanikumar on the mridangam and Tiruchi Krishna on the ghatam.On the concluding day, Aishwarya Vidya Ragunath gave a delightful concert. &#8216;Rama Bhana' in Saveri as the main piece was excellent. &#8216;Ma Janaki' in Khambodi was the sub-main. She was accompanied by Akkarai Swarnalatha (violin) and K.S. Ramana (mridangam). The music festival was backed by Indian Overseas Bank, E. V. Vaidyanatha Iyer Trust, City Union Bank, Sangam Hotel, Raja Sir Annamalai Chettiyar Memorial Trust, Muthal Tirumaligai Sri Jagannatha Thathachariar, Rasika Ranjana Sabha and Dalmia Cements (Bharat) Limited.
p5
sVdate
p6
V2010/04/23
p7
sVurl
p8
Vhttp://www.hindu.com/thehindu/fr/2010/04/23/stories/2010042350720300.htm
p9
sVphoto
p10
(dp11
g8
Vhttp://www.hindu.com/fr/2010/04/23/images/2010042350720301.jpg
p12
sVcaption
p13
VSplendid presentation: Anupama Srimali.
p14
ss.