(dp1
Vheadline
p2
VSplendid sound techniques
p3
sVnews
p4
VSomayajulu, a noted mridangam and ghatam player backed up with more than 30 years of experience has accompanied almost all stalwart exponents of Carnatic music. Somayajulu developed a fascination for Jalatarangam after accompanying Jalatarangam maestro Aniyampatti Dandapani. He mastered the art under the scholarly guidance of veena vidwan D. Srinivas in the art of exposition of Carnatic music.Credited with more than 200 performances on the jalatarangam for almost all noted Sangeetha Sabhas of South. He has also toured Australia, U.S, Russia and so on,  performing there. He has also accompanied Sangeetha Kalaanidhi Umayalpuram K. Sivaraman in giving demonstrative lectures at a score of universities in the U.S in 2004.Sound technique and dexterity in surfacing the intensity of any note of any musical scale with an aesthetic touch marked his concert in Kalabharati. His choice was Vaatapi (Hamsadhvani) withswaram, Sriraaga Pancharatna kriti of ThyagarajaEndaromahanubhavulu, elaboration ofSudhaamayi(Amrithavarshini),Raghuvamsa(Kadanakutoohalam) adorned with scintillatingswaramwithghatiandyathivariations and an eruditeragam tanamandpallaviin Mohana in Trisra- triputa concluded withswaramin Ragamalika (Suddhasaveri, Sriranjani, Hindolam and Madhyamavathi) filled with thrilling permutations inlaya. Local AIR staffer V.V. Ramanamurty on mridangam and G. Venkatesh on morsing not only provided symphonic support but also executed an enthrallingthani.
p5
sVdate
p6
V2007/10/26
p7
sVurl
p8
Vhttp://www.hindu.com/thehindu/fr/2007/10/26/stories/2007102650480200.htm
p9
sVphoto
p10
(dp11
g8
V
sVcaption
p12
V
ss.