(dp1
Vheadline
p2
VEnthralling vocal recital
p3
sVnews
p4
V
sVdate
p5
V2008/01/25
p6
sVurl
p7
Vhttp://www.hindu.com/thehindu/fr/2008/01/25/stories/2008012550480300.htm
p8
sVphoto
p9
(dp10
g7
V
sVcaption
p11
V
ss.