(dp1
Vheadline
p2
VFeast of Tamil songs
p3
sVnews
p4
VSYED MUTHAHAR SAQAFThe Tiruchi Tamil Isai Sangam recently organised a music festival at the Sangam premises in the city, when budding vocalist, R. Kashyap Mahesh rendered a three-hour recital.Kashyap,  a recipient of the State Government's `Kalai Ilamani' award, is a student of the E. R. Higher Secondary School,  Tiruchi.He rendered 20 Tamil songs composed by Arunagirinathar, Sundarar and Arunachala Kavi.Kashyap Mahesh commenced his programme with Arunagirinathar's Tiruppugazh set in raga Nattai followed by a  varnam in Mohanam.The brief raga alapana of Vachaspathi along with niraval and kalpanaswaras  was the highlight of the programme.He also rendered M. K. Thiagaraja Bagavathar's  `Rajan Maharajan' in the raga Husseini which was enjoyed by the audience.As a mark of tribute to M. S. Subbulakshmi, Kashyap Mahesh rendered the late singer's favourite number `Kaatrinile Varum Geetham.'Arunagirinathar's `Muthai Thiru'  received a standing ovation. He concluded the concert with Hamsanandi tillana, the masterpiece of GNB.The accompanists Sathiamoorthy  (violin), Tiruchi Thaayumanavar  (mridangam), Srirangam Sridhar (ghatam) and Malaikottai Deenadayalan  (morsing) gave able support.The director of Bishop Heber College, D. Swamirai, conferred the title `Tamizhisai Thendral' on young Mahesh in the presence of K. N. Lakshmanan, former  District Governor, Lions Club and chairman of the music festival committee.Bottom Template Starts
p5
sVdate
p6
V2005/08/05
p7
sVurl
p8
Vhttp://www.hindu.com/thehindu/fr/2005/08/05/stories/2005080500090200.htm
p9
sVphoto
p10
(dp11
g8
Vhttp://www.hindu.com/fr/2005/08/05/images/2005080500090201.jpg
p12
sVcaption
p13
VENJOYABLE PERFORMANCE: R. Kashyap Mahesh.
p14
ss.