(dp1
Vheadline
p2
VVeritable feast
p3
sVnews
p4
VWith a style marked with dexterous ease  the veena recital by S. Srivani turned out to be a veritable treat of Carnatic music. The Sri Vijaya Tyagaraja Sangeetha Sabha had organised the concert in the Conference Hall of the Public Library.A gold medallist at the post-graduate  level in music from the Andhra University, recipient of second and first prizes at the national youth festivals consecutively in 1999 and 2000, recipient of the scholarship from the Ministry of HRD and a cash award of Rs. 10,000 from the Government of Andhra Pradesh, Srivani, is also a `B' grade artiste with the Akashvani.In the recital,  she was commendably supported on the violin by Vedula Srikiran, on themridangamby G. Venkata Rao (principal, D.V.N. Kalakshetra) and Y.P.S. Madhu Babu on theghatam.She spiritedly started the recital with thebhairavi atataala varnam - Viriboni.Sustaining the tempo with gusto, she playedVataapiadorned with flowingswaraminPaikaalam,Lavanya Rama (Purnashadjam), Sudhamayi (Amritavarshini)embellished with an absorbingalapanaand vibrantswaram, Padavi Nee Sadbhakti (Saalagabhairavi)and exquisitely elaboratedO Ranga Sai (Kaambhoji)before she took upragam tanam pallavi.Thepallaviwas set inTrisra TriputainSubhapantuvarali. The traverses reflected  aesthetic expression ofManodharmainaalapanaand thetanampart and fluency inswarakalpana. Sri Kiran on the violin in his turn and Venkata Rao along with Madhu Babu in histhanicontributed to the grandeur. She concluded the recital playing theDhanasri thillana.A.R.SBottom Template Starts
p5
sVdate
p6
V2005/09/09
p7
sVurl
p8
Vhttp://www.hindu.com/thehindu/fr/2005/09/09/stories/2005090901770200.htm
p9
sVphoto
p10
(dp11
g8
Vhttp://www.hindu.com/fr/2005/09/09/images/2005090901770201.jpg
p12
sVcaption
p13
VTHE RIGHT NOTE S. Srivani strums the strings.
p14
ss.