(dp1
Vheadline
p2
VRendering with zeal
p3
sVnews
p4
VVignana Samithi, a music and literary organisation at Anand Nagar colony has been serving the cause of music for two decades now. It recently celebrated its founder the late N. Mukteswara Rao&#8217;s 87th birthday by organising two concerts.  The concept was good and a young talented vocalist M. Kanthi Swaroop performed at the show first and it was followed by a septuagenarian J. Vijayalakshmi.Kanthi Swaroop, son and disciple of his mother Kamala Ramani and also D. Raghava Chary showed a lot of promise in his performance. This youngster, who is pursuing his MBA showed a right attitude towards music.  Histarastaipitch was stronger than his lower octaves. He began his concert with VasantaVarnam Ninnukoriin a steady way and went on to singSree raghukula mandu puttiwith briskswaram.Panthuvaraliwas essayed briefly. Hisragamappeared clean but mechanical. Thyagaraja&#8217;s famous kritiAppa Rama bhakthiin Rupakam, the kriti with set calculations was rendered with ease.Ranganathudein Sowrastra of Thyagaraja was appealing. But he did not exploit hisMandara sthaiand at times the softsangathiswent unheard and also lacked clarity. Kharahara Priya was taken for detailed expansion. Here Kanti Swaroop hurried hisragambut nevertheless the importantsangathisof theragamwere sung. Thyagaraja&#8217;sPrakkala nilabadiin Misrachapu was rendered confidently.vocalvidwanfrom Hyderabad, Puranam Purushottama Sastry. Vijayalakshmi opened her recital withSree Mahaganapathiin Sowrastra and went on to sing Vidhulaku in Mayamalavagowla. Saranga was the next to come for Thyagaraja&#8217;sEmi Throvawhich was a rare item to be heard these days.Sahana was theragamnext and Vijayalakshmi brought out the classical nuances of theragaand it was brilliant from a 70-year vocalist.Rama Ikanannubrovaof Thyagaraja was thekritiwith a goodswaram.Ramajhogi mandu konarein Khamaas was neatly rendered. Poorvikalyani was the main attraction and Vijayalakshmi left no stone unturned in singing it. Herraga bhavamwas very effective and Meenakshi Memudham Dehi was thekrithiand a decentNeravalflowing out of the vocalist was a treat to watch. She concluded her recital withRamachandra nee dayain Surati.
p5
sVdate
p6
V2009/04/17
p7
sVurl
p8
Vhttp://www.hindu.com/thehindu/fr/2009/04/17/stories/2009041750170300.htm
p9
sVphoto
p10
(dp11
g8
Vhttp://www.hindu.com/fr/2009/04/17/images/2009041750170301.jpg
p12
sVcaption
p13
VKanthi Swaroop
p14
ss.