(dp1
Vheadline
p2
VIn concert
p3
sVnews
p4
VGUDIPOODI SRIHARIU. Srinivas, the child prodigy, who created history with his playing Carnatic music on the Western musical instrument mandolin, which he tamed well to suit the Carnatic idiom, when he was nine years old, is now internationally acknowledged maestro. And now his younger brother Rajesh has also come up on the same lines. This pair of mandolin players thrilled the audience at the Sivam in the music fest, organised by Sri Satya Sai Seva Trust and Seva Samithi.Srinivas'display of phenomenal speed, with flawless exposition and sense of beauty were remarkable. These were clearly on display in the concert, presented  in the company of S.D. Sridharan on violin, Tanjavur K Muruga Bhoopathi (mridangam) and E.M. Subramaniam (ghatam). They started with Lalgudi'svarnaminCharukesi. Then came the popular invocation,Mahaganapatimof Muthuswamy Dikshitar inNatamarked by beautifulswaradecoration, in varying sequences.Sadhinchene, Pancharatna kirtanaof Thyagaraja inArabhiwas played in medium tempo in thePallaviandAnupallaviparts and was accelerated into fast tempo inCharanamandChitta Swaraspart of theSahitya, completing the whole piece in a few minutes.After a melodiousMarugelarainJayantasri, the pair went forTulasi DalamulacheinMayamalavagowla, which gained importance for the way Srinivas came out with thrilling play ofswarasdisplaying mastery overLaya.Srinivas took upKambhojiforO Rangasayifor the main piece and the brothers shaped it into a memorable rendition, going through all the technical and aesthetic aspects of the composition. TheTaniby percussionists was interesting.Bottom Template Starts
p5
sVdate
p6
V2005/11/25
p7
sVurl
p8
Vhttp://www.hindu.com/thehindu/fr/2005/11/25/stories/2005112502010300.htm
p9
sVphoto
p10
(dp11
g8
Vhttp://www.hindu.com/fr/2005/11/25/images/2005112502010301.jpg
p12
sVcaption
p13
VSIBLING POWER The brothers gave a memorable concert for an ecstatic audience.
p14
ss.