(dp1
Vheadline
p2
VMasterly display of skill
p3
sVnews
p4
VAs part of the 47th Annual festival of South Indian Cultural Association, Sunday evening at Ravindra Bharati saw a fine mandolin performance by Chennai's U.P.Raju and his wife Nagamani.    Melody and technical skills ruled their performance, which was frequently applauded.The duo began their show with traditionalKanada varnam (ata tala)anddisplayed their mastery overlayain thetisramas well. The duo displayed the same comfort  invilambaanddruta kalas. Continuing of the melodic lines ofgambheera nata,the two also played amallariin the traditional style.The invocation piece was Deekshitar'sSiddhi VinayakaminShanmukhapriya. This was also marked by a pleasingswaraexercise. After that  they playedManiranguwith its typical flavour.  The composition they played was a Swati Tirunal's compositionJaya Jaya Padmanabha.The popularHamsadhwaninumberRaghunayakawas particularly notable for their breezy spells ofswarakalpana. The instrumental delightNini Vina NamadenduinNavarasa Kannadawas another thrilling presentation, in which both the artistes came out with their own individual skilful presentation and matched each other's play. This piece practically served as preface for their main essayKalyani.The duo shared theragaessay and thetanamandswarakalpana. However, it was Raju who dominated this showpiece of the concert with the chosen Shyama SastrykritiTalli Ninu Vina. They had adoluas the main percussion support. Chennai Sekhar stole the limelight with his variety  on the instrument both as accompanist and soloist. Thetani avartanamwithRajaram,joining him on ghatam, was a treat.G. S.Bottom Template Starts
p5
sVdate
p6
V2007/02/23
p7
sVurl
p8
Vhttp://www.hindu.com/thehindu/fr/2007/02/23/stories/2007022300080300.htm
p9
sVphoto
p10
(dp11
g8
V
sVcaption
p12
V
ss.