(dp1
Vheadline
p2
VMandolin magic
p3
sVnews
p4
V
sVdate
p5
V2008/06/13
p6
sVurl
p7
Vhttp://www.hindu.com/thehindu/fr/2008/06/13/stories/2008061350450300.htm
p8
sVphoto
p9
(dp10
g7
V
sVcaption
p11
V
ss.