(dp1
Vheadline
p2
VA musical oblation
p3
sVnews
p4
VOn Sivarathri day, devotees pay homage to Lord Siva in different ways.On this Sivarathri, Carnatic vocalist Ananthalekshmi Venkitaraman plans to sing before the deity at Sreekanteswaram Temple in Thiruvananthapuram from 5 a.m. to 5 p.m.Siva Ashtotthara kritis, a set of 108 compositions composed by Harikesanallur Muthaiah Bhagavathar, will be the main items sung.The event is being organised by Soorya.Sivashtothara kritis have been set in ragas like Sooryakantham, Padi, Gouri, Bhooshavali, Hamsapramari, Undakriya, Jingala, Kokiladwani, Manorama, Pushpalatha, Saindavi, and Navaroj.As introductory pieces, the author has composed hymns invoking Ganapahti, Saraswathi, Siva, Subramanyan, Vishnu, Devi and Nandikesawara. Muthaiah Bhagavathar (1877-1945) was also a seasoned vocalist.  In all, Ananthalekshmi will render 118 compositions on that day.K.C. ASOKBottom Template Starts
p5
sVdate
p6
V2006/02/24
p7
sVurl
p8
Vhttp://www.hindu.com/thehindu/fr/2006/02/24/stories/2006022401100300.htm
p9
sVphoto
p10
(dp11
g8
Vhttp://www.hindu.com/fr/2006/02/24/images/2006022401100301.jpg
p12
sVcaption
p13
VLIFELONG AMBITION: Ananthalekshmi Venkitaraman
p14
ss.