(dp1
Vheadline
p2
VScintillating sisters
p3
sVnews
p4
VNada Bharathi's music  festival at Sri Thyagaraya Gana Sabha concluded with a melodious vocal duet by Aruna and Padma, known as junior Hyderabad sisters.  The  festival was dedicated to the Alathur Brothers.  The sisters had  their tutelage from the illustrious Lalitha and Haripriya  and later from S Srinivasan.  Over the years,  the sisters  had  combined well in developing  theragasand renderingswaras.  These traits were in view  at the concert.Bhairavi Ata Thala varnamandMerusamanainMayamalavagowlawith a brief raga essay andswarakalpanawas enough to set them well to go through the rest with ease. Their strength is their well-collected repertoire of some rare compositions too.LikeEdiyogatiinChalanataandEntani VinnavinturainOormikathey rendered this time.Sahanaessay forEe Vasudhaand theswaraswere enjoyed by the audience.Kalyaniwas their main melody.Enduko Neemanasuwas their choice. The melody of theragacontinued innerevalandswaras. They choseBhairavifor presentingRagam-Tanam-Pallavi. The distribution of the musical phrases and grammar was equitable and both came into focus. ThePallaviset toTisra Gati, Adi Thalamput to view their command and flow.They chose to presentAdhyatma Ramayana kirtanainKaanada, which were written much before the advent ofThyagaraja. AtillanainRagesriof Lalgudi gave finishing touch. L. Ramesh Pai on violin and Kapa Srinivasa Rao onmridangamlent support.Pleasing recitalAfter some gap, Sujanaranjani presented a seasoned vocalist Chandra Bhanu in a pleasing recital arranged at its venue in Hanuman Devasthanam, Sanathnagar. She had the company of two experienced accompanists &#151;  S.V. Ramanamurthy on violin and A. Srinivas on mridangam.  Blessed with good vocal verve and range, she appears to have specialised well thekritirendition, meaningfully and musically too. Chandra Bhanu began withKedaragowla varnamin two speeds.Sarswathi NamosthuteinSaraswathi, a composition of GNB followed. Thyagaraja'sManavi AlakimpainNalinakanthiwas good.Panthuvaraliwas the firstragaeffort. And she chose popularApparama Bhaktifor this.  Her ability of presentingsahityawith clarity also reflected in theneravupart she did at thecharanam Kapi Vaaradhi Datuna.She took upSankarabharanamas a major showpiece. She succeeded in building its majestic structure impressively, going through all the three octaves.Manasu Swadhinamainawas her choice number.Tani Avartanamby mridangist Srinivas was commendable. She concluded with Annamacharya'sNamo NarayanainKapiset to tune by the late Srirangam Gopalaratnam.G.S.Bottom Template Starts
p5
sVdate
p6
V2005/09/30
p7
sVurl
p8
Vhttp://www.hindu.com/thehindu/fr/2005/09/30/stories/2005093001770300.htm
p9
sVphoto
p10
(dp11
g8
Vhttp://www.hindu.com/fr/2005/09/30/images/2005093001770301.jpg
p12
sVcaption
p13
VMELODIC EFFORT The junior Hyderabad Sisters excel.
p14
ss.