(dp1
Vheadline
p2
VDisplaying her Manodharma
p3
sVnews
p4
VSangeetha Ksheerasgaram featured Ch.Mahalakshmi in a vocal concert at Thyagaraya Ganasabha&#8217;s A/C theatre. Mahalakshmi learntCarnatic music from T.V.Gopalakrishnan of Chennai and then D.Seshachari in Hyderabad. She is a graded artiste of AIR and a vocalist of vast experience. She has already given a number of performances all over the state and also in Chennai. She is blessed with a pleasing voice and learntthe art of modulating it according to thesahitya.She has developed a rich repertoire to suit the concert needs. Her performance on this occasion too was reasonably good. She was accompanied by N.C.Ananthakrishna on violin and P.Vidyasagar on mridngam. Mahalakshmi began the concert with a Natakuranjivarnam&#8211;Chalamelaand followed it with an invocation to Vinayaka &#8211;Sri Mahaganapthimin Athana of Mysore Vasudevachar.Kanulu Taakaniin Kalyanavasantham was a pleasant number. Thekritiwas preceded by a brief essay of theraga.Makelara Vicharamuin Ravichandrika,Paraku Neekelarain Kiranavali were also well received. All these compositions were in Aditalam. It was followed by Kalyani for delineation for Shyama Sastry&#8217;s compositionTalli Ninnuin Chapu Talam. Next wasParakela Nannuin Kedara Gowla of Shyama Sastry in Adi Talam.Theragaessay and theswarakalpnainkritiwere essayed well.But her real strength lay in essaying Kambhoji choosing it as her mainragaessay of the concert. She developed it well displaying her Manodharma.Sri Subrahmanyaya Namasteof Dikshitar was her choice number in this. She rendered it extensively and theswarakalpanatoo was quite elaborate. This was in Roopaka Talam.Jayadeva AshtapadiLalitha langain Hamsanandi,Pahi Pahi Jaganmohana, aTarangam of Narayana Teertha in Kedaram marked the last part of the concert that was concluded with Balamurali&#8217;s Tillana in Brindavani. Mridangam support lent by Vidyasagar played greater role in elevating the number. His Tani in the main piece too was laudable. Ananthakrishna&#8217;s violin support was neat throughout the concert.G.S
p5
sVdate
p6
V2008/07/18
p7
sVurl
p8
Vhttp://www.hindu.com/thehindu/fr/2008/07/18/stories/2008071850250300.htm
p9
sVphoto
p10
(dp11
g8
V
sVcaption
p12
V
ss.